(ichempy.models
Indexed
p1
(dp2
S'atom'
(lp3
(ichempy
Atom
(dp4
S'segi'
p5
S'E'
sS'alt'
p6
S''
sS'partial_charge'
p7
F0.53659999999999997
sS'resn'
p8
S'ASP'
sS'resi'
p9
S'1'
sS'resi_number'
p10
I1
sS'q'
F1
sS'hetatm'
p11
I0
sS'coord'
p12
(lp13
F3.7890000000000001
aF-15.753
aF24.545999999999999
asS'symbol'
p14
S'C'
sS'text_type'
p15
S'C'
sS'chain'
p16
S'E'
sS'name'
p17
S'C'
sS'b'
F33.960000000000001
sS'index'
p18
I6
sba(ichempy
Atom
(dp19
g5
S'E'
sg6
S''
sg7
F0.038100000000000002
sg8
S'ASP'
p20
sg9
S'1'
sg10
I1
sS'q'
F1
sg11
I0
sg12
(lp21
F3.984
aF-16.722999999999999
aF25.698
asg14
S'C'
sg15
S'CT'
p22
sg16
S'E'
sg17
S'CA'
sS'b'
F33.850000000000001
sg18
I1
sba(ichempy
Atom
(dp23
g5
S'E'
sg6
S''
sg7
F-0.030300000000000001
sg8
S'ASP'
p24
sg9
S'1'
sg10
I1
sS'q'
F1
sg11
I0
sg12
(lp25
F4.633
aF-16.02
aF26.888000000000002
asg14
S'C'
sg15
g22
sg16
S'E'
sg17
S'CB'
sS'b'
F35.909999999999997
sg18
I2
sba(ichempy
Atom
(dp26
g5
S'E'
sg6
S''
sg7
F0.7994
sg8
S'ASP'
sg9
S'1'
sg10
I1
sS'q'
F1
sg11
I0
sg12
(lp27
F6.016
aF-15.468
aF26.567
asg14
S'C'
sg15
S'C'
sg16
S'E'
sg17
S'CG'
sS'b'
F39.229999999999997
sg18
I3
sba(ichempy
Atom
(dp28
g11
I0
sg12
(lp29
F3.99157149897054
aF-15.194963762191525
aF27.197813951219018
asg8
g24
sg14
S'H'
sg15
S'HC'
p30
sg7
F-0.012200000000000001
sg16
S'E'
sg17
S'2HB'
p31
sg5
S'E'
sg9
S'1'
sg10
I1
sba(ichempy
Atom
(dp32
g11
I0
sg12
(lp33
F4.7237873113760633
aF-16.733246435744281
aF27.70722962958574
asg8
g24
sg14
S'H'
sg15
g30
sg7
F-0.012200000000000001
sg16
S'E'
sg17
S'3HB'
p34
sg5
S'E'
sg9
S'1'
sg10
I1
sba(ichempy
Atom
(dp35
g11
I0
sg12
(lp36
F5.4671065290302678
aF-18.545006437247594
aF24.842361617867152
asg8
S'ASP'
p37
sg14
S'H'
sg15
S'H'
sg7
F0.29360000000000003
sg16
S'E'
sg17
S'H'
sg5
S'E'
sg9
S'1'
sg10
I1
sba(ichempy
Atom
(dp38
g11
I0
sg12
(lp39
F3.0294244421511873
aF-17.120412152007514
aF26.042889961863761
asg8
g20
sg14
S'H'
sg15
S'H1'
p40
sg7
F0.087999999999999995
sg16
S'E'
sg17
S'HA'
p41
sg5
S'E'
sg9
S'1'
sg10
I1
sba(ichempy
Atom
(dp42
g5
S'E'
sg6
S''
sg7
F-0.51629999999999998
sg8
g37
sg9
S'1'
sg10
I1
sS'q'
F1
sg11
I0
sg12
(lp43
F4.8680000000000003
aF-17.809000000000001
aF25.187999999999999
asg14
S'N'
sg15
S'N'
sg16
S'E'
sg17
S'N'
sS'b'
F34.369999999999997
sg18
I0
sba(ichempy
Atom
(dp44
g5
S'E'
sg6
S''
sg7
F-0.58189999999999997
sg8
S'ASP'
sg9
S'1'
sg10
I1
sS'q'
F1
sg11
I0
sg12
(lp45
F4.4560000000000004
aF-15.888999999999999
aF23.516999999999999
asg14
S'O'
sg15
S'O'
sg16
S'E'
sg17
S'O'
sS'b'
F35.439999999999998
sg18
I7
sba(ichempy
Atom
(dp46
g5
S'E'
sg6
S''
sg7
F-0.8014
sg8
S'ASP'
sg9
S'1'
sg10
I1
sS'q'
F1
sg11
I0
sg12
(lp47
F6.3399999999999999
aF-14.367000000000001
aF27.058
asg14
S'O'
sg15
S'O2'
p48
sg16
S'E'
sg17
S'OD1'
sS'b'
F42.399999999999999
sg18
I4
sba(ichempy
Atom
(dp49
g5
S'E'
sg6
S''
sg7
F-0.8014
sg8
S'ASP'
sg9
S'1'
sg10
I1
sS'q'
F1
sg11
I0
sg12
(lp50
F6.7869999999999999
aF-16.131
aF25.835999999999999
asg14
S'O'
sg15
g48
sg16
S'E'
sg17
S'OD2'
sS'b'
F39.280000000000001
sg18
I5
sba(ichempy
Atom
(dp51
g5
S'E'
sg6
S''
sg7
F0.59730000000000005
sg8
S'CYX'
p52
sg9
S'2'
sg10
I2
sS'q'
F1
sg11
I0
sg12
(lp53
F2.8420000000000001
aF-12.366
aF24.012
asg14
S'C'
sg15
S'C'
sg16
S'E'
sg17
S'C'
sS'b'
F30.309999999999999
sg18
I12
sba(ichempy
Atom
(dp54
g5
S'E'
sg6
S''
sg7
F0.042900000000000001
sg8
g52
sg9
S'2'
sg10
I2
sS'q'
F1
sg11
I0
sg12
(lp55
F2.6379999999999999
aF-13.824999999999999
aF23.632999999999999
asg14
S'C'
sg15
g22
sg16
S'E'
sg17
S'CA'
sS'b'
F29.670000000000002
sg18
I9
sba(ichempy
Atom
(dp56
g5
S'E'
sg6
S''
sg7
F-0.079000000000000001
sg8
g52
sg9
S'2'
sg10
I2
sS'q'
F1
sg11
I0
sg12
(lp57
F1.198
aF-13.996
aF23.132000000000001
asg14
S'C'
sg15
g22
sg16
S'E'
sg17
S'CB'
sS'b'
F28.73
sg18
I10
sba(ichempy
Atom
(dp58
g11
I0
sg12
(lp59
F1.0641684017291642
aF-13.344015019511385
aF22.268805532616472
asg8
g52
sg14
S'H'
sg15
g40
sg7
F0.090999999999999998
sg16
S'E'
sg17
g31
sg5
S'E'
sg9
S'2'
sg10
I2
sba(ichempy
Atom
(dp60
g11
I0
sg12
(lp61
F0.52610893168777351
aF-13.679995962020481
aF23.929999899939151
asg8
g52
sg14
S'H'
sg15
g40
sg7
F0.090999999999999998
sg16
S'E'
sg17
g34
sg5
S'E'
sg9
S'2'
sg10
I2
sba(ichempy
Atom
(dp62
g11
I0
sg12
(lp63
F2.4208608215552365
aF-14.678808568885991
aF25.590940998506895
asg8
g52
sg14
S'H'
sg15
S'H'
sg7
F0.27189999999999998
sg16
S'E'
sg17
S'H'
sg5
S'E'
sg9
S'2'
sg10
I2
sba(ichempy
Atom
(dp64
g11
I0
sg12
(lp65
F3.3657791602829943
aF-14.059348970998428
aF22.856135755971639
asg8
g52
sg14
S'H'
sg15
g40
sg7
F0.076600000000000001
sg16
S'E'
sg17
g41
sg5
S'E'
sg9
S'2'
sg10
I2
sba(ichempy
Atom
(dp66
g5
S'E'
sg6
S''
sg7
F-0.41570000000000001
sg8
g52
sg9
S'2'
sg10
I2
sS'q'
F1
sg11
I0
sg12
(lp67
F2.9079999999999999
aF-14.771000000000001
aF24.710999999999999
asg14
S'N'
sg15
S'N'
sg16
S'E'
sg17
S'N'
sS'b'
F31.940000000000001
sg18
I8
sba(ichempy
Atom
(dp68
g5
S'E'
sg6
S''
sg7
F-0.56789999999999996
sg8
g52
sg9
S'2'
sg10
I2
sS'q'
F1
sg11
I0
sg12
(lp69
F3.0249999999999999
aF-12.039
aF25.187999999999999
asg14
S'O'
sg15
S'O'
sg16
S'E'
sg17
S'O'
sS'b'
F30.739999999999998
sg18
I13
sba(ichempy
Atom
(dp70
g5
S'E'
sg6
S''
sg7
F-0.1081
sg8
g52
sg9
S'2'
sg10
I2
sS'q'
F1
sg11
I0
sg12
(lp71
F0.72499999999999998
aF-15.680999999999999
aF22.638000000000002
asg14
S'S'
sg15
S'S'
sg16
S'E'
sg17
S'SG'
sS'b'
F25.850000000000001
sg18
I11
sba(ichempy
Atom
(dp72
g5
S'E'
sg6
S''
sg7
F0.59730000000000005
sg8
S'ALA'
sg9
S'3'
sg10
I3
sS'q'
F1
sg11
I0
sg12
(lp73
F1.736
aF-9.4179999999999993
aF22.436
asg14
S'C'
sg15
S'C'
sg16
S'E'
sg17
S'C'
sS'b'
F29.899999999999999
sg18
I17
sba(ichempy
Atom
(dp74
g5
S'E'
sg6
S''
sg7
F0.033700000000000001
sg8
S'ALA'
p75
sg9
S'3'
sg10
I3
sS'q'
F1
sg11
I0
sg12
(lp76
F2.923
aF-10.055999999999999
aF23.151
asg14
S'C'
sg15
g22
sg16
S'E'
sg17
S'CA'
sS'b'
F30.149999999999999
sg18
I15
sba(ichempy
Atom
(dp77
g5
S'E'
sg6
S''
sg7
F-0.1825
sg8
S'ALA'
p78
sg9
S'3'
sg10
I3
sS'q'
F1
sg11
I0
sg12
(lp79
F4.226
aF-9.5660000000000007
aF22.552
asg14
S'C'
sg15
g22
sg16
S'E'
sg17
S'CB'
sS'b'
F30.82
sg18
I16
sba(ichempy
Atom
(dp80
g11
I0
sg12
(lp81
F4.1993731205953928
aF-9.8766751570819729
aF21.507551841370159
asg8
g78
sg14
S'H'
sg15
g30
sg7
F0.060299999999999999
sg16
S'E'
sg17
S'1HB'
sg5
S'E'
sg9
S'3'
sg10
I3
sba(ichempy
Atom
(dp82
g11
I0
sg12
(lp83
F5.0091992796729432
aF-10.117428159932338
aF23.072217140003499
asg8
g78
sg14
S'H'
sg15
g30
sg7
F0.060299999999999999
sg16
S'E'
sg17
g31
sg5
S'E'
sg9
S'3'
sg10
I3
sba(ichempy
Atom
(dp84
g11
I0
sg12
(lp85
F4.5627801573649061
aF-8.5294385270279083
aF22.537186548167476
asg8
g78
sg14
S'H'
sg15
g30
sg7
F0.060299999999999999
sg16
S'E'
sg17
g34
sg5
S'E'
sg9
S'3'
sg10
I3
sba(ichempy
Atom
(dp86
g11
I0
sg12
(lp87
F2.6557651237084126
aF-11.872554292473698
aF22.065565804593881
asg8
S'ALA'
p88
sg14
S'H'
sg15
S'H'
sg7
F0.27189999999999998
sg16
S'E'
sg17
S'H'
sg5
S'E'
sg9
S'3'
sg10
I3
sba(ichempy
Atom
(dp89
g11
I0
sg12
(lp90
F2.9315957814584266
aF-9.7852054563686703
aF24.206791848652291
asg8
g75
sg14
S'H'
sg15
g40
sg7
F0.082299999999999998
sg16
S'E'
sg17
g41
sg5
S'E'
sg9
S'3'
sg10
I3
sba(ichempy
Atom
(dp91
g5
S'E'
sg6
S''
sg7
F-0.41570000000000001
sg8
g88
sg9
S'3'
sg10
I3
sS'q'
F1
sg11
I0
sg12
(lp92
F2.7919999999999998
aF-11.504
aF22.995999999999999
asg14
S'N'
sg15
S'N'
sg16
S'E'
sg17
S'N'
sS'b'
F30.149999999999999
sg18
I14
sba(ichempy
Atom
(dp93
g5
S'E'
sg6
S''
sg7
F-0.56789999999999996
sg8
S'ALA'
sg9
S'3'
sg10
I3
sS'q'
F1
sg11
I0
sg12
(lp94
F1.3320000000000001
aF-9.8670000000000009
aF21.361999999999998
asg14
S'O'
sg15
S'O'
sg16
S'E'
sg17
S'O'
sS'b'
F28.16
sg18
I18
sba(ichempy
Atom
(dp95
g5
S'E'
sg6
S''
sg7
F0.59730000000000005
sg8
S'TRP'
sg9
S'4'
sg10
I4
sS'q'
F1
sg11
I0
sg12
(lp96
F0.23100000000000001
aF-6.2119999999999997
aF22.372
asg14
S'C'
sg15
S'C'
sg16
S'E'
sg17
S'C'
sS'b'
F32.170000000000002
sg18
I31
sba(ichempy
Atom
(dp97
g5
S'E'
sg6
S''
sg7
F-0.0275
sg8
S'TRP'
p98
sg9
S'4'
sg10
I4
sS'q'
F1
sg11
I0
sg12
(lp99
F0.0070000000000000001
aF-7.7149999999999999
aF22.471
asg14
S'C'
sg15
g22
sg16
S'E'
sg17
S'CA'
sS'b'
F32.079999999999998
sg18
I20
sba(ichempy
Atom
(dp100
g5
S'E'
sg6
S''
sg7
F-0.0050000000000000001
sg8
S'TRP'
p101
sg9
S'4'
sg10
I4
sS'q'
F1
sg11
I0
sg12
(lp102
F-1.2330000000000001
aF-7.992
aF23.344000000000001
asg14
S'C'
sg15
g22
sg16
S'E'
sg17
S'CB'
sS'b'
F32.829999999999998
sg18
I21
sba(ichempy
Atom
(dp103
g5
S'E'
sg6
S''
sg7
F-0.1638
sg8
S'TRP'
p104
sg9
S'4'
sg10
I4
sS'q'
F1
sg11
I0
sg12
(lp105
F-0.83099999999999996
aF-10.263999999999999
aF24.527999999999999
asg14
S'C'
sg15
S'CW'
p106
sg16
S'E'
sg17
S'CD1'
sS'b'
F35.359999999999999
sg18
I23
sba(ichempy
Atom
(dp107
g5
S'E'
sg6
S''
sg7
F0.12429999999999999
sg8
S'TRP'
sg9
S'4'
sg10
I4
sS'q'
F1
sg11
I0
sg12
(lp108
F-2.5070000000000001
aF-10.285
aF23.036999999999999
asg14
S'C'
sg15
S'CB'
p109
sg16
S'E'
sg17
S'CD2'
sS'b'
F35.859999999999999
sg18
I24
sba(ichempy
Atom
(dp110
g5
S'E'
sg6
S''
sg7
F0.13800000000000001
sg8
S'TRP'
sg9
S'4'
sg10
I4
sS'q'
F1
sg11
I0
sg12
(lp111
F-2.3900000000000001
aF-11.576000000000001
aF23.609999999999999
asg14
S'C'
sg15
S'CN'
p112
sg16
S'E'
sg17
S'CE2'
sS'b'
F34.799999999999997
sg18
I25
sba(ichempy
Atom
(dp113
g5
S'E'
sg6
S''
sg7
F-0.2387
sg8
S'TRP'
p114
sg9
S'4'
sg10
I4
sS'q'
F1
sg11
I0
sg12
(lp115
F-3.5
aF-10.058999999999999
aF22.068999999999999
asg14
S'C'
sg15
S'CA'
p116
sg16
S'E'
sg17
S'CE3'
sS'b'
F36.659999999999997
sg18
I26
sba(ichempy
Atom
(dp117
g5
S'E'
sg6
S''
sg7
F-0.14149999999999999
sg8
S'TRP'
sg9
S'4'
sg10
I4
sS'q'
F1
sg11
I0
sg12
(lp118
F-1.5
aF-9.4580000000000002
aF23.635999999999999
asg14
S'C'
sg15
S'C*'
p119
sg16
S'E'
sg17
S'CG'
sS'b'
F35.039999999999999
sg18
I22
sba(ichempy
Atom
(dp120
g5
S'E'
sg6
S''
sg7
F-0.1134
sg8
S'TRP'
p121
sg9
S'4'
sg10
I4
sS'q'
F1
sg11
I0
sg12
(lp122
F-4.194
aF-12.390000000000001
aF22.297000000000001
asg14
S'C'
sg15
g116
sg16
S'E'
sg17
S'CH2'
sS'b'
F38.270000000000003
sg18
I30
sba(ichempy
Atom
(dp123
g5
S'E'
sg6
S''
sg7
F-0.2601
sg8
S'TRP'
p124
sg9
S'4'
sg10
I4
sS'q'
F1
sg11
I0
sg12
(lp125
F-3.2280000000000002
aF-12.638
aF23.248999999999999
asg14
S'C'
sg15
g116
sg16
S'E'
sg17
S'CZ2'
sS'b'
F36.810000000000002
sg18
I28
sba(ichempy
Atom
(dp126
g5
S'E'
sg6
S''
sg7
F-0.19719999999999999
sg8
S'TRP'
p127
sg9
S'4'
sg10
I4
sS'q'
F1
sg11
I0
sg12
(lp128
F-4.3380000000000001
aF-11.119999999999999
aF21.706
asg14
S'C'
sg15
g116
sg16
S'E'
sg17
S'CZ3'
sS'b'
F37.350000000000001
sg18
I29
sba(ichempy
Atom
(dp129
g11
I0
sg12
(lp130
F-0.0080931108316629752
aF-9.9450968873147598
aF25.150515105422315
asg8
g104
sg14
S'H'
sg15
S'H4'
p131
sg7
F0.20619999999999999
sg16
S'E'
sg17
S'1HD'
p132
sg5
S'E'
sg9
S'4'
sg10
I4
sba(ichempy
Atom
(dp133
g11
I0
sg12
(lp134
F-1.0414483032892776
aF-12.310329902813367
aF25.077461053069452
asg8
S'TRP'
p135
sg14
S'H'
sg15
S'H'
sg7
F0.3412
sg16
S'E'
sg17
S'1HE'
p136
sg5
S'E'
sg9
S'4'
sg10
I4
sba(ichempy
Atom
(dp137
g11
I0
sg12
(lp138
F-2.1049705136106933
aF-7.5845311386157608
aF22.832398054738125
asg8
g101
sg14
S'H'
sg15
g30
sg7
F0.0339
sg16
S'E'
sg17
g31
sg5
S'E'
sg9
S'4'
sg10
I4
sba(ichempy
Atom
(dp139
g11
I0
sg12
(lp140
F-4.8560981245224966
aF-13.18890785602766
aF21.997379721845999
asg8
g121
sg14
S'H'
sg15
g41
sg7
F0.14169999999999999
sg16
S'E'
sg17
S'2HH'
p141
sg5
S'E'
sg9
S'4'
sg10
I4
sba(ichempy
Atom
(dp142
g11
I0
sg12
(lp143
F-3.1217788835088034
aF-13.614017230281512
aF23.699008267262911
asg8
g124
sg14
S'H'
sg15
g41
sg7
F0.15720000000000001
sg16
S'E'
sg17
S'2HZ'
p144
sg5
S'E'
sg9
S'4'
sg10
I4
sba(ichempy
Atom
(dp145
g11
I0
sg12
(lp146
F-1.0994319745494827
aF-7.4763488611801687
aF24.294980276141974
asg8
g101
sg14
S'H'
sg15
g30
sg7
F0.0339
sg16
S'E'
sg17
g34
sg5
S'E'
sg9
S'4'
sg10
I4
sba(ichempy
Atom
(dp147
g11
I0
sg12
(lp148
F-3.614487738496885
aF-9.0861979127075561
aF21.614083901479255
asg8
g114
sg14
S'H'
sg15
g41
sg7
F0.17000000000000001
sg16
S'E'
sg17
S'3HE'
p149
sg5
S'E'
sg9
S'4'
sg10
I4
sba(ichempy
Atom
(dp150
g11
I0
sg12
(lp151
F-5.1053761124802364
aF-10.962361575213427
aF20.962572781621812
asg8
g127
sg14
S'H'
sg15
g41
sg7
F0.1447
sg16
S'E'
sg17
S'3HZ'
p152
sg5
S'E'
sg9
S'4'
sg10
I4
sba(ichempy
Atom
(dp153
g11
I0
sg12
(lp154
F1.5613715718387524
aF-8.037747911703816
aF23.906432808439533
asg8
S'TRP'
p155
sg14
S'H'
sg15
S'H'
sg7
F0.27189999999999998
sg16
S'E'
sg17
S'H'
sg5
S'E'
sg9
S'4'
sg10
I4
sba(ichempy
Atom
(dp156
g11
I0
sg12
(lp157
F-0.15465737041999172
aF-8.1116965409386825
aF21.468703263002329
asg8
g98
sg14
S'H'
sg15
g40
sg7
F0.1123
sg16
S'E'
sg17
g41
sg5
S'E'
sg9
S'4'
sg10
I4
sba(ichempy
Atom
(dp158
g5
S'E'
sg6
S''
sg7
F-0.41570000000000001
sg8
g155
sg9
S'4'
sg10
I4
sS'q'
F1
sg11
I0
sg12
(lp159
F1.173
aF-8.3770000000000007
aF23.038
asg14
S'N'
sg15
S'N'
sg16
S'E'
sg17
S'N'
sS'b'
F31.77
sg18
I19
sba(ichempy
Atom
(dp160
g5
S'E'
sg6
S''
sg7
F-0.34179999999999999
sg8
g135
sg9
S'4'
sg10
I4
sS'q'
F1
sg11
I0
sg12
(lp161
F-1.3600000000000001
aF-11.535
aF24.513999999999999
asg14
S'N'
sg15
S'NA'
p162
sg16
S'E'
sg17
S'NE1'
sS'b'
F33.130000000000003
sg18
I27
sba(ichempy
Atom
(dp163
g5
S'E'
sg6
S''
sg7
F-0.56789999999999996
sg8
S'TRP'
sg9
S'4'
sg10
I4
sS'q'
F1
sg11
I0
sg12
(lp164
F0.752
aF-5.5919999999999996
aF23.297000000000001
asg14
S'O'
sg15
S'O'
sg16
S'E'
sg17
S'O'
sS'b'
F33.32
sg18
I32
sba(ichempy
Atom
(dp165
g5
S'E'
sg6
S''
sg7
F0.59730000000000005
sg8
S'HIE'
p166
sg9
S'5'
sg10
I5
sS'q'
F1
sg11
I0
sg12
(lp167
F-1.4079999999999999
aF-3.6360000000000001
aF20.917999999999999
asg14
S'C'
sg15
S'C'
sg16
S'E'
sg17
S'C'
sS'b'
F34.579999999999998
sg18
I41
sba(ichempy
Atom
(dp168
g5
S'E'
sg6
S''
sg7
F-0.058099999999999999
sg8
g166
sg9
S'5'
sg10
I5
sS'q'
F1
sg11
I0
sg12
(lp169
F-0.0060000000000000001
aF-4.2050000000000001
aF21.042999999999999
asg14
S'C'
sg15
g22
sg16
S'E'
sg17
S'CA'
sS'b'
F32.909999999999997
sg18
I34
sba(ichempy
Atom
(dp170
g5
S'E'
sg6
S''
sg7
F-0.0074000000000000003
sg8
g166
sg9
S'5'
sg10
I5
sS'q'
F1
sg11
I0
sg12
(lp171
F0.79100000000000004
aF-3.871
aF19.783000000000001
asg14
S'C'
sg15
g22
sg16
S'E'
sg17
S'CB'
sS'b'
F33.020000000000003
sg18
I35
sba(ichempy
Atom
(dp172
g5
S'E'
sg6
S''
sg7
F-0.22070000000000001
sg8
g166
sg9
S'5'
sg10
I5
sS'q'
F1
sg11
I0
sg12
(lp173
F0.58199999999999996
aF-1.619
aF18.498999999999999
asg14
S'C'
sg15
g106
sg16
S'E'
sg17
S'CD2'
sS'b'
F31.48
sg18
I37
sba(ichempy
Atom
(dp174
g5
S'E'
sg6
S''
sg7
F0.16350000000000001
sg8
g166
sg9
S'5'
sg10
I5
sS'q'
F1
sg11
I0
sg12
(lp175
F1.431
aF-0.30299999999999999
aF20.038
asg14
S'C'
sg15
S'CR'
sg16
S'E'
sg17
S'CE1'
sS'b'
F29.68
sg18
I39
sba(ichempy
Atom
(dp176
g5
S'E'
sg6
S''
sg7
F0.18679999999999999
sg8
g166
sg9
S'5'
sg10
I5
sS'q'
F1
sg11
I0
sg12
(lp177
F0.93899999999999995
aF-2.3959999999999999
aF19.548999999999999
asg14
S'C'
sg15
S'CC'
sg16
S'E'
sg17
S'CG'
sS'b'
F32.859999999999999
sg18
I36
sba(ichempy
Atom
(dp178
g11
I0
sg12
(lp179
F1.7775425077478113
aF0.57538174462640668
aF20.562169630015827
asg8
g166
sg14
S'H'
sg15
S'H5'
sg7
F0.14349999999999999
sg16
S'E'
sg17
g136
sg5
S'E'
sg9
S'5'
sg10
I5
sba(ichempy
Atom
(dp180
g11
I0
sg12
(lp181
F1.7848648405630332
aF-4.3090354560727375
aF19.874965308218727
asg8
g166
sg14
S'H'
sg15
g30
sg7
F0.036700000000000003
sg16
S'E'
sg17
g31
sg5
S'E'
sg9
S'5'
sg10
I5
sba(ichempy
Atom
(dp182
g11
I0
sg12
(lp183
F0.13491993484654935
aF-1.9546654030477852
aF17.574960957243064
asg8
g166
sg14
S'H'
sg15
g131
sg7
F0.1862
sg16
S'E'
sg17
S'2HD'
sg5
S'E'
sg9
S'5'
sg10
I5
sba(ichempy
Atom
(dp184
g11
I0
sg12
(lp185
F0.7420715191700118
aF0.48643273962698313
aF18.245472435927578
asg8
g166
sg14
S'H'
sg15
S'H'
sg7
F0.33389999999999997
sg16
S'E'
sg17
S'2HE'
sg5
S'E'
sg9
S'5'
sg10
I5
sba(ichempy
Atom
(dp186
g11
I0
sg12
(lp187
F0.28207936661052968
aF-4.3090506498434555
aF18.924389834044469
asg8
g166
sg14
S'H'
sg15
g30
sg7
F0.036700000000000003
sg16
S'E'
sg17
g34
sg5
S'E'
sg9
S'5'
sg10
I5
sba(ichempy
Atom
(dp188
g11
I0
sg12
(lp189
F-0.5108123599326323
aF-6.202011355230546
aF20.48919294019765
asg8
g166
sg14
S'H'
sg15
S'H'
sg7
F0.27189999999999998
sg16
S'E'
sg17
S'H'
sg5
S'E'
sg9
S'5'
sg10
I5
sba(ichempy
Atom
(dp190
g11
I0
sg12
(lp191
F0.53025154729164037
aF-3.774875529312097
aF21.888888419203603
asg8
g166
sg14
S'H'
sg15
g40
sg7
F0.13600000000000001
sg16
S'E'
sg17
g41
sg5
S'E'
sg9
S'5'
sg10
I5
sba(ichempy
Atom
(dp192
g5
S'E'
sg6
S''
sg7
F-0.41570000000000001
sg8
g166
sg9
S'5'
sg10
I5
sS'q'
F1
sg11
I0
sg12
(lp193
F-0.13500000000000001
aF-5.6340000000000003
aF21.234999999999999
asg14
S'N'
sg15
S'N'
sg16
S'E'
sg17
S'N'
sS'b'
F32.18
sg18
I33
sba(ichempy
Atom
(dp194
g5
S'E'
sg6
S''
sg7
F-0.54320000000000002
sg8
g166
sg9
S'5'
sg10
I5
sS'q'
F1
sg11
I0
sg12
(lp195
F1.47
aF-1.542
aF20.495000000000001
asg14
S'N'
sg15
S'NB'
sg16
S'E'
sg17
S'ND1'
sS'b'
F29.870000000000001
sg18
I38
sba(ichempy
Atom
(dp196
g5
S'E'
sg6
S''
sg7
F-0.27950000000000003
sg8
g166
sg9
S'5'
sg10
I5
sS'q'
F1
sg11
I0
sg12
(lp197
F0.89600000000000002
aF-0.32200000000000001
aF18.831
asg14
S'N'
sg15
g162
sg16
S'E'
sg17
S'NE2'
sS'b'
F29.870000000000001
sg18
I40
sba(ichempy
Atom
(dp198
g5
S'E'
sg6
S''
sg7
F-0.56789999999999996
sg8
g166
sg9
S'5'
sg10
I5
sS'q'
F1
sg11
I0
sg12
(lp199
F-2.0920000000000001
aF-3.8700000000000001
aF19.914000000000001
asg14
S'O'
sg15
S'O'
sg16
S'E'
sg17
S'O'
sS'b'
F35.869999999999997
sg18
I42
sba(ichempy
Atom
(dp200
g5
S'E'
sg6
S''
sg7
F0.59730000000000005
sg8
S'LEU'
sg9
S'6'
sg10
I6
sS'q'
F1
sg11
I0
sg12
(lp201
F-4.242
aF-3.339
aF21.698
asg14
S'C'
sg15
S'C'
sg16
S'E'
sg17
S'C'
sS'b'
F36.229999999999997
sg18
I49
sba(ichempy
Atom
(dp202
g5
S'E'
sg6
S''
sg7
F-0.051799999999999999
sg8
S'LEU'
p203
sg9
S'6'
sg10
I6
sS'q'
F1
sg11
I0
sg12
(lp204
F-3.165
aF-2.2949999999999999
aF21.956
asg14
S'C'
sg15
g22
sg16
S'E'
sg17
S'CA'
sS'b'
F34.659999999999997
sg18
I44
sba(ichempy
Atom
(dp205
g5
S'E'
sg6
S''
sg7
F-0.11020000000000001
sg8
S'LEU'
p206
sg9
S'6'
sg10
I6
sS'q'
F1
sg11
I0
sg12
(lp207
F-3.266
aF-1.1990000000000001
aF20.891999999999999
asg14
S'C'
sg15
g22
sg16
S'E'
sg17
S'CB'
sS'b'
F34.439999999999998
sg18
I45
sba(ichempy
Atom
(dp208
g5
S'E'
sg6
S''
sg7
F-0.41210000000000002
sg8
S'LEU'
p209
sg9
S'6'
sg10
I6
sS'q'
F1
sg11
I0
sg12
(lp210
F-2.4220000000000002
aF0.86299999999999999
aF19.780999999999999
asg14
S'C'
sg15
g22
sg16
S'E'
sg17
S'CD1'
sS'b'
F34.549999999999997
sg18
I47
sba(ichempy
Atom
(dp211
g5
S'E'
sg6
S''
sg7
F-0.41210000000000002
sg8
S'LEU'
p212
sg9
S'6'
sg10
I6
sS'q'
F1
sg11
I0
sg12
(lp213
F-2.5819999999999999
aF0.753
aF22.302
asg14
S'C'
sg15
g22
sg16
S'E'
sg17
S'CD2'
sS'b'
F33.68
sg18
I48
sba(ichempy
Atom
(dp214
g5
S'E'
sg6
S''
sg7
F0.35310000000000002
sg8
S'LEU'
p215
sg9
S'6'
sg10
I6
sS'q'
F1
sg11
I0
sg12
(lp216
F-2.302
aF-0.023
aF21.018000000000001
asg14
S'C'
sg15
g22
sg16
S'E'
sg17
S'CG'
sS'b'
F35.32
sg18
I46
sba(ichempy
Atom
(dp217
g11
I0
sg12
(lp218
F-2.267788634675481
aF0.53494590927623809
aF18.75304116407117
asg8
g209
sg14
S'H'
sg15
g30
sg7
F0.10000000000000001
sg16
S'E'
sg17
S'1HD1'
p219
sg5
S'E'
sg9
S'6'
sg10
I6
sba(ichempy
Atom
(dp220
g11
I0
sg12
(lp221
F-1.8611890243508225
aF1.5706066681652886
aF22.309132570037267
asg8
g212
sg14
S'H'
sg15
g30
sg7
F0.10000000000000001
sg16
S'E'
sg17
S'1HD2'
p222
sg5
S'E'
sg9
S'6'
sg10
I6
sba(ichempy
Atom
(dp223
g11
I0
sg12
(lp224
F-3.0934502161704094
aF-1.664445753068037
aF19.921594505862991
asg8
g206
sg14
S'H'
sg15
g30
sg7
F0.045699999999999998
sg16
S'E'
sg17
g31
sg5
S'E'
sg9
S'6'
sg10
I6
sba(ichempy
Atom
(dp225
g11
I0
sg12
(lp226
F-1.7105622567867693
aF1.674166625957231
aF19.93580646777453
asg8
g209
sg14
S'H'
sg15
g30
sg7
F0.10000000000000001
sg16
S'E'
sg17
S'2HD1'
p227
sg5
S'E'
sg9
S'6'
sg10
I6
sba(ichempy
Atom
(dp228
g11
I0
sg12
(lp229
F-2.5569433543583657
aF0.33620791501314756
aF23.308854767283496
asg8
g212
sg14
S'H'
sg15
g30
sg7
F0.10000000000000001
sg16
S'E'
sg17
S'2HD2'
p230
sg5
S'E'
sg9
S'6'
sg10
I6
sba(ichempy
Atom
(dp231
g11
I0
sg12
(lp232
F-4.2796497377480236
aF-0.79959824819350866
aF20.925052228627862
asg8
g206
sg14
S'H'
sg15
g30
sg7
F0.045699999999999998
sg16
S'E'
sg17
g34
sg5
S'E'
sg9
S'6'
sg10
I6
sba(ichempy
Atom
(dp233
g11
I0
sg12
(lp234
F-3.4357564923661665
aF1.2625616745984203
aF19.808354019403975
asg8
g209
sg14
S'H'
sg15
g30
sg7
F0.10000000000000001
sg16
S'E'
sg17
S'3HD1'
p235
sg5
S'E'
sg9
S'6'
sg10
I6
sba(ichempy
Atom
(dp236
g11
I0
sg12
(lp237
F-3.5863832599302197
aF1.1590017168064779
aF22.181680121666712
asg8
g212
sg14
S'H'
sg15
g30
sg7
F0.10000000000000001
sg16
S'E'
sg17
S'3HD2'
p238
sg5
S'E'
sg9
S'6'
sg10
I6
sba(ichempy
Atom
(dp239
g11
I0
sg12
(lp240
F-1.2278936987077027
aF-2.7655616302891537
aF22.735909275336869
asg8
S'LEU'
p241
sg14
S'H'
sg15
S'H'
sg7
F0.27189999999999998
sg16
S'E'
sg17
S'H'
sg5
S'E'
sg9
S'6'
sg10
I6
sba(ichempy
Atom
(dp242
g11
I0
sg12
(lp243
F-3.3177465717728976
aF-1.8577239262191978
aF22.942690488507147
asg8
g203
sg14
S'H'
sg15
g40
sg7
F0.092200000000000004
sg16
S'E'
sg17
g41
sg5
S'E'
sg9
S'6'
sg10
I6
sba(ichempy
Atom
(dp244
g11
I0
sg12
(lp245
F-1.2766530438288692
aF-0.38802509244302141
aF21.077332127532735
asg8
g215
sg14
S'H'
sg15
g30
sg7
F-0.0361
sg16
S'E'
sg17
S'HG'
p246
sg5
S'E'
sg9
S'6'
sg10
I6
sba(ichempy
Atom
(dp247
g5
S'E'
sg6
S''
sg7
F-0.41570000000000001
sg8
g241
sg9
S'6'
sg10
I6
sS'q'
F1
sg11
I0
sg12
(lp248
F-1.8380000000000001
aF-2.9039999999999999
aF21.943000000000001
asg14
S'N'
sg15
S'N'
sg16
S'E'
sg17
S'N'
sS'b'
F34.539999999999999
sg18
I43
sba(ichempy
Atom
(dp249
g5
S'E'
sg6
S''
sg7
F-0.56789999999999996
sg8
S'LEU'
sg9
S'6'
sg10
I6
sS'q'
F1
sg11
I0
sg12
(lp250
F-5.181
aF-3.1000000000000001
aF20.933
asg14
S'O'
sg15
S'O'
sg16
S'E'
sg17
S'O'
sS'b'
F35.259999999999998
sg18
I50
sba(ichempy
Atom
(dp251
g5
S'E'
sg6
S''
sg7
F0.59730000000000005
sg8
S'GLY'
sg9
S'7'
sg10
I7
sS'q'
F1
sg11
I0
sg12
(lp252
F-4.7809999999999997
aF-6.5140000000000002
aF20.988
asg14
S'C'
sg15
S'C'
sg16
S'E'
sg17
S'C'
sS'b'
F39.520000000000003
sg18
I53
sba(ichempy
Atom
(dp253
g5
S'E'
sg6
S''
sg7
F-0.0252
sg8
S'GLY'
p254
sg9
S'7'
sg10
I7
sS'q'
F1
sg11
I0
sg12
(lp255
F-5.0629999999999997
aF-5.5640000000000001
aF22.138000000000002
asg14
S'C'
sg15
g22
sg16
S'E'
sg17
S'CA'
sS'b'
F38.950000000000003
sg18
I52
sba(ichempy
Atom
(dp256
g11
I0
sg12
(lp257
F-6.0350423953807359
aF-5.1022014628910233
aF21.964865102574642
asg8
g254
sg14
S'H'
sg15
g40
sg7
F0.069800000000000001
sg16
S'E'
sg17
S'3HA'
sg5
S'E'
sg9
S'7'
sg10
I7
sba(ichempy
Atom
(dp258
g11
I0
sg12
(lp259
F-3.2851699193284096
aF-4.6567925627014688
aF22.910340343638929
asg8
S'GLY'
p260
sg14
S'H'
sg15
S'H'
sg7
F0.27189999999999998
sg16
S'E'
sg17
S'H'
sg5
S'E'
sg9
S'7'
sg10
I7
sba(ichempy
Atom
(dp261
g11
I0
sg12
(lp262
F-5.0999449964604899
aF-6.1476716570808927
aF23.057816538205845
asg8
g254
sg14
S'H'
sg15
g40
sg7
F0.069800000000000001
sg16
S'E'
sg17
g41
sg5
S'E'
sg9
S'7'
sg10
I7
sba(ichempy
Atom
(dp263
g5
S'E'
sg6
S''
sg7
F-0.41570000000000001
sg8
g260
sg9
S'7'
sg10
I7
sS'q'
F1
sg11
I0
sg12
(lp264
F-4.0869999999999997
aF-4.5060000000000002
aF22.315000000000001
asg14
S'N'
sg15
S'N'
sg16
S'E'
sg17
S'N'
sS'b'
F37.530000000000001
sg18
I51
sba(ichempy
Atom
(dp265
g5
S'E'
sg6
S''
sg7
F-0.56789999999999996
sg8
S'GLY'
sg9
S'7'
sg10
I7
sS'q'
F1
sg11
I0
sg12
(lp266
F-5.1879999999999997
aF-7.6689999999999996
aF21.048999999999999
asg14
S'O'
sg15
S'O'
sg16
S'E'
sg17
S'O'
sS'b'
F42.079999999999998
sg18
I54
sba(ichempy
Atom
(dp267
g5
S'E'
sg6
S''
sg7
F0.53659999999999997
sg8
S'GLU'
sg9
S'8'
sg10
I8
sS'q'
F1
sg11
I0
sg12
(lp268
F-2.6459999999999999
aF-7.8769999999999998
aF19.065999999999999
asg14
S'C'
sg15
S'C'
sg16
S'E'
sg17
S'C'
sS'b'
F35.960000000000001
sg18
I62
sba(ichempy
Atom
(dp269
g5
S'E'
sg6
S''
sg7
F0.039699999999999999
sg8
S'GLU'
p270
sg9
S'8'
sg10
I8
sS'q'
F1
sg11
I0
sg12
(lp271
F-3.7709999999999999
aF-6.883
aF18.786999999999999
asg14
S'C'
sg15
g22
sg16
S'E'
sg17
S'CA'
sS'b'
F38.109999999999999
sg18
I56
sba(ichempy
Atom
(dp272
g5
S'E'
sg6
S''
sg7
F0.056000000000000001
sg8
S'GLU'
p273
sg9
S'8'
sg10
I8
sS'q'
F1
sg11
I0
sg12
(lp274
F-3.3610000000000002
aF-6.0119999999999996
aF17.606999999999999
asg14
S'C'
sg15
g22
sg16
S'E'
sg17
S'CB'
sS'b'
F40.57
sg18
I57
sba(ichempy
Atom
(dp275
g5
S'E'
sg6
S''
sg7
F0.8054
sg8
S'GLU'
sg9
S'8'
sg10
I8
sS'q'
F1
sg11
I0
sg12
(lp276
F-3.9199999999999999
aF-4.806
aF15.506
asg14
S'C'
sg15
S'C'
sg16
S'E'
sg17
S'CD'
sS'b'
F47.43
sg18
I59
sba(ichempy
Atom
(dp277
g5
S'E'
sg6
S''
sg7
F0.013599999999999999
sg8
S'GLU'
p278
sg9
S'8'
sg10
I8
sS'q'
F1
sg11
I0
sg12
(lp279
F-4.4720000000000004
aF-5.5860000000000003
aF16.678999999999998
asg14
S'C'
sg15
g22
sg16
S'E'
sg17
S'CG'
sS'b'
F43.479999999999997
sg18
I58
sba(ichempy
Atom
(dp280
g11
I0
sg12
(lp281
F-2.8936789224652353
aF-5.1107844386148491
aF18.003889811419988
asg8
g273
sg14
S'H'
sg15
g30
sg7
F-0.017299999999999999
sg16
S'E'
sg17
g31
sg5
S'E'
sg9
S'8'
sg10
I8
sba(ichempy
Atom
(dp282
g11
I0
sg12
(lp283
F-4.9893896810996736
aF-6.4712428613486583
aF16.309198709679347
asg8
g278
sg14
S'H'
sg15
g30
sg7
F-0.042500000000000003
sg16
S'E'
sg17
S'2HG'
sg5
S'E'
sg9
S'8'
sg10
I8
sba(ichempy
Atom
(dp284
g11
I0
sg12
(lp285
F-2.6303674605725837
aF-6.568144211045353
aF17.019650267003904
asg8
g273
sg14
S'H'
sg15
g30
sg7
F-0.017299999999999999
sg16
S'E'
sg17
g34
sg5
S'E'
sg9
S'8'
sg10
I8
sba(ichempy
Atom
(dp286
g11
I0
sg12
(lp287
F-5.1760368946954634
aF-4.9594763751595643
aF17.226631443969726
asg8
g278
sg14
S'H'
sg15
g30
sg7
F-0.042500000000000003
sg16
S'E'
sg17
S'3HG'
sg5
S'E'
sg9
S'8'
sg10
I8
sba(ichempy
Atom
(dp288
g11
I0
sg12
(lp289
F-3.7811113589515424
aF-5.0851059984430682
aF19.959444240426969
asg8
S'GLU'
p290
sg14
S'H'
sg15
S'H'
sg7
F0.29360000000000003
sg16
S'E'
sg17
S'H'
sg5
S'E'
sg9
S'8'
sg10
I8
sba(ichempy
Atom
(dp291
g11
I0
sg12
(lp292
F-4.6748964822316097
aF-7.4474932899855704
aF18.558049186569281
asg8
g270
sg14
S'H'
sg15
g40
sg7
F0.1105
sg16
S'E'
sg17
g41
sg5
S'E'
sg9
S'8'
sg10
I8
sba(ichempy
Atom
(dp293
g5
S'E'
sg6
S''
sg7
F-0.51629999999999998
sg8
g290
sg9
S'8'
sg10
I8
sS'q'
F1
sg11
I0
sg12
(lp294
F-4.0919999999999996
aF-6.0460000000000003
aF19.948
asg14
S'N'
sg15
S'N'
sg16
S'E'
sg17
S'N'
sS'b'
F39.310000000000002
sg18
I55
sba(ichempy
Atom
(dp295
g5
S'E'
sg6
S''
sg7
F-0.58189999999999997
sg8
S'GLU'
sg9
S'8'
sg10
I8
sS'q'
F1
sg11
I0
sg12
(lp296
F-1.643
aF-7.5289999999999999
aF19.690999999999999
asg14
S'O'
sg15
S'O'
sg16
S'E'
sg17
S'O'
sS'b'
F37.359999999999999
sg18
I63
sba(ichempy
Atom
(dp297
g5
S'E'
sg6
S''
sg7
F-0.81879999999999997
sg8
S'GLU'
sg9
S'8'
sg10
I8
sS'q'
F1
sg11
I0
sg12
(lp298
F-3.5720000000000001
aF-5.4210000000000003
aF14.467000000000001
asg14
S'O'
sg15
g48
sg16
S'E'
sg17
S'OE1'
sS'b'
F44.530000000000001
sg18
I60
sba(ichempy
Atom
(dp299
g5
S'E'
sg6
S''
sg7
F-0.81879999999999997
sg8
S'GLU'
sg9
S'8'
sg10
I8
sS'q'
F1
sg11
I0
sg12
(lp300
F-3.7999999999999998
aF-3.5720000000000001
aF15.644
asg14
S'O'
sg15
g48
sg16
S'E'
sg17
S'OE2'
sS'b'
F50.210000000000001
sg18
I61
sba(ichempy
Atom
(dp301
g5
S'E'
sg6
S''
sg7
F0.59730000000000005
sg8
S'LEU'
sg9
S'9'
sg10
I9
sS'q'
F1
sg11
I0
sg12
(lp302
F-0.56899999999999995
aF-9.8000000000000007
aF17.911000000000001
asg14
S'C'
sg15
S'C'
sg16
S'E'
sg17
S'C'
sS'b'
F25.48
sg18
I70
sba(ichempy
Atom
(dp303
g5
S'E'
sg6
S''
sg7
F-0.051799999999999999
sg8
S'LEU'
p304
sg9
S'9'
sg10
I9
sS'q'
F1
sg11
I0
sg12
(lp305
F-1.7629999999999999
aF-10.108000000000001
aF18.791
asg14
S'C'
sg15
g22
sg16
S'E'
sg17
S'CA'
sS'b'
F27.940000000000001
sg18
I65
sba(ichempy
Atom
(dp306
g5
S'E'
sg6
S''
sg7
F-0.11020000000000001
sg8
S'LEU'
p307
sg9
S'9'
sg10
I9
sS'q'
F1
sg11
I0
sg12
(lp308
F-2.2749999999999999
aF-11.515000000000001
aF18.478000000000002
asg14
S'C'
sg15
g22
sg16
S'E'
sg17
S'CB'
sS'b'
F28
sg18
I66
sba(ichempy
Atom
(dp309
g5
S'E'
sg6
S''
sg7
F-0.41210000000000002
sg8
S'LEU'
p310
sg9
S'9'
sg10
I9
sS'q'
F1
sg11
I0
sg12
(lp311
F-0.81899999999999995
aF-12.720000000000001
aF20.16
asg14
S'C'
sg15
g22
sg16
S'E'
sg17
S'CD1'
sS'b'
F24.02
sg18
I68
sba(ichempy
Atom
(dp312
g5
S'E'
sg6
S''
sg7
F-0.41210000000000002
sg8
S'LEU'
p313
sg9
S'9'
sg10
I9
sS'q'
F1
sg11
I0
sg12
(lp314
F-1.8480000000000001
aF-13.962999999999999
aF18.233000000000001
asg14
S'C'
sg15
g22
sg16
S'E'
sg17
S'CD2'
sS'b'
F26.329999999999998
sg18
I69
sba(ichempy
Atom
(dp315
g5
S'E'
sg6
S''
sg7
F0.35310000000000002
sg8
S'LEU'
p316
sg9
S'9'
sg10
I9
sS'q'
F1
sg11
I0
sg12
(lp317
F-1.2549999999999999
aF-12.643000000000001
aF18.693000000000001
asg14
S'C'
sg15
g22
sg16
S'E'
sg17
S'CG'
sS'b'
F27.789999999999999
sg18
I67
sba(ichempy
Atom
(dp318
g11
I0
sg12
(lp319
F-0.36462561231183016
aF-11.90700292531899
aF20.726285857472284
asg8
g310
sg14
S'H'
sg15
g30
sg7
F0.10000000000000001
sg16
S'E'
sg17
g219
sg5
S'E'
sg9
S'9'
sg10
I9
sba(ichempy
Atom
(dp320
g11
I0
sg12
(lp321
F-1.0673402184436793
aF-14.705048148299094
aF18.400436110401323
asg8
g313
sg14
S'H'
sg15
g30
sg7
F0.10000000000000001
sg16
S'E'
sg17
g222
sg5
S'E'
sg9
S'9'
sg10
I9
sba(ichempy
Atom
(dp322
g11
I0
sg12
(lp323
F-3.1361354238177679
aF-11.711421281415008
aF19.116720957894355
asg8
g307
sg14
S'H'
sg15
g30
sg7
F0.045699999999999998
sg16
S'E'
sg17
g31
sg5
S'E'
sg9
S'9'
sg10
I9
sba(ichempy
Atom
(dp324
g11
I0
sg12
(lp325
F-0.10310166590070624
aF-13.540624410537697
aF20.206531194520611
asg8
g310
sg14
S'H'
sg15
g30
sg7
F0.10000000000000001
sg16
S'E'
sg17
g227
sg5
S'E'
sg9
S'9'
sg10
I9
sba(ichempy
Atom
(dp326
g11
I0
sg12
(lp327
F-2.2322285179691912
aF-14.16749534428803
aF17.233675177860714
asg8
g313
sg14
S'H'
sg15
g30
sg7
F0.10000000000000001
sg16
S'E'
sg17
g230
sg5
S'E'
sg9
S'9'
sg10
I9
sba(ichempy
Atom
(dp328
g11
I0
sg12
(lp329
F-2.5880902540687991
aF-11.536550156318963
aF17.434156101914773
asg8
g307
sg14
S'H'
sg15
g30
sg7
F0.045699999999999998
sg16
S'E'
sg17
g34
sg5
S'E'
sg9
S'9'
sg10
I9
sba(ichempy
Atom
(dp330
g11
I0
sg12
(lp331
F-1.7166574705981075
aF-12.99288397128435
aF20.714838177936134
asg8
g310
sg14
S'H'
sg15
g30
sg7
F0.10000000000000001
sg16
S'E'
sg17
g235
sg5
S'E'
sg9
S'9'
sg10
I9
sba(ichempy
Atom
(dp332
g11
I0
sg12
(lp333
F-2.6808960231410803
aF-14.157307709045746
aF18.908743093816849
asg8
g313
sg14
S'H'
sg15
g30
sg7
F0.10000000000000001
sg16
S'E'
sg17
g238
sg5
S'E'
sg9
S'9'
sg10
I9
sba(ichempy
Atom
(dp334
g11
I0
sg12
(lp335
F-3.6253347244915499
aF-9.3409727033046739
aF18.058267012477558
asg8
S'LEU'
p336
sg14
S'H'
sg15
S'H'
sg7
F0.27189999999999998
sg16
S'E'
sg17
S'H'
sg5
S'E'
sg9
S'9'
sg10
I9
sba(ichempy
Atom
(dp337
g11
I0
sg12
(lp338
F-1.4752768892338513
aF-10.078699712108184
aF19.841931446223068
asg8
g304
sg14
S'H'
sg15
g40
sg7
F0.092200000000000004
sg16
S'E'
sg17
g41
sg5
S'E'
sg9
S'9'
sg10
I9
sba(ichempy
Atom
(dp339
g11
I0
sg12
(lp340
F-0.36620595990978488
aF-12.429320798305012
aF18.099294388553464
asg8
g316
sg14
S'H'
sg15
g30
sg7
F-0.0361
sg16
S'E'
sg17
g246
sg5
S'E'
sg9
S'9'
sg10
I9
sba(ichempy
Atom
(dp341
g5
S'E'
sg6
S''
sg7
F-0.41570000000000001
sg8
g336
sg9
S'9'
sg10
I9
sS'q'
F1
sg11
I0
sg12
(lp342
F-2.7930000000000001
aF-9.1039999999999992
aF18.579000000000001
asg14
S'N'
sg15
S'N'
sg16
S'E'
sg17
S'N'
sS'b'
F32.210000000000001
sg18
I64
sba(ichempy
Atom
(dp343
g5
S'E'
sg6
S''
sg7
F-0.56789999999999996
sg8
S'LEU'
sg9
S'9'
sg10
I9
sS'q'
F1
sg11
I0
sg12
(lp344
F-0.69899999999999995
aF-9.6600000000000001
aF16.692
asg14
S'O'
sg15
S'O'
sg16
S'E'
sg17
S'O'
sS'b'
F25.09
sg18
I71
sba(ichempy
Atom
(dp345
g5
S'E'
sg6
S''
sg7
F0.59730000000000005
sg8
S'VAL'
sg9
S'10'
sg10
I10
sS'q'
F1
sg11
I0
sg12
(lp346
F2.5369999999999999
aF-10.717000000000001
aF17.472999999999999
asg14
S'C'
sg15
S'C'
sg16
S'E'
sg17
S'C'
sS'b'
F19.09
sg18
I77
sba(ichempy
Atom
(dp347
g5
S'E'
sg6
S''
sg7
F-0.087499999999999994
sg8
S'VAL'
p348
sg9
S'10'
p349
sg10
I10
sS'q'
F1
sg11
I0
sg12
(lp350
F1.835
aF-9.4169999999999998
aF17.858000000000001
asg14
S'C'
sg15
g22
sg16
S'E'
sg17
S'CA'
sS'b'
F18.77
sg18
I73
sba(ichempy
Atom
(dp351
g5
S'E'
sg6
S''
sg7
F0.29849999999999999
sg8
S'VAL'
p352
sg9
S'10'
p353
sg10
I10
sS'q'
F1
sg11
I0
sg12
(lp354
F2.7970000000000002
aF-8.5779999999999994
aF18.759
asg14
S'C'
sg15
g22
sg16
S'E'
sg17
S'CB'
sS'b'
F17.440000000000001
sg18
I74
sba(ichempy
Atom
(dp355
g5
S'E'
sg6
S''
sg7
F-0.31919999999999998
sg8
S'VAL'
p356
sg9
S'10'
p357
sg10
I10
sS'q'
F1
sg11
I0
sg12
(lp358
F4.1310000000000002
aF-8.3510000000000009
aF18.068000000000001
asg14
S'C'
sg15
g22
sg16
S'E'
sg17
S'CG1'
sS'b'
F17.34
sg18
I75
sba(ichempy
Atom
(dp359
g5
S'E'
sg6
S''
sg7
F-0.31919999999999998
sg8
S'VAL'
p360
sg9
S'10'
p361
sg10
I10
sS'q'
F1
sg11
I0
sg12
(lp362
F2.1659999999999999
aF-7.2480000000000002
aF19.109999999999999
asg14
S'C'
sg15
g22
sg16
S'E'
sg17
S'CG2'
sS'b'
F17.120000000000001
sg18
I76
sba(ichempy
Atom
(dp363
g11
I0
sg12
(lp364
F4.5192296630569322
aF-9.3467529697272731
aF17.853865107929558
asg8
g356
sg14
S'H'
sg15
g30
sg7
F0.079100000000000004
sg16
S'E'
sg17
S'1HG1'
sg5
S'E'
sg9
g357
sg10
I10
sba(ichempy
Atom
(dp365
g11
I0
sg12
(lp366
F1.2070855218100309
aF-7.1178339311071159
aF19.611637137806433
asg8
g360
sg14
S'H'
sg15
g30
sg7
F0.079100000000000004
sg16
S'E'
sg17
S'1HG2'
p367
sg5
S'E'
sg9
g361
sg10
I10
sba(ichempy
Atom
(dp368
g11
I0
sg12
(lp369
F3.8899300419525971
aF-7.8489403380458755
aF17.131025415944737
asg8
g356
sg14
S'H'
sg15
g30
sg7
F0.079100000000000004
sg16
S'E'
sg17
S'2HG1'
sg5
S'E'
sg9
g357
sg10
I10
sba(ichempy
Atom
(dp370
g11
I0
sg12
(lp371
F2.0731613775158104
aF-6.7132032751029715
aF18.16476275294789
asg8
g360
sg14
S'H'
sg15
g30
sg7
F0.079100000000000004
sg16
S'E'
sg17
S'2HG2'
p372
sg5
S'E'
sg9
g361
sg10
I10
sba(ichempy
Atom
(dp373
g11
I0
sg12
(lp374
F4.971217676805856
aF-7.7963751915537944
aF18.485762585015678
asg8
g356
sg14
S'H'
sg15
g30
sg7
F0.079100000000000004
sg16
S'E'
sg17
S'3HG1'
sg5
S'E'
sg9
g357
sg10
I10
sba(ichempy
Atom
(dp375
g11
I0
sg12
(lp376
F2.8944975127475283
aF-6.7396952301250348
aF19.741678426767152
asg8
g360
sg14
S'H'
sg15
g30
sg7
F0.079100000000000004
sg16
S'E'
sg17
S'3HG2'
p377
sg5
S'E'
sg9
g361
sg10
I10
sba(ichempy
Atom
(dp378
g11
I0
sg12
(lp379
F0.60494249055210869
aF-9.8180075899480812
aF19.549598124958326
asg8
S'VAL'
p380
sg14
S'H'
sg15
S'H'
sg7
F0.27189999999999998
sg16
S'E'
sg17
S'H'
sg5
S'E'
sg9
S'10'
p381
sg10
I10
sba(ichempy
Atom
(dp382
g11
I0
sg12
(lp383
F1.5916677018180869
aF-8.8475448934297436
aF16.960999289708994
asg8
g348
sg14
S'H'
sg15
g40
sg7
F0.0969
sg16
S'E'
sg17
g41
sg5
S'E'
sg9
g349
sg10
I10
sba(ichempy
Atom
(dp384
g11
I0
sg12
(lp385
F2.9742829674059257
aF-9.1410285714148198
aF19.675334860866013
asg8
g352
sg14
S'H'
sg15
g30
sg7
F-0.029700000000000001
sg16
S'E'
sg17
S'HB'
p386
sg5
S'E'
sg9
g353
sg10
I10
sba(ichempy
Atom
(dp387
g5
S'E'
sg6
S''
sg7
F-0.41570000000000001
sg8
g380
sg9
g381
sg10
I10
sS'q'
F1
sg11
I0
sg12
(lp388
F0.58899999999999997
aF-9.6969999999999992
aF18.547000000000001
asg14
S'N'
sg15
S'N'
sg16
S'E'
sg17
S'N'
sS'b'
F22.25
sg18
I72
sba(ichempy
Atom
(dp389
g5
S'E'
sg6
S''
sg7
F-0.56789999999999996
sg8
S'VAL'
sg9
S'10'
sg10
I10
sS'q'
F1
sg11
I0
sg12
(lp390
F2.7080000000000002
aF-11.019
aF16.295999999999999
asg14
S'O'
sg15
S'O'
sg16
S'E'
sg17
S'O'
sS'b'
F18.920000000000002
sg18
I78
sba(ichempy
Atom
(dp391
g5
S'E'
sg6
S''
sg7
F0.59730000000000005
sg8
S'TRP'
sg9
S'11'
sg10
I11
sS'q'
F1
sg11
I0
sg12
(lp392
F3.637
aF-13.609
aF19.431000000000001
asg14
S'C'
sg15
S'C'
sg16
S'E'
sg17
S'C'
sS'b'
F21.879999999999999
sg18
I91
sba(ichempy
Atom
(dp393
g5
S'E'
sg6
S''
sg7
F-0.0275
sg8
S'TRP'
p394
sg9
S'11'
p395
sg10
I11
sS'q'
F1
sg11
I0
sg12
(lp396
F3.6219999999999999
aF-12.742000000000001
aF18.190999999999999
asg14
S'C'
sg15
g22
sg16
S'E'
sg17
S'CA'
sS'b'
F18.859999999999999
sg18
I80
sba(ichempy
Atom
(dp397
g5
S'E'
sg6
S''
sg7
F-0.0050000000000000001
sg8
S'TRP'
p398
sg9
S'11'
p399
sg10
I11
sS'q'
F1
sg11
I0
sg12
(lp400
F5.0590000000000002
aF-12.337999999999999
aF17.887
asg14
S'C'
sg15
g22
sg16
S'E'
sg17
S'CB'
sS'b'
F14.44
sg18
I81
sba(ichempy
Atom
(dp401
g5
S'E'
sg6
S''
sg7
F-0.1638
sg8
S'TRP'
p402
sg9
S'11'
p403
sg10
I11
sS'q'
F1
sg11
I0
sg12
(lp404
F6.7000000000000002
aF-14.257
aF17.709
asg14
S'C'
sg15
g106
sg16
S'E'
sg17
S'CD1'
sS'b'
F11.970000000000001
sg18
I83
sba(ichempy
Atom
(dp405
g5
S'E'
sg6
S''
sg7
F0.12429999999999999
sg8
S'TRP'
sg9
S'11'
sg10
I11
sS'q'
F1
sg11
I0
sg12
(lp406
F5.8860000000000001
aF-13.519
aF15.756
asg14
S'C'
sg15
g109
sg16
S'E'
sg17
S'CD2'
sS'b'
F16.129999999999999
sg18
I84
sba(ichempy
Atom
(dp407
g5
S'E'
sg6
S''
sg7
F0.13800000000000001
sg8
S'TRP'
sg9
S'11'
sg10
I11
sS'q'
F1
sg11
I0
sg12
(lp408
F6.8040000000000003
aF-14.561999999999999
aF15.5
asg14
S'C'
sg15
g112
sg16
S'E'
sg17
S'CE2'
sS'b'
F17.59
sg18
I85
sba(ichempy
Atom
(dp409
g5
S'E'
sg6
S''
sg7
F-0.2387
sg8
S'TRP'
p410
sg9
S'11'
p411
sg10
I11
sS'q'
F1
sg11
I0
sg12
(lp412
F5.25
aF-12.894
aF14.676
asg14
S'C'
sg15
g116
sg16
S'E'
sg17
S'CE3'
sS'b'
F18.07
sg18
I86
sba(ichempy
Atom
(dp413
g5
S'E'
sg6
S''
sg7
F-0.14149999999999999
sg8
S'TRP'
sg9
S'11'
sg10
I11
sS'q'
F1
sg11
I0
sg12
(lp414
F5.8399999999999999
aF-13.342000000000001
aF17.170999999999999
asg14
S'C'
sg15
g119
sg16
S'E'
sg17
S'CG'
sS'b'
F14.67
sg18
I82
sba(ichempy
Atom
(dp415
g5
S'E'
sg6
S''
sg7
F-0.1134
sg8
S'TRP'
p416
sg9
S'11'
p417
sg10
I11
sS'q'
F1
sg11
I0
sg12
(lp418
F6.4660000000000002
aF-14.362
aF13.157
asg14
S'C'
sg15
g116
sg16
S'E'
sg17
S'CH2'
sS'b'
F17.190000000000001
sg18
I90
sba(ichempy
Atom
(dp419
g5
S'E'
sg6
S''
sg7
F-0.2601
sg8
S'TRP'
p420
sg9
S'11'
p421
sg10
I11
sS'q'
F1
sg11
I0
sg12
(lp422
F7.101
aF-14.994999999999999
aF14.196
asg14
S'C'
sg15
g116
sg16
S'E'
sg17
S'CZ2'
sS'b'
F16.120000000000001
sg18
I88
sba(ichempy
Atom
(dp423
g5
S'E'
sg6
S''
sg7
F-0.19719999999999999
sg8
S'TRP'
p424
sg9
S'11'
p425
sg10
I11
sS'q'
F1
sg11
I0
sg12
(lp426
F5.548
aF-13.321
aF13.382
asg14
S'C'
sg15
g116
sg16
S'E'
sg17
S'CZ3'
sS'b'
F16.68
sg18
I89
sba(ichempy
Atom
(dp427
g11
I0
sg12
(lp428
F6.8912069817759951
aF-14.382416626583277
aF18.764514357977468
asg8
g402
sg14
S'H'
sg15
g131
sg7
F0.20619999999999999
sg16
S'E'
sg17
g132
sg5
S'E'
sg9
g403
sg10
I11
sba(ichempy
Atom
(dp429
g11
I0
sg12
(lp430
F7.9590353249003281
aF-15.731186080857601
aF16.845280482584361
asg8
S'TRP'
p431
sg14
S'H'
sg15
S'H'
sg7
F0.3412
sg16
S'E'
sg17
g136
sg5
S'E'
sg9
S'11'
p432
sg10
I11
sba(ichempy
Atom
(dp433
g11
I0
sg12
(lp434
F5.5600115631258857
aF-12.128688220408982
aF18.832132790955111
asg8
g398
sg14
S'H'
sg15
g30
sg7
F0.0339
sg16
S'E'
sg17
g31
sg5
S'E'
sg9
g399
sg10
I11
sba(ichempy
Atom
(dp435
g11
I0
sg12
(lp436
F6.6761673871349707
aF-14.670446790495157
aF12.143545389857989
asg8
g416
sg14
S'H'
sg15
g41
sg7
F0.14169999999999999
sg16
S'E'
sg17
g141
sg5
S'E'
sg9
g417
sg10
I11
sba(ichempy
Atom
(dp437
g11
I0
sg12
(lp438
F7.8030114033064457
aF-15.796263936819331
aF14.018359652160607
asg8
g420
sg14
S'H'
sg15
g41
sg7
F0.15720000000000001
sg16
S'E'
sg17
g144
sg5
S'E'
sg9
g421
sg10
I11
sba(ichempy
Atom
(dp439
g11
I0
sg12
(lp440
F5.0361142732298294
aF-11.431191348791009
aF17.282620720405859
asg8
g398
sg14
S'H'
sg15
g30
sg7
F0.0339
sg16
S'E'
sg17
g34
sg5
S'E'
sg9
g399
sg10
I11
sba(ichempy
Atom
(dp441
g11
I0
sg12
(lp442
F4.5416351555743324
aF-12.095858444539191
aF14.842100284853455
asg8
g410
sg14
S'H'
sg15
g41
sg7
F0.17000000000000001
sg16
S'E'
sg17
g149
sg5
S'E'
sg9
g411
sg10
I11
sba(ichempy
Atom
(dp443
g11
I0
sg12
(lp444
F5.0665484702909929
aF-12.845035597051478
aF12.540535614736598
asg8
g424
sg14
S'H'
sg15
g41
sg7
F0.1447
sg16
S'E'
sg17
g152
sg5
S'E'
sg9
g425
sg10
I11
sba(ichempy
Atom
(dp445
g11
I0
sg12
(lp446
F2.6375324114251022
aF-11.290750341354842
aF19.4155214120957
asg8
S'TRP'
p447
sg14
S'H'
sg15
S'H'
sg7
F0.27189999999999998
sg16
S'E'
sg17
S'H'
sg5
S'E'
sg9
S'11'
p448
sg10
I11
sba(ichempy
Atom
(dp449
g11
I0
sg12
(lp450
F3.1668817008507499
aF-13.286459871794881
aF17.3636362457875
asg8
g394
sg14
S'H'
sg15
g40
sg7
F0.1123
sg16
S'E'
sg17
g41
sg5
S'E'
sg9
g395
sg10
I11
sba(ichempy
Atom
(dp451
g5
S'E'
sg6
S''
sg7
F-0.41570000000000001
sg8
g447
sg9
g448
sg10
I11
sS'q'
F1
sg11
I0
sg12
(lp452
F2.8860000000000001
aF-11.525
aF18.465
asg14
S'N'
sg15
S'N'
sg16
S'E'
sg17
S'N'
sS'b'
F19.41
sg18
I79
sba(ichempy
Atom
(dp453
g5
S'E'
sg6
S''
sg7
F-0.34179999999999999
sg8
g431
sg9
g432
sg10
I11
sS'q'
F1
sg11
I0
sg12
(lp454
F7.2839999999999998
aF-14.992000000000001
aF16.710999999999999
asg14
S'N'
sg15
g162
sg16
S'E'
sg17
S'NE1'
sS'b'
F13.119999999999999
sg18
I87
sba(ichempy
Atom
(dp455
g5
S'E'
sg6
S''
sg7
F-0.56789999999999996
sg8
S'TRP'
sg9
S'11'
sg10
I11
sS'q'
F1
sg11
I0
sg12
(lp456
F3.4489999999999998
aF-13.097
aF20.533999999999999
asg14
S'O'
sg15
S'O'
sg16
S'E'
sg17
S'O'
sS'b'
F24.039999999999999
sg18
I92
sba(ichempy
Atom
(dp457
g5
S'E'
sg6
S''
sg7
F0.59730000000000005
sg8
g52
sg9
S'12'
sg10
I12
sS'q'
F1
sg11
I0
sg12
(lp458
F5.1260000000000003
aF-16.809999999999999
aF20.106999999999999
asg14
S'C'
sg15
S'C'
sg16
S'E'
sg17
S'C'
sS'b'
F30.170000000000002
sg18
I97
sba(ichempy
Atom
(dp459
g5
S'E'
sg6
S''
sg7
F0.042900000000000001
sg8
g52
sg9
S'12'
p460
sg10
I12
sS'q'
F1
sg11
I0
sg12
(lp461
F3.9780000000000002
aF-15.845000000000001
aF20.367000000000001
asg14
S'C'
sg15
g22
sg16
S'E'
sg17
S'CA'
sS'b'
F27.16
sg18
I94
sba(ichempy
Atom
(dp462
g5
S'E'
sg6
S''
sg7
F-0.079000000000000001
sg8
g52
sg9
S'12'
p463
sg10
I12
sS'q'
F1
sg11
I0
sg12
(lp464
F2.7090000000000001
aF-16.673999999999999
aF20.541
asg14
S'C'
sg15
g22
sg16
S'E'
sg17
S'CB'
sS'b'
F25.57
sg18
I95
sba(ichempy
Atom
(dp465
g11
I0
sg12
(lp466
F2.6366871637911844
aF-17.350261755856589
aF19.689213118623446
asg8
g52
sg14
S'H'
sg15
g40
sg7
F0.090999999999999998
sg16
S'E'
sg17
g31
sg5
S'E'
sg9
g463
sg10
I12
sba(ichempy
Atom
(dp467
g11
I0
sg12
(lp468
F2.8178205521681425
aF-17.256767097650471
aF21.455680598527085
asg8
g52
sg14
S'H'
sg15
g40
sg7
F0.090999999999999998
sg16
S'E'
sg17
g34
sg5
S'E'
sg9
g463
sg10
I12
sba(ichempy
Atom
(dp469
g11
I0
sg12
(lp470
F3.9956007383496304
aF-15.25628523878394
aF18.311272909508375
asg8
g52
sg14
S'H'
sg15
S'H'
sg7
F0.27189999999999998
sg16
S'E'
sg17
S'H'
sg5
S'E'
sg9
S'12'
p471
sg10
I12
sba(ichempy
Atom
(dp472
g11
I0
sg12
(lp473
F4.1386399552137467
aF-15.255789936106193
aF21.269843455641777
asg8
g52
sg14
S'H'
sg15
g40
sg7
F0.076600000000000001
sg16
S'E'
sg17
g41
sg5
S'E'
sg9
g460
sg10
I12
sba(ichempy
Atom
(dp474
g5
S'E'
sg6
S''
sg7
F-0.41570000000000001
sg8
g52
sg9
g471
sg10
I12
sS'q'
F1
sg11
I0
sg12
(lp475
F3.8780000000000001
aF-14.907999999999999
aF19.251999999999999
asg14
S'N'
sg15
S'N'
sg16
S'E'
sg17
S'N'
sS'b'
F24.559999999999999
sg18
I93
sba(ichempy
Atom
(dp476
g5
S'E'
sg6
S''
sg7
F-0.56789999999999996
sg8
g52
sg9
S'12'
sg10
I12
sS'q'
F1
sg11
I0
sg12
(lp477
F5.2779999999999996
aF-17.321999999999999
aF18.998000000000001
asg14
S'O'
sg15
S'O'
sg16
S'E'
sg17
S'O'
sS'b'
F29.170000000000002
sg18
I98
sba(ichempy
Atom
(dp478
g5
S'E'
sg6
S''
sg7
F-0.1081
sg8
g52
sg9
S'12'
sg10
I12
sS'q'
F1
sg11
I0
sg12
(lp479
F1.1459999999999999
aF-15.762
aF20.652999999999999
asg14
S'S'
sg15
S'S'
sg16
S'E'
sg17
S'SG'
sS'b'
F29.620000000000001
sg18
I96
sba(ichempy
Atom
(dp480
g5
S'E'
sg6
S''
sg7
F0.78100000000000003
sg8
S'THR'
sg9
S'13'
sg10
I13
sS'q'
F1
sg11
I0
sg12
(lp481
F6.5129999999999999
aF-19.321999999999999
aF21.459
asg14
S'C'
sg15
S'C'
sg16
S'E'
sg17
S'C'
sS'b'
F42.049999999999997
sg18
I104
sba(ichempy
Atom
(dp482
g5
S'E'
sg6
S''
sg7
F-0.24199999999999999
sg8
S'THR'
p483
sg9
S'13'
p484
sg10
I13
sS'q'
F1
sg11
I0
sg12
(lp485
F7.0529999999999999
aF-17.972999999999999
aF20.984000000000002
asg14
S'C'
sg15
g22
sg16
S'E'
sg17
S'CA'
sS'b'
F39.399999999999999
sg18
I100
sba(ichempy
Atom
(dp486
g5
S'E'
sg6
S''
sg7
F0.30249999999999999
sg8
S'THR'
p487
sg9
S'13'
p488
sg10
I13
sS'q'
F1
sg11
I0
sg12
(lp489
F8.2889999999999997
aF-17.577999999999999
aF21.827999999999999
asg14
S'C'
sg15
g22
sg16
S'E'
sg17
S'CB'
sS'b'
F38.420000000000002
sg18
I101
sba(ichempy
Atom
(dp490
g5
S'E'
sg6
S''
sg7
F-0.18529999999999999
sg8
S'THR'
p491
sg9
S'13'
p492
sg10
I13
sS'q'
F1
sg11
I0
sg12
(lp493
F8.9190000000000005
aF-16.309999999999999
aF21.286000000000001
asg14
S'C'
sg15
g22
sg16
S'E'
sg17
S'CG2'
sS'b'
F37.780000000000001
sg18
I102
sba(ichempy
Atom
(dp494
g11
I0
sg12
(lp495
F8.6745511352085707
aF-17.152026133974605
aF23.717437830190963
asg8
S'THR'
p496
sg14
S'H'
sg15
S'HO'
sg7
F0.41189999999999999
sg16
S'E'
sg17
S'1HG'
sg5
S'E'
sg9
S'13'
p497
sg10
I13
sba(ichempy
Atom
(dp498
g11
I0
sg12
(lp499
F9.8008102102794652
aF-15.818503206829185
aF21.697025127394536
asg8
g491
sg14
S'H'
sg15
g30
sg7
F0.058599999999999999
sg16
S'E'
sg17
g367
sg5
S'E'
sg9
g492
sg10
I13
sba(ichempy
Atom
(dp500
g11
I0
sg12
(lp501
F8.1293058892160754
aF-15.559230522195303
aF21.314781983775468
asg8
g491
sg14
S'H'
sg15
g30
sg7
F0.058599999999999999
sg16
S'E'
sg17
g372
sg5
S'E'
sg9
g492
sg10
I13
sba(ichempy
Atom
(dp502
g11
I0
sg12
(lp503
F9.1682654872688705
aF-16.531327849517009
aF20.24822319360819
asg8
g491
sg14
S'H'
sg15
g30
sg7
F0.058599999999999999
sg16
S'E'
sg17
g377
sg5
S'E'
sg9
g492
sg10
I13
sba(ichempy
Atom
(dp504
g11
I0
sg12
(lp505
F5.8314650527313203
aF-16.527614732505178
aF21.986164519736793
asg8
S'THR'
p506
sg14
S'H'
sg15
S'H'
sg7
F0.2681
sg16
S'E'
sg17
S'H'
sg5
S'E'
sg9
S'13'
p507
sg10
I13
sba(ichempy
Atom
(dp508
g11
I0
sg12
(lp509
F7.3895149610021695
aF-17.9997848407425
aF19.947592621925093
asg8
g483
sg14
S'H'
sg15
g40
sg7
F0.1207
sg16
S'E'
sg17
g41
sg5
S'E'
sg9
g484
sg10
I13
sba(ichempy
Atom
(dp510
g11
I0
sg12
(lp511
F9.0248227760762347
aF-18.379932064091133
aF21.768252139870956
asg8
g487
sg14
S'H'
sg15
g40
sg7
F0.0077999999999999996
sg16
S'E'
sg17
g386
sg5
S'E'
sg9
g488
sg10
I13
sba(ichempy
Atom
(dp512
g5
S'E'
sg6
S''
sg7
F-0.3821
sg8
g506
sg9
g507
sg10
I13
sS'q'
F1
sg11
I0
sg12
(lp513
F5.9589999999999996
aF-17.026
aF21.117000000000001
asg14
S'N'
sg15
S'N'
sg16
S'E'
sg17
S'N'
sS'b'
F35.020000000000003
sg18
I99
sba(ichempy
Atom
(dp514
g5
S'E'
sg6
S''
sg7
F-0.8044
sg8
S'THR'
sg9
S'13'
sg10
I13
sS'q'
F1
sg11
I0
sg12
(lp515
F6.6059999999999999
aF-20.331
aF20.602
asg14
S'N'
sg15
g48
sg16
S'E'
sg17
S'OXT'
sS'b'
F43.020000000000003
sg18
I106
sba(ichempy
Atom
(dp516
g5
S'E'
sg6
S''
sg7
F-0.8044
sg8
S'THR'
sg9
S'13'
sg10
I13
sS'q'
F1
sg11
I0
sg12
(lp517
F5.9619999999999997
aF-19.431999999999999
aF22.57
asg14
S'O'
sg15
g48
sg16
S'E'
sg17
S'O'
sS'b'
F41.539999999999999
sg18
I105
sba(ichempy
Atom
(dp518
g5
S'E'
sg6
S''
sg7
F-0.64959999999999996
sg8
g496
sg9
g497
sg10
I13
sS'q'
F1
sg11
I0
sg12
(lp519
F7.9080000000000004
aF-17.396999999999998
aF23.193999999999999
asg14
S'O'
sg15
S'OH'
sg16
S'E'
sg17
S'OG1'
sS'b'
F38.689999999999998
sg18
I103
sbasS'molecule'
(ichempy
Molecule
(dp520
bsg18
NsS'bond'
(lp521
(ichempy
Bond
(dp522
S'order'
p523
I2
sg18
(lp524
I0
aI9
asba(ichempy
Bond
(dp525
g523
I1
sg18
(lp526
I1
aI0
asba(ichempy
Bond
(dp527
g523
I1
sg18
(lp528
I1
aI2
asba(ichempy
Bond
(dp529
g523
I1
sg18
(lp530
I1
aI7
asba(ichempy
Bond
(dp531
g523
I1
sg18
(lp532
I2
aI5
asba(ichempy
Bond
(dp533
g523
I1
sg18
(lp534
I2
aI4
asba(ichempy
Bond
(dp535
g523
I1
sg18
(lp536
I3
aI2
asba(ichempy
Bond
(dp537
g523
I1
sg18
(lp538
I8
aI1
asba(ichempy
Bond
(dp539
g523
I1
sg18
(lp540
I8
aI6
asba(ichempy
Bond
(dp541
g523
I2
sg18
(lp542
I10
aI3
asba(ichempy
Bond
(dp543
g523
I1
sg18
(lp544
I11
aI3
asba(ichempy
Bond
(dp545
g523
I2
sg18
(lp546
I12
aI20
asba(ichempy
Bond
(dp547
g523
I1
sg18
(lp548
I13
aI14
asba(ichempy
Bond
(dp549
g523
I1
sg18
(lp550
I13
aI12
asba(ichempy
Bond
(dp551
g523
I1
sg18
(lp552
I13
aI18
asba(ichempy
Bond
(dp553
g523
I1
sg18
(lp554
I14
aI16
asba(ichempy
Bond
(dp555
g523
I1
sg18
(lp556
I14
aI15
asba(ichempy
Bond
(dp557
g523
I1
sg18
(lp558
I19
aI13
asba(ichempy
Bond
(dp559
g523
I1
sg18
(lp560
I19
aI0
asba(ichempy
Bond
(dp561
g523
I1
sg18
(lp562
I19
aI17
asba(ichempy
Bond
(dp563
g523
I1
sg18
(lp564
I21
aI14
asba(ichempy
Bond
(dp565
g523
I1
sg18
(lp566
I21
aI182
asba(ichempy
Bond
(dp567
g523
I2
sg18
(lp568
I22
aI31
asba(ichempy
Bond
(dp569
g523
I1
sg18
(lp570
I23
aI24
asba(ichempy
Bond
(dp571
g523
I1
sg18
(lp572
I23
aI22
asba(ichempy
Bond
(dp573
g523
I1
sg18
(lp574
I23
aI29
asba(ichempy
Bond
(dp575
g523
I1
sg18
(lp576
I24
aI27
asba(ichempy
Bond
(dp577
g523
I1
sg18
(lp578
I24
aI26
asba(ichempy
Bond
(dp579
g523
I1
sg18
(lp580
I24
aI25
asba(ichempy
Bond
(dp581
g523
I1
sg18
(lp582
I30
aI23
asba(ichempy
Bond
(dp583
g523
I1
sg18
(lp584
I30
aI12
asba(ichempy
Bond
(dp585
g523
I1
sg18
(lp586
I30
aI28
asba(ichempy
Bond
(dp587
g523
I2
sg18
(lp588
I32
aI55
asba(ichempy
Bond
(dp589
g523
I1
sg18
(lp590
I33
aI32
asba(ichempy
Bond
(dp591
g523
I1
sg18
(lp592
I33
aI34
asba(ichempy
Bond
(dp593
g523
I1
sg18
(lp594
I33
aI52
asba(ichempy
Bond
(dp595
g523
I1
sg18
(lp596
I34
aI45
asba(ichempy
Bond
(dp597
g523
I1
sg18
(lp598
I34
aI48
asba(ichempy
Bond
(dp599
g523
I2
sg18
(lp600
I35
aI39
asba(ichempy
Bond
(dp601
g523
I1
sg18
(lp602
I35
aI43
asba(ichempy
Bond
(dp603
g523
I1
sg18
(lp604
I36
aI38
asba(ichempy
Bond
(dp605
g523
I2
sg18
(lp606
I37
aI36
asba(ichempy
Bond
(dp607
g523
I1
sg18
(lp608
I37
aI54
asba(ichempy
Bond
(dp609
g523
I2
sg18
(lp610
I38
aI42
asba(ichempy
Bond
(dp611
g523
I1
sg18
(lp612
I38
aI49
asba(ichempy
Bond
(dp613
g523
I1
sg18
(lp614
I39
aI36
asba(ichempy
Bond
(dp615
g523
I1
sg18
(lp616
I39
aI34
asba(ichempy
Bond
(dp617
g523
I2
sg18
(lp618
I40
aI41
asba(ichempy
Bond
(dp619
g523
I1
sg18
(lp620
I40
aI46
asba(ichempy
Bond
(dp621
g523
I1
sg18
(lp622
I41
aI37
asba(ichempy
Bond
(dp623
g523
I1
sg18
(lp624
I41
aI47
asba(ichempy
Bond
(dp625
g523
I1
sg18
(lp626
I42
aI40
asba(ichempy
Bond
(dp627
g523
I1
sg18
(lp628
I42
aI50
asba(ichempy
Bond
(dp629
g523
I1
sg18
(lp630
I53
aI33
asba(ichempy
Bond
(dp631
g523
I1
sg18
(lp632
I53
aI22
asba(ichempy
Bond
(dp633
g523
I1
sg18
(lp634
I53
aI51
asba(ichempy
Bond
(dp635
g523
I1
sg18
(lp636
I54
aI35
asba(ichempy
Bond
(dp637
g523
I1
sg18
(lp638
I54
aI44
asba(ichempy
Bond
(dp639
g523
I2
sg18
(lp640
I56
aI72
asba(ichempy
Bond
(dp641
g523
I1
sg18
(lp642
I57
aI58
asba(ichempy
Bond
(dp643
g523
I1
sg18
(lp644
I57
aI56
asba(ichempy
Bond
(dp645
g523
I1
sg18
(lp646
I57
aI68
asba(ichempy
Bond
(dp647
g523
I1
sg18
(lp648
I58
aI63
asba(ichempy
Bond
(dp649
g523
I1
sg18
(lp650
I58
aI66
asba(ichempy
Bond
(dp651
g523
I1
sg18
(lp652
I59
aI71
asba(ichempy
Bond
(dp653
g523
I1
sg18
(lp654
I59
aI64
asba(ichempy
Bond
(dp655
g523
I2
sg18
(lp656
I60
aI70
asba(ichempy
Bond
(dp657
g523
I1
sg18
(lp658
I60
aI62
asba(ichempy
Bond
(dp659
g523
I2
sg18
(lp660
I61
aI59
asba(ichempy
Bond
(dp661
g523
I1
sg18
(lp662
I61
aI58
asba(ichempy
Bond
(dp663
g523
I1
sg18
(lp664
I69
aI57
asba(ichempy
Bond
(dp665
g523
I1
sg18
(lp666
I69
aI32
asba(ichempy
Bond
(dp667
g523
I1
sg18
(lp668
I69
aI67
asba(ichempy
Bond
(dp669
g523
I1
sg18
(lp670
I70
aI61
asba(ichempy
Bond
(dp671
g523
I1
sg18
(lp672
I71
aI60
asba(ichempy
Bond
(dp673
g523
I1
sg18
(lp674
I71
aI65
asba(ichempy
Bond
(dp675
g523
I2
sg18
(lp676
I73
aI91
asba(ichempy
Bond
(dp677
g523
I1
sg18
(lp678
I74
aI75
asba(ichempy
Bond
(dp679
g523
I1
sg18
(lp680
I74
aI73
asba(ichempy
Bond
(dp681
g523
I1
sg18
(lp682
I74
aI88
asba(ichempy
Bond
(dp683
g523
I1
sg18
(lp684
I75
aI81
asba(ichempy
Bond
(dp685
g523
I1
sg18
(lp686
I75
aI84
asba(ichempy
Bond
(dp687
g523
I1
sg18
(lp688
I76
aI78
asba(ichempy
Bond
(dp689
g523
I1
sg18
(lp690
I76
aI79
asba(ichempy
Bond
(dp691
g523
I1
sg18
(lp692
I76
aI85
asba(ichempy
Bond
(dp693
g523
I1
sg18
(lp694
I76
aI82
asba(ichempy
Bond
(dp695
g523
I1
sg18
(lp696
I77
aI78
asba(ichempy
Bond
(dp697
g523
I1
sg18
(lp698
I77
aI83
asba(ichempy
Bond
(dp699
g523
I1
sg18
(lp700
I77
aI80
asba(ichempy
Bond
(dp701
g523
I1
sg18
(lp702
I77
aI86
asba(ichempy
Bond
(dp703
g523
I1
sg18
(lp704
I78
aI75
asba(ichempy
Bond
(dp705
g523
I1
sg18
(lp706
I78
aI89
asba(ichempy
Bond
(dp707
g523
I1
sg18
(lp708
I90
aI74
asba(ichempy
Bond
(dp709
g523
I1
sg18
(lp710
I90
aI56
asba(ichempy
Bond
(dp711
g523
I1
sg18
(lp712
I90
aI87
asba(ichempy
Bond
(dp713
g523
I2
sg18
(lp714
I92
aI98
asba(ichempy
Bond
(dp715
g523
I1
sg18
(lp716
I93
aI92
asba(ichempy
Bond
(dp717
g523
I1
sg18
(lp718
I93
aI96
asba(ichempy
Bond
(dp719
g523
I1
sg18
(lp720
I93
aI94
asba(ichempy
Bond
(dp721
g523
I1
sg18
(lp722
I97
aI93
asba(ichempy
Bond
(dp723
g523
I1
sg18
(lp724
I97
aI73
asba(ichempy
Bond
(dp725
g523
I1
sg18
(lp726
I97
aI95
asba(ichempy
Bond
(dp727
g523
I2
sg18
(lp728
I99
aI111
asba(ichempy
Bond
(dp729
g523
I1
sg18
(lp730
I100
aI101
asba(ichempy
Bond
(dp731
g523
I1
sg18
(lp732
I100
aI99
asba(ichempy
Bond
(dp733
g523
I1
sg18
(lp734
I100
aI109
asba(ichempy
Bond
(dp735
g523
I1
sg18
(lp736
I101
aI104
asba(ichempy
Bond
(dp737
g523
I1
sg18
(lp738
I101
aI106
asba(ichempy
Bond
(dp739
g523
I1
sg18
(lp740
I102
aI103
asba(ichempy
Bond
(dp741
g523
I1
sg18
(lp742
I103
aI101
asba(ichempy
Bond
(dp743
g523
I1
sg18
(lp744
I103
aI107
asba(ichempy
Bond
(dp745
g523
I1
sg18
(lp746
I103
aI105
asba(ichempy
Bond
(dp747
g523
I1
sg18
(lp748
I110
aI100
asba(ichempy
Bond
(dp749
g523
I1
sg18
(lp750
I110
aI92
asba(ichempy
Bond
(dp751
g523
I1
sg18
(lp752
I110
aI108
asba(ichempy
Bond
(dp753
g523
I2
sg18
(lp754
I112
aI102
asba(ichempy
Bond
(dp755
g523
I1
sg18
(lp756
I113
aI102
asba(ichempy
Bond
(dp757
g523
I2
sg18
(lp758
I114
aI132
asba(ichempy
Bond
(dp759
g523
I1
sg18
(lp760
I115
aI116
asba(ichempy
Bond
(dp761
g523
I1
sg18
(lp762
I115
aI114
asba(ichempy
Bond
(dp763
g523
I1
sg18
(lp764
I115
aI129
asba(ichempy
Bond
(dp765
g523
I1
sg18
(lp766
I116
aI122
asba(ichempy
Bond
(dp767
g523
I1
sg18
(lp768
I116
aI125
asba(ichempy
Bond
(dp769
g523
I1
sg18
(lp770
I117
aI119
asba(ichempy
Bond
(dp771
g523
I1
sg18
(lp772
I117
aI120
asba(ichempy
Bond
(dp773
g523
I1
sg18
(lp774
I117
aI126
asba(ichempy
Bond
(dp775
g523
I1
sg18
(lp776
I117
aI123
asba(ichempy
Bond
(dp777
g523
I1
sg18
(lp778
I118
aI119
asba(ichempy
Bond
(dp779
g523
I1
sg18
(lp780
I118
aI124
asba(ichempy
Bond
(dp781
g523
I1
sg18
(lp782
I118
aI121
asba(ichempy
Bond
(dp783
g523
I1
sg18
(lp784
I118
aI127
asba(ichempy
Bond
(dp785
g523
I1
sg18
(lp786
I119
aI116
asba(ichempy
Bond
(dp787
g523
I1
sg18
(lp788
I119
aI130
asba(ichempy
Bond
(dp789
g523
I1
sg18
(lp790
I131
aI115
asba(ichempy
Bond
(dp791
g523
I1
sg18
(lp792
I131
aI99
asba(ichempy
Bond
(dp793
g523
I1
sg18
(lp794
I131
aI128
asba(ichempy
Bond
(dp795
g523
I2
sg18
(lp796
I133
aI148
asba(ichempy
Bond
(dp797
g523
I1
sg18
(lp798
I134
aI135
asba(ichempy
Bond
(dp799
g523
I1
sg18
(lp800
I134
aI133
asba(ichempy
Bond
(dp801
g523
I1
sg18
(lp802
I134
aI145
asba(ichempy
Bond
(dp803
g523
I1
sg18
(lp804
I135
aI146
asba(ichempy
Bond
(dp805
g523
I1
sg18
(lp806
I136
aI135
asba(ichempy
Bond
(dp807
g523
I1
sg18
(lp808
I136
aI142
asba(ichempy
Bond
(dp809
g523
I1
sg18
(lp810
I136
aI138
asba(ichempy
Bond
(dp811
g523
I1
sg18
(lp812
I136
aI140
asba(ichempy
Bond
(dp813
g523
I1
sg18
(lp814
I137
aI135
asba(ichempy
Bond
(dp815
g523
I1
sg18
(lp816
I137
aI139
asba(ichempy
Bond
(dp817
g523
I1
sg18
(lp818
I137
aI143
asba(ichempy
Bond
(dp819
g523
I1
sg18
(lp820
I137
aI141
asba(ichempy
Bond
(dp821
g523
I1
sg18
(lp822
I147
aI134
asba(ichempy
Bond
(dp823
g523
I1
sg18
(lp824
I147
aI114
asba(ichempy
Bond
(dp825
g523
I1
sg18
(lp826
I147
aI144
asba(ichempy
Bond
(dp827
g523
I2
sg18
(lp828
I149
aI172
asba(ichempy
Bond
(dp829
g523
I1
sg18
(lp830
I150
aI149
asba(ichempy
Bond
(dp831
g523
I1
sg18
(lp832
I150
aI151
asba(ichempy
Bond
(dp833
g523
I1
sg18
(lp834
I150
aI169
asba(ichempy
Bond
(dp835
g523
I1
sg18
(lp836
I151
aI162
asba(ichempy
Bond
(dp837
g523
I1
sg18
(lp838
I151
aI165
asba(ichempy
Bond
(dp839
g523
I2
sg18
(lp840
I152
aI156
asba(ichempy
Bond
(dp841
g523
I1
sg18
(lp842
I152
aI160
asba(ichempy
Bond
(dp843
g523
I1
sg18
(lp844
I153
aI155
asba(ichempy
Bond
(dp845
g523
I2
sg18
(lp846
I154
aI153
asba(ichempy
Bond
(dp847
g523
I1
sg18
(lp848
I154
aI171
asba(ichempy
Bond
(dp849
g523
I2
sg18
(lp850
I155
aI159
asba(ichempy
Bond
(dp851
g523
I1
sg18
(lp852
I155
aI166
asba(ichempy
Bond
(dp853
g523
I1
sg18
(lp854
I156
aI153
asba(ichempy
Bond
(dp855
g523
I1
sg18
(lp856
I156
aI151
asba(ichempy
Bond
(dp857
g523
I2
sg18
(lp858
I157
aI158
asba(ichempy
Bond
(dp859
g523
I1
sg18
(lp860
I157
aI163
asba(ichempy
Bond
(dp861
g523
I1
sg18
(lp862
I158
aI154
asba(ichempy
Bond
(dp863
g523
I1
sg18
(lp864
I158
aI164
asba(ichempy
Bond
(dp865
g523
I1
sg18
(lp866
I159
aI157
asba(ichempy
Bond
(dp867
g523
I1
sg18
(lp868
I159
aI167
asba(ichempy
Bond
(dp869
g523
I1
sg18
(lp870
I170
aI150
asba(ichempy
Bond
(dp871
g523
I1
sg18
(lp872
I170
aI133
asba(ichempy
Bond
(dp873
g523
I1
sg18
(lp874
I170
aI168
asba(ichempy
Bond
(dp875
g523
I1
sg18
(lp876
I171
aI152
asba(ichempy
Bond
(dp877
g523
I1
sg18
(lp878
I171
aI161
asba(ichempy
Bond
(dp879
g523
I2
sg18
(lp880
I173
aI181
asba(ichempy
Bond
(dp881
g523
I1
sg18
(lp882
I174
aI173
asba(ichempy
Bond
(dp883
g523
I1
sg18
(lp884
I174
aI175
asba(ichempy
Bond
(dp885
g523
I1
sg18
(lp886
I174
aI179
asba(ichempy
Bond
(dp887
g523
I1
sg18
(lp888
I175
aI177
asba(ichempy
Bond
(dp889
g523
I1
sg18
(lp890
I175
aI176
asba(ichempy
Bond
(dp891
g523
I1
sg18
(lp892
I180
aI174
asba(ichempy
Bond
(dp893
g523
I1
sg18
(lp894
I180
aI149
asba(ichempy
Bond
(dp895
g523
I1
sg18
(lp896
I180
aI178
asba(ichempy
Bond
(dp897
g523
I1
sg18
(lp898
I182
aI175
asba(ichempy
Bond
(dp899
g523
I1
sg18
(lp900
I183
aI195
asba(ichempy
Bond
(dp901
g523
I2
sg18
(lp902
I183
aI196
asba(ichempy
Bond
(dp903
g523
I1
sg18
(lp904
I184
aI185
asba(ichempy
Bond
(dp905
g523
I1
sg18
(lp906
I184
aI183
asba(ichempy
Bond
(dp907
g523
I1
sg18
(lp908
I184
aI192
asba(ichempy
Bond
(dp909
g523
I1
sg18
(lp910
I185
aI193
asba(ichempy
Bond
(dp911
g523
I1
sg18
(lp912
I186
aI185
asba(ichempy
Bond
(dp913
g523
I1
sg18
(lp914
I186
aI188
asba(ichempy
Bond
(dp915
g523
I1
sg18
(lp916
I186
aI190
asba(ichempy
Bond
(dp917
g523
I1
sg18
(lp918
I186
aI189
asba(ichempy
Bond
(dp919
g523
I1
sg18
(lp920
I194
aI184
asba(ichempy
Bond
(dp921
g523
I1
sg18
(lp922
I194
aI173
asba(ichempy
Bond
(dp923
g523
I1
sg18
(lp924
I194
aI191
asba(ichempy
Bond
(dp925
g523
I1
sg18
(lp926
I197
aI185
asba(ichempy
Bond
(dp927
g523
I1
sg18
(lp928
I197
aI187
asbasb.