(ichempy.models
Indexed
p1
(dp2
S'atom'
p3
(lp4
(ichempy
Atom
(dp5
S'resn'
p6
S'ALA'
sS'id'
p7
I20
sS'partial_charge'
p8
F-0.41569998860359192
sS'formal_charge'
p9
I0
sS'segi'
p10
S''
sS'resi'
p11
S'2'
sS'resi_number'
p12
I2
sS'q'
F1
sS'hetatm'
p13
I0
sS'coord'
p14
(lp15
F3.3710000514984131
aF1.4620000123977661
aF0
asS'symbol'
p16
S'N'
sS'text_type'
p17
S'N'
sS'flags'
p18
I0
sS'vdw'
p19
F1.7999999523162842
sS'name'
p20
S'N'
sS'b'
F0
sS'index'
p21
I13
sS'chain'
p22
S''
sba(ichempy
Atom
(dp23
g6
S'ALA'
sg7
I13
sg8
F0.033700000494718552
sg9
I0
sg10
S''
sg11
S'2'
sg12
I2
sS'q'
F1
sg13
I0
sg14
(lp24
F4.0469999313354492
aF2.7560000419616699
aF0
asg16
S'C'
sg17
S'CT'
sg18
I0
sg19
F1.7999999523162842
sg20
S'CA'
sS'b'
F0
sg21
I14
sg22
S''
sba(ichempy
Atom
(dp25
g6
S'ALA'
sg7
I14
sg8
F-0.18250000476837158
sg9
I0
sg10
S''
sg11
S'2'
sg12
I2
sS'q'
F1
sg13
I0
sg14
(lp26
F3.5390000343322754
aF3.5480000972747803
aF1.2170000076293945
asg16
S'C'
sg17
S'CT'
sg18
I0
sg19
F1.7999999523162842
sg20
S'CB'
sS'b'
F0
sg21
I15
sg22
S''
sba(ichempy
Atom
(dp27
g6
S'ALA'
sg7
I12
sg8
F0.59729999303817749
sg9
I0
sg10
S''
sg11
S'2'
sg12
I2
sS'q'
F1
sg13
I0
sg14
(lp28
F5.5469999313354492
aF2.5820000171661377
aF0
asg16
S'C'
sg17
S'C'
sg18
I0
sg19
F1.7999999523162842
sg20
S'C'
sS'b'
F0
sg21
I16
sg22
S''
sba(ichempy
Atom
(dp29
g6
S'ALA'
sg7
I21
sg8
F-0.56790000200271606
sg9
I0
sg10
S''
sg11
S'2'
sg12
I2
sS'q'
F1
sg13
I0
sg14
(lp30
F6.0780000686645508
aF1.4650000333786011
aF-0.010999999940395355
asg16
S'O'
sg17
S'O'
sg18
I0
sg19
F1.5
sg20
S'O'
sS'b'
F0
sg21
I17
sg22
S''
sba(ichempy
Atom
(dp31
g6
S'ALA'
sg7
I15
sg8
F0.060300000011920929
sg9
I0
sg10
S''
sg11
S'2'
sg12
I2
sS'q'
F1
sg13
I0
sg14
(lp32
F2.4430000782012939
aF3.6979999542236328
aF1.1809999942779541
asg16
S'H'
sg17
S'HC'
sg18
I0
sg19
F1.1000000238418579
sg20
S'1HB'
sS'b'
F0
sg21
I18
sg22
S''
sba(ichempy
Atom
(dp33
g6
S'ALA'
sg7
I16
sg8
F0.060300000011920929
sg9
I0
sg10
S''
sg11
S'2'
sg12
I2
sS'q'
F1
sg13
I0
sg14
(lp34
F3.7630000114440918
aF3.0339999198913574
aF2.1719999313354492
asg16
S'H'
sg17
S'HC'
sg18
I0
sg19
F1.1000000238418579
sg20
S'2HB'
sS'b'
F0
sg21
I19
sg22
S''
sba(ichempy
Atom
(dp35
g6
S'ALA'
sg7
I17
sg8
F0.060300000011920929
sg9
I0
sg10
S''
sg11
S'2'
sg12
I2
sS'q'
F1
sg13
I0
sg14
(lp36
F3.994999885559082
aF4.5529999732971191
aF1.2740000486373901
asg16
S'H'
sg17
S'HC'
sg18
I0
sg19
F1.1000000238418579
sg20
S'3HB'
sS'b'
F0
sg21
I20
sg22
S''
sba(ichempy
Atom
(dp37
g6
S'ALA'
sg7
I18
sg8
F0.2718999981880188
sg9
I0
sg10
S''
sg11
S'2'
sg12
I2
sS'q'
F1
sg13
I0
sg14
(lp38
F3.9170000553131104
aF0.52999997138977051
aF0
asg16
S'H'
sg17
S'H'
sg18
I0
sg19
F1.1000000238418579
sg20
S'H'
sS'b'
F0
sg21
I21
sg22
S''
sba(ichempy
Atom
(dp39
g6
S'ALA'
sg7
I19
sg8
F0.082299999892711639
sg9
I0
sg10
S''
sg11
S'2'
sg12
I2
sS'q'
F1
sg13
I0
sg14
(lp40
F3.7790000438690186
aF3.2950000762939453
aF-0.92799997329711914
asg16
S'H'
sg17
S'H1'
sg18
I0
sg19
F1.1000000238418579
sg20
S'HA'
sS'b'
F0
sg21
I22
sg22
S''
sbasS'molecule'
p41
(ichempy
Molecule
(dp42
bsg21
NsS'bond'
p43
(lp44
(ichempy
Bond
(dp45
S'order'
p46
I1
sg21
(lp47
I0
aI1
asba(ichempy
Bond
(dp48
g46
I1
sg21
(lp49
I0
aI8
asba(ichempy
Bond
(dp50
g46
I1
sg21
(lp51
I1
aI2
asba(ichempy
Bond
(dp52
g46
I1
sg21
(lp53
I1
aI3
asba(ichempy
Bond
(dp54
g46
I1
sg21
(lp55
I1
aI9
asba(ichempy
Bond
(dp56
g46
I2
sg21
(lp57
I3
aI4
asba(ichempy
Bond
(dp58
g46
I1
sg21
(lp59
I5
aI2
asba(ichempy
Bond
(dp60
g46
I1
sg21
(lp61
I6
aI2
asba(ichempy
Bond
(dp62
g46
I1
sg21
(lp63
I7
aI2
asbasb.