(ichempy.models
Indexed
p1
(dp2
S'atom'
p3
(lp4
(ichempy
Atom
(dp5
S'resn'
p6
S'ARG'
sS'id'
p7
I45
sS'partial_charge'
p8
F-0.34790000319480896
sS'formal_charge'
p9
I0
sS'segi'
p10
S''
sS'resi'
p11
S'2'
sS'resi_number'
p12
I2
sS'q'
F1
sS'hetatm'
p13
I0
sS'coord'
p14
(lp15
F3.8989999294281006
aF3.1489999294281006
aF-0.17599999904632568
asS'symbol'
p16
S'N'
sS'text_type'
p17
S'N'
sS'flags'
p18
I0
sS'vdw'
p19
F1.7999999523162842
sS'name'
p20
S'N'
sS'b'
F0
sS'index'
p21
I27
sS'chain'
p22
S''
sba(ichempy
Atom
(dp23
g6
S'ARG'
sg7
I27
sg8
F-0.26370000839233398
sg9
I0
sg10
S''
sg11
S'2'
sg12
I2
sS'q'
F1
sg13
I0
sg14
(lp24
F4.440000057220459
aF3.8280000686645508
aF-1.3500000238418579
asg16
S'C'
sg17
S'CT'
sg18
I0
sg19
F1.7999999523162842
sg20
S'CA'
sS'b'
F0
sg21
I28
sg22
S''
sba(ichempy
Atom
(dp25
g6
S'ARG'
sg7
I28
sg8
F-0.000699999975040555
sg9
I0
sg10
S''
sg11
S'2'
sg12
I2
sS'q'
F1
sg13
I0
sg14
(lp26
F3.8580000400543213
aF5.2690000534057617
aF-1.4079999923706055
asg16
S'C'
sg17
S'CT'
sg18
I0
sg19
F1.7999999523162842
sg20
S'CB'
sS'b'
F0
sg21
I29
sg22
S''
sba(ichempy
Atom
(dp27
g6
S'ARG'
sg7
I30
sg8
F0.039000000804662704
sg9
I0
sg10
S''
sg11
S'2'
sg12
I2
sS'q'
F1
sg13
I0
sg14
(lp28
F4.1090002059936523
aF6.0390000343322754
aF-2.7349998950958252
asg16
S'C'
sg17
S'CT'
sg18
I0
sg19
F1.7999999523162842
sg20
S'CG'
sS'b'
F0
sg21
I30
sg22
S''
sba(ichempy
Atom
(dp29
g6
S'ARG'
sg7
I29
sg8
F0.048599999397993088
sg9
I0
sg10
S''
sg11
S'2'
sg12
I2
sS'q'
F1
sg13
I0
sg14
(lp30
F3.5329999923706055
aF7.4640002250671387
aF-2.6940000057220459
asg16
S'C'
sg17
S'CT'
sg18
I0
sg19
F1.7999999523162842
sg20
S'CD'
sS'b'
F0
sg21
I31
sg22
S''
sba(ichempy
Atom
(dp31
g6
S'ARG'
sg7
I46
sg8
F-0.52950000762939453
sg9
I0
sg10
S''
sg11
S'2'
sg12
I2
sS'q'
F1
sg13
I0
sg14
(lp32
F3.7850000858306885
aF8.1450004577636719
aF-3.997999906539917
asg16
S'N'
sg17
S'N2'
sg18
I0
sg19
F1.7999999523162842
sg20
S'NE'
sS'b'
F0
sg21
I32
sg22
S''
sba(ichempy
Atom
(dp33
g6
S'ARG'
sg7
I31
sg8
F0.80760002136230469
sg9
I0
sg10
S''
sg11
S'2'
sg12
I2
sS'q'
F1
sg13
I0
sg14
(lp34
F3.4240000247955322
aF9.3889999389648438
aF-4.2979998588562012
asg16
S'C'
sg17
S'CA'
sg18
I0
sg19
F1.7999999523162842
sg20
S'CZ'
sS'b'
F0
sg21
I33
sg22
S''
sba(ichempy
Atom
(dp35
g6
S'ARG'
sg7
I47
sg8
F-0.86269998550415039
sg9
I0
sg10
S''
sg11
S'2'
sg12
I2
sS'q'
F1
sg13
I0
sg14
(lp36
F2.7999999523162842
aF10.178999900817871
aF-3.4700000286102295
asg16
S'N'
sg17
S'N2'
sg18
I0
sg19
F1.7999999523162842
sg20
S'NH1'
sS'b'
F0
sg21
I34
sg22
S''
sba(ichempy
Atom
(dp37
g6
S'ARG'
sg7
I48
sg8
F-0.86269998550415039
sg9
I0
sg10
S''
sg11
S'2'
sg12
I2
sS'q'
F1
sg13
I0
sg14
(lp38
F3.7060000896453857
aF9.8439998626708984
aF-5.4780001640319824
asg16
S'N'
sg17
S'N2'
sg18
I0
sg19
F1.7999999523162842
sg20
S'NH2'
sS'b'
F0
sg21
I35
sg22
S''
sba(ichempy
Atom
(dp39
g6
S'ARG'
sg7
I26
sg8
F0.73409998416900635
sg9
I0
sg10
S''
sg11
S'2'
sg12
I2
sS'q'
F1
sg13
I0
sg14
(lp40
F5.9499998092651367
aF3.8450000286102295
aF-1.3159999847412109
asg16
S'C'
sg17
S'C'
sg18
I0
sg19
F1.7999999523162842
sg20
S'C'
sS'b'
F0
sg21
I36
sg22
S''
sba(ichempy
Atom
(dp41
g6
S'ARG'
sg7
I49
sg8
F-0.58939999341964722
sg9
I0
sg10
S''
sg11
S'2'
sg12
I2
sS'q'
F1
sg13
I0
sg14
(lp42
F6.5869998931884766
aF3.3180000782012939
aF-0.40700000524520874
asg16
S'O'
sg17
S'O'
sg18
I0
sg19
F1.5
sg20
S'O'
sS'b'
F0
sg21
I37
sg22
S''
sba(ichempy
Atom
(dp43
g6
S'ARG'
sg7
I32
sg8
F0.44780001044273376
sg9
I0
sg10
S''
sg11
S'2'
sg12
I2
sS'q'
F1
sg13
I0
sg14
(lp44
F2.6089999675750732
aF9.7600002288818359
aF-2.5569999217987061
asg16
S'H'
sg17
S'H'
sg18
I0
sg19
F1.1000000238418579
sg20
S'1HH1'
sS'b'
F0
sg21
I38
sg22
S''
sba(ichempy
Atom
(dp45
g6
S'ARG'
sg7
I33
sg8
F0.44780001044273376
sg9
I0
sg10
S''
sg11
S'2'
sg12
I2
sS'q'
F1
sg13
I0
sg14
(lp46
F4.1960000991821289
aF9.2110004425048828
aF-6.1129999160766602
asg16
S'H'
sg17
S'H'
sg18
I0
sg19
F1.1000000238418579
sg20
S'1HH2'
sS'b'
F0
sg21
I39
sg22
S''
sba(ichempy
Atom
(dp47
g6
S'ARG'
sg7
I34
sg8
F0.032699998468160629
sg9
I0
sg10
S''
sg11
S'2'
sg12
I2
sS'q'
F1
sg13
I0
sg14
(lp48
F4.2569999694824219
aF5.8489999771118164
aF-0.55000001192092896
asg16
S'H'
sg17
S'HC'
sg18
I0
sg19
F1.1000000238418579
sg20
S'2HB'
sS'b'
F0
sg21
I40
sg22
S''
sba(ichempy
Atom
(dp49
g6
S'ARG'
sg7
I35
sg8
F0.068700000643730164
sg9
I0
sg10
S''
sg11
S'2'
sg12
I2
sS'q'
F1
sg13
I0
sg14
(lp50
F4.000999927520752
aF8.0260000228881836
aF-1.8559999465942383
asg16
S'H'
sg17
S'H1'
sg18
I0
sg19
F1.1000000238418579
sg20
S'2HD'
sS'b'
F0
sg21
I41
sg22
S''
sba(ichempy
Atom
(dp51
g6
S'ARG'
sg7
I36
sg8
F0.028500000014901161
sg9
I0
sg10
S''
sg11
S'2'
sg12
I2
sS'q'
F1
sg13
I0
sg14
(lp52
F3.6689999103546143
aF5.4660000801086426
aF-3.5769999027252197
asg16
S'H'
sg17
S'HC'
sg18
I0
sg19
F1.1000000238418579
sg20
S'2HG'
sS'b'
F0
sg21
I42
sg22
S''
sba(ichempy
Atom
(dp53
g6
S'ARG'
sg7
I37
sg8
F0.44780001044273376
sg9
I0
sg10
S''
sg11
S'2'
sg12
I2
sS'q'
F1
sg13
I0
sg14
(lp54
F2.5559999942779541
aF11.121999740600586
aF-3.7769999504089355
asg16
S'H'
sg17
S'H'
sg18
I0
sg19
F1.1000000238418579
sg20
S'2HH1'
sS'b'
F0
sg21
I43
sg22
S''
sba(ichempy
Atom
(dp55
g6
S'ARG'
sg7
I38
sg8
F0.44780001044273376
sg9
I0
sg10
S''
sg11
S'2'
sg12
I2
sS'q'
F1
sg13
I0
sg14
(lp56
F3.4189999103546143
aF10.800999641418457
aF-5.690000057220459
asg16
S'H'
sg17
S'H'
sg18
I0
sg19
F1.1000000238418579
sg20
S'2HH2'
sS'b'
F0
sg21
I44
sg22
S''
sba(ichempy
Atom
(dp57
g6
S'ARG'
sg7
I39
sg8
F0.032699998468160629
sg9
I0
sg10
S''
sg11
S'2'
sg12
I2
sS'q'
F1
sg13
I0
sg14
(lp58
F2.7650001049041748
aF5.2270002365112305
aF-1.2250000238418579
asg16
S'H'
sg17
S'HC'
sg18
I0
sg19
F1.1000000238418579
sg20
S'3HB'
sS'b'
F0
sg21
I45
sg22
S''
sba(ichempy
Atom
(dp59
g6
S'ARG'
sg7
I40
sg8
F0.068700000643730164
sg9
I0
sg10
S''
sg11
S'2'
sg12
I2
sS'q'
F1
sg13
I0
sg14
(lp60
F2.4449999332427979
aF7.4180002212524414
aF-2.4730000495910645
asg16
S'H'
sg17
S'H1'
sg18
I0
sg19
F1.1000000238418579
sg20
S'3HD'
sS'b'
F0
sg21
I46
sg22
S''
sba(ichempy
Atom
(dp61
g6
S'ARG'
sg7
I41
sg8
F0.028500000014901161
sg9
I0
sg10
S''
sg11
S'2'
sg12
I2
sS'q'
F1
sg13
I0
sg14
(lp62
F5.1970000267028809
aF6.0900001525878906
aF-2.9449999332427979
asg16
S'H'
sg17
S'HC'
sg18
I0
sg19
F1.1000000238418579
sg20
S'3HG'
sS'b'
F0
sg21
I47
sg22
S''
sba(ichempy
Atom
(dp63
g6
S'ARG'
sg7
I42
sg8
F0.27469998598098755
sg9
I0
sg10
S''
sg11
S'2'
sg12
I2
sS'q'
F1
sg13
I0
sg14
(lp64
F4.505000114440918
aF2.750999927520752
aF0.55000001192092896
asg16
S'H'
sg17
S'H'
sg18
I0
sg19
F1.1000000238418579
sg20
S'H'
sS'b'
F0
sg21
I48
sg22
S''
sba(ichempy
Atom
(dp65
g6
S'ARG'
sg7
I43
sg8
F0.15600000321865082
sg9
I0
sg10
S''
sg11
S'2'
sg12
I2
sS'q'
F1
sg13
I0
sg14
(lp66
F4.1319999694824219
aF3.2579998970031738
aF-2.246999979019165
asg16
S'H'
sg17
S'H1'
sg18
I0
sg19
F1.1000000238418579
sg20
S'HA'
sS'b'
F0
sg21
I49
sg22
S''
sba(ichempy
Atom
(dp67
g6
S'ARG'
sg7
I44
sg8
F0.34560000896453857
sg9
I0
sg10
S''
sg11
S'2'
sg12
I2
sS'q'
F1
sg13
I0
sg14
(lp68
F4.2690000534057617
aF7.6609997749328613
aF-4.7610001564025879
asg16
S'H'
sg17
S'H'
sg18
I0
sg19
F1.1000000238418579
sg20
S'HE'
sS'b'
F0
sg21
I50
sg22
S''
sbasS'molecule'
p69
(ichempy
Molecule
(dp70
bsg21
NsS'bond'
p71
(lp72
(ichempy
Bond
(dp73
S'order'
p74
I1
sg21
(lp75
I0
aI1
asba(ichempy
Bond
(dp76
g74
I1
sg21
(lp77
I0
aI21
asba(ichempy
Bond
(dp78
g74
I1
sg21
(lp79
I1
aI2
asba(ichempy
Bond
(dp80
g74
I1
sg21
(lp81
I1
aI9
asba(ichempy
Bond
(dp82
g74
I1
sg21
(lp83
I1
aI22
asba(ichempy
Bond
(dp84
g74
I1
sg21
(lp85
I3
aI2
asba(ichempy
Bond
(dp86
g74
I1
sg21
(lp87
I4
aI3
asba(ichempy
Bond
(dp88
g74
I1
sg21
(lp89
I5
aI4
asba(ichempy
Bond
(dp90
g74
I1
sg21
(lp91
I6
aI5
asba(ichempy
Bond
(dp92
g74
I2
sg21
(lp93
I7
aI6
asba(ichempy
Bond
(dp94
g74
I1
sg21
(lp95
I8
aI6
asba(ichempy
Bond
(dp96
g74
I2
sg21
(lp97
I9
aI10
asba(ichempy
Bond
(dp98
g74
I1
sg21
(lp99
I11
aI7
asba(ichempy
Bond
(dp100
g74
I1
sg21
(lp101
I12
aI8
asba(ichempy
Bond
(dp102
g74
I1
sg21
(lp103
I13
aI2
asba(ichempy
Bond
(dp104
g74
I1
sg21
(lp105
I14
aI4
asba(ichempy
Bond
(dp106
g74
I1
sg21
(lp107
I15
aI3
asba(ichempy
Bond
(dp108
g74
I1
sg21
(lp109
I16
aI7
asba(ichempy
Bond
(dp110
g74
I1
sg21
(lp111
I17
aI8
asba(ichempy
Bond
(dp112
g74
I1
sg21
(lp113
I18
aI2
asba(ichempy
Bond
(dp114
g74
I1
sg21
(lp115
I19
aI4
asba(ichempy
Bond
(dp116
g74
I1
sg21
(lp117
I20
aI3
asba(ichempy
Bond
(dp118
g74
I1
sg21
(lp119
I23
aI5
asbasb.