(ichempy.models
Indexed
p1
(dp2
S'atom'
p3
(lp4
(ichempy
Atom
(dp5
S'resn'
p6
S'ASN'
sS'id'
p7
I26
sS'partial_charge'
p8
F-0.41569998860359192
sS'formal_charge'
p9
I0
sS'segi'
p10
S''
sS'resi'
p11
S'2'
sS'resi_number'
p12
I2
sS'q'
F1
sS'hetatm'
p13
I0
sS'coord'
p14
(lp15
F3.3020000457763672
aF1.6009999513626099
aF0
asS'symbol'
p16
S'N'
sS'text_type'
p17
S'N'
sS'flags'
p18
I0
sS'vdw'
p19
F1.7999999523162842
sS'name'
p20
S'N'
sS'b'
F0
sS'index'
p21
I17
sS'chain'
p22
S''
sba(ichempy
Atom
(dp23
g6
S'ASN'
sg7
I17
sg8
F0.014299999922513962
sg9
I0
sg10
S''
sg11
S'2'
sg12
I2
sS'q'
F1
sg13
I0
sg14
(lp24
F3.8859999179840088
aF2.9389998912811279
aF0
asg16
S'C'
sg17
S'CT'
sg18
I0
sg19
F1.7999999523162842
sg20
S'CA'
sS'b'
F0
sg21
I18
sg22
S''
sba(ichempy
Atom
(dp25
g6
S'ASN'
sg7
I18
sg8
F-0.20409999787807465
sg9
I0
sg10
S''
sg11
S'2'
sg12
I2
sS'q'
F1
sg13
I0
sg14
(lp26
F3.3710000514984131
aF3.7300000190734863
aF1.2369999885559082
asg16
S'C'
sg17
S'CT'
sg18
I0
sg19
F1.7999999523162842
sg20
S'CB'
sS'b'
F0
sg21
I19
sg22
S''
sba(ichempy
Atom
(dp27
g6
S'ASN'
sg7
I19
sg8
F0.71299999952316284
sg9
I0
sg10
S''
sg11
S'2'
sg12
I2
sS'q'
F1
sg13
I0
sg14
(lp28
F1.8530000448226929
aF3.8810000419616699
aF1.3810000419616699
asg16
S'C'
sg17
S'C'
sg18
I0
sg19
F1.7999999523162842
sg20
S'CG'
sS'b'
F0
sg21
I20
sg22
S''
sba(ichempy
Atom
(dp29
g6
S'ASN'
sg7
I27
sg8
F-0.91909998655319214
sg9
I0
sg10
S''
sg11
S'2'
sg12
I2
sS'q'
F1
sg13
I0
sg14
(lp30
F1.2359999418258667
aF4.7719998359680176
aF0.65200001001358032
asg16
S'N'
sg17
S'N'
sg18
I0
sg19
F1.7999999523162842
sg20
S'ND2'
sS'b'
F0
sg21
I21
sg22
S''
sba(ichempy
Atom
(dp31
g6
S'ASN'
sg7
I29
sg8
F-0.59310001134872437
sg9
I0
sg10
S''
sg11
S'2'
sg12
I2
sS'q'
F1
sg13
I0
sg14
(lp32
F1.1979999542236328
aF3.1809999942779541
aF2.1389999389648438
asg16
S'O'
sg17
S'O'
sg18
I0
sg19
F1.5
sg20
S'OD1'
sS'b'
F0
sg21
I22
sg22
S''
sba(ichempy
Atom
(dp33
g6
S'ASN'
sg7
I16
sg8
F0.59729999303817749
sg9
I0
sg10
S''
sg11
S'2'
sg12
I2
sS'q'
F1
sg13
I0
sg14
(lp34
F5.3949999809265137
aF2.869999885559082
aF0
asg16
S'C'
sg17
S'C'
sg18
I0
sg19
F1.7999999523162842
sg20
S'C'
sS'b'
F0
sg21
I23
sg22
S''
sba(ichempy
Atom
(dp35
g6
S'ASN'
sg7
I28
sg8
F-0.56790000200271606
sg9
I0
sg10
S''
sg11
S'2'
sg12
I2
sS'q'
F1
sg13
I0
sg14
(lp36
F5.999000072479248
aF1.7979999780654907
aF0
asg16
S'O'
sg17
S'O'
sg18
I0
sg19
F1.5
sg20
S'O'
sS'b'
F0
sg21
I24
sg22
S''
sba(ichempy
Atom
(dp37
g6
S'ASN'
sg7
I20
sg8
F0.41960000991821289
sg9
I0
sg10
S''
sg11
S'2'
sg12
I2
sS'q'
F1
sg13
I0
sg14
(lp38
F0.21799999475479126
aF4.6869997978210449
aF0.71100002527236938
asg16
S'H'
sg17
S'H'
sg18
I0
sg19
F1.1000000238418579
sg20
S'1HD2'
sS'b'
F0
sg21
I25
sg22
S''
sba(ichempy
Atom
(dp39
g6
S'ASN'
sg7
I21
sg8
F0.079700000584125519
sg9
I0
sg10
S''
sg11
S'2'
sg12
I2
sS'q'
F1
sg13
I0
sg14
(lp40
F3.8229999542236328
aF4.7389998435974121
aF1.2649999856948853
asg16
S'H'
sg17
S'HC'
sg18
I0
sg19
F1.1000000238418579
sg20
S'2HB'
sS'b'
F0
sg21
I26
sg22
S''
sba(ichempy
Atom
(dp41
g6
S'ASN'
sg7
I22
sg8
F0.41960000991821289
sg9
I0
sg10
S''
sg11
S'2'
sg12
I2
sS'q'
F1
sg13
I0
sg14
(lp42
F1.7970000505447388
aF5.2760000228881836
aF-0.034000001847743988
asg16
S'H'
sg17
S'H'
sg18
I0
sg19
F1.1000000238418579
sg20
S'2HD2'
sS'b'
F0
sg21
I27
sg22
S''
sba(ichempy
Atom
(dp43
g6
S'ASN'
sg7
I23
sg8
F0.079700000584125519
sg9
I0
sg10
S''
sg11
S'2'
sg12
I2
sS'q'
F1
sg13
I0
sg14
(lp44
F3.7320001125335693
aF3.2430000305175781
aF2.1640000343322754
asg16
S'H'
sg17
S'HC'
sg18
I0
sg19
F1.1000000238418579
sg20
S'3HB'
sS'b'
F0
sg21
I28
sg22
S''
sba(ichempy
Atom
(dp45
g6
S'ASN'
sg7
I24
sg8
F0.2718999981880188
sg9
I0
sg10
S''
sg11
S'2'
sg12
I2
sS'q'
F1
sg13
I0
sg14
(lp46
F3.9119999408721924
aF0.70999997854232788
aF0
asg16
S'H'
sg17
S'H'
sg18
I0
sg19
F1.1000000238418579
sg20
S'H'
sS'b'
F0
sg21
I29
sg22
S''
sba(ichempy
Atom
(dp47
g6
S'ASN'
sg7
I25
sg8
F0.10480000078678131
sg9
I0
sg10
S''
sg11
S'2'
sg12
I2
sS'q'
F1
sg13
I0
sg14
(lp48
F3.5820000171661377
aF3.4539999961853027
aF-0.93000000715255737
asg16
S'H'
sg17
S'H1'
sg18
I0
sg19
F1.1000000238418579
sg20
S'HA'
sS'b'
F0
sg21
I30
sg22
S''
sbasS'molecule'
p49
(ichempy
Molecule
(dp50
bsg21
NsS'bond'
p51
(lp52
(ichempy
Bond
(dp53
S'order'
p54
I1
sg21
(lp55
I0
aI1
asba(ichempy
Bond
(dp56
g54
I1
sg21
(lp57
I0
aI12
asba(ichempy
Bond
(dp58
g54
I1
sg21
(lp59
I1
aI2
asba(ichempy
Bond
(dp60
g54
I1
sg21
(lp61
I1
aI6
asba(ichempy
Bond
(dp62
g54
I1
sg21
(lp63
I1
aI13
asba(ichempy
Bond
(dp64
g54
I1
sg21
(lp65
I3
aI2
asba(ichempy
Bond
(dp66
g54
I1
sg21
(lp67
I4
aI3
asba(ichempy
Bond
(dp68
g54
I2
sg21
(lp69
I5
aI3
asba(ichempy
Bond
(dp70
g54
I2
sg21
(lp71
I6
aI7
asba(ichempy
Bond
(dp72
g54
I1
sg21
(lp73
I8
aI4
asba(ichempy
Bond
(dp74
g54
I1
sg21
(lp75
I9
aI2
asba(ichempy
Bond
(dp76
g54
I1
sg21
(lp77
I10
aI4
asba(ichempy
Bond
(dp78
g54
I1
sg21
(lp79
I11
aI2
asbasb.