(ichempy.models
Indexed
p1
(dp2
S'atom'
p3
(lp4
(ichempy
Atom
(dp5
S'resn'
p6
S'ASP'
sS'id'
p7
I34
sS'partial_charge'
p8
F-0.51920002698898315
sS'formal_charge'
p9
I0
sS'segi'
p10
S''
sS'resi'
p11
S'3'
sS'resi_number'
p12
I3
sS'q'
F1
sS'hetatm'
p13
I0
sS'coord'
p14
(lp15
F7.7170000076293945
aF4.4780001640319824
aF1.281999945640564
asS'symbol'
p16
S'N'
sS'text_type'
p17
S'N'
sS'flags'
p18
I0
sS'vdw'
p19
F1.7999999523162842
sS'name'
p20
S'N'
sS'b'
F0
sS'index'
p21
I27
sS'chain'
p22
S''
sba(ichempy
Atom
(dp23
g6
S'ASP'
sg7
I27
sg8
F-0.18170000612735748
sg9
I0
sg10
S''
sg11
S'3'
sg12
I3
sS'q'
F1
sg13
I0
sg14
(lp24
F9.1719999313354492
aF4.5920000076293945
aF1.281999945640564
asg16
S'C'
sg17
S'CT'
sg18
I0
sg19
F1.7999999523162842
sg20
S'CA'
sS'b'
F0
sg21
I28
sg22
S''
sba(ichempy
Atom
(dp25
g6
S'ASP'
sg7
I28
sg8
F-0.067699998617172241
sg9
I0
sg10
S''
sg11
S'3'
sg12
I3
sS'q'
F1
sg13
I0
sg14
(lp26
F9.7799997329711914
aF3.8320000171661377
aF0.070000000298023224
asg16
S'C'
sg17
S'CT'
sg18
I0
sg19
F1.7999999523162842
sg20
S'CB'
sS'b'
F0
sg21
I29
sg22
S''
sba(ichempy
Atom
(dp27
g6
S'ASP'
sg7
I29
sg8
F0.88510000705718994
sg9
I0
sg10
S''
sg11
S'3'
sg12
I3
sS'q'
F1
sg13
I0
sg14
(lp28
F11.314000129699707
aF3.8199999332427979
aF0
asg16
S'C'
sg17
S'C'
sg18
I0
sg19
F1.7999999523162842
sg20
S'CG'
sS'b'
F0
sg21
I30
sg22
S''
sba(ichempy
Atom
(dp29
g6
S'ASP'
sg7
I36
sg8
F-0.81620001792907715
sg9
I0
sg10
S''
sg11
S'3'
sg12
I3
sS'q'
F1
sg13
I0
sg14
(lp30
F11.970999717712402
aF3.7300000190734863
aF1.0579999685287476
asg16
S'O'
sg17
S'O2'
sg18
I0
sg19
F1.5
sg20
S'OD1'
sS'b'
F0
sg21
I31
sg22
S''
sba(ichempy
Atom
(dp31
g6
S'ASP'
sg7
I37
sg8
F-0.81620001792907715
sg9
I0
sg10
S''
sg11
S'3'
sg12
I3
sS'q'
F1
sg13
I0
sg14
(lp32
F11.862000465393066
aF3.9449999332427979
aF-1.1160000562667847
asg16
S'O'
sg17
S'O2'
sg18
I0
sg19
F1.5
sg20
S'OD2'
sS'b'
F0
sg21
I32
sg22
S''
sba(ichempy
Atom
(dp33
g6
S'ASP'
sg7
I38
sg8
F-0.78869998455047607
sg9
I0
sg10
S''
sg11
S'3'
sg12
I3
sS'q'
F1
sg13
I0
sg14
(lp34
F10.854000091552734
aF6.25
aF1.281999945640564
asg16
S'O'
sg17
S'O2'
sg18
I0
sg19
F1.5
sg20
S'OXT'
sS'b'
F0
sg21
I33
sg22
S''
sba(ichempy
Atom
(dp35
g6
S'ASP'
sg7
I26
sg8
F0.72560000419616699
sg9
I0
sg10
S''
sg11
S'3'
sg12
I3
sS'q'
F1
sg13
I0
sg14
(lp36
F9.6009998321533203
aF6.0399999618530273
aF1.281999945640564
asg16
S'C'
sg17
S'C'
sg18
I0
sg19
F1.7999999523162842
sg20
S'C'
sS'b'
F0
sg21
I34
sg22
S''
sba(ichempy
Atom
(dp37
g6
S'ASP'
sg7
I35
sg8
F-0.78869998455047607
sg9
I0
sg10
S''
sg11
S'3'
sg12
I3
sS'q'
F1
sg13
I0
sg14
(lp38
F8.7600002288818359
aF6.9910001754760742
aF1.281999945640564
asg16
S'O'
sg17
S'O2'
sg18
I0
sg19
F1.5
sg20
S'O'
sS'b'
F0
sg21
I35
sg22
S''
sba(ichempy
Atom
(dp39
g6
S'ASP'
sg7
I30
sg8
F-0.021199999377131462
sg9
I0
sg10
S''
sg11
S'3'
sg12
I3
sS'q'
F1
sg13
I0
sg14
(lp40
F9.4029998779296875
aF4.2649998664855957
aF-0.87599998712539673
asg16
S'H'
sg17
S'HC'
sg18
I0
sg19
F1.1000000238418579
sg20
S'2HB'
sS'b'
F0
sg21
I36
sg22
S''
sba(ichempy
Atom
(dp41
g6
S'ASP'
sg7
I31
sg8
F-0.021199999377131462
sg9
I0
sg10
S''
sg11
S'3'
sg12
I3
sS'q'
F1
sg13
I0
sg14
(lp42
F9.4540004730224609
aF2.7790000438690186
aF0.065999999642372131
asg16
S'H'
sg17
S'HC'
sg18
I0
sg19
F1.1000000238418579
sg20
S'3HB'
sS'b'
F0
sg21
I37
sg22
S''
sba(ichempy
Atom
(dp43
g6
S'ASP'
sg7
I32
sg8
F0.30550000071525574
sg9
I0
sg10
S''
sg11
S'3'
sg12
I3
sS'q'
F1
sg13
I0
sg14
(lp44
F7.0739998817443848
aF5.3460001945495605
aF1.281999945640564
asg16
S'H'
sg17
S'H'
sg18
I0
sg19
F1.1000000238418579
sg20
S'H'
sS'b'
F0
sg21
I38
sg22
S''
sba(ichempy
Atom
(dp45
g6
S'ASP'
sg7
I33
sg8
F0.10459999740123749
sg9
I0
sg10
S''
sg11
S'3'
sg12
I3
sS'q'
F1
sg13
I0
sg14
(lp46
F9.5550003051757812
aF4.1360001564025879
aF2.2139999866485596
asg16
S'H'
sg17
S'H1'
sg18
I0
sg19
F1.1000000238418579
sg20
S'HA'
sS'b'
F0
sg21
I39
sg22
S''
sbasS'molecule'
p47
(ichempy
Molecule
(dp48
bsg21
NsS'bond'
p49
(lp50
(ichempy
Bond
(dp51
S'order'
p52
I1
sg21
(lp53
I0
aI1
asba(ichempy
Bond
(dp54
g52
I1
sg21
(lp55
I0
aI11
asba(ichempy
Bond
(dp56
g52
I1
sg21
(lp57
I1
aI2
asba(ichempy
Bond
(dp58
g52
I1
sg21
(lp59
I1
aI7
asba(ichempy
Bond
(dp60
g52
I1
sg21
(lp61
I1
aI12
asba(ichempy
Bond
(dp62
g52
I1
sg21
(lp63
I3
aI2
asba(ichempy
Bond
(dp64
g52
I2
sg21
(lp65
I4
aI3
asba(ichempy
Bond
(dp66
g52
I1
sg21
(lp67
I5
aI3
asba(ichempy
Bond
(dp68
g52
I1
sg21
(lp69
I7
aI6
asba(ichempy
Bond
(dp70
g52
I2
sg21
(lp71
I7
aI8
asba(ichempy
Bond
(dp72
g52
I1
sg21
(lp73
I9
aI2
asba(ichempy
Bond
(dp74
g52
I1
sg21
(lp75
I10
aI2
asbasb.