(ichempy.models
Indexed
p1
(dp2
S'atom'
p3
(lp4
(ichempy
Atom
(dp5
S'resn'
p6
S'ARG'
sS'id'
p7
I69
sS'partial_charge'
p8
F-0.34810000658035278
sS'formal_charge'
p9
I0
sS'segi'
p10
S''
sS'resi'
p11
S'3'
sS'resi_number'
p12
I3
sS'q'
F1
sS'hetatm'
p13
I0
sS'coord'
p14
(lp15
F6.5450000762939453
aF4.4369997978210449
aF-2.3350000381469727
asS'symbol'
p16
S'N'
sS'text_type'
p17
S'N'
sS'flags'
p18
I0
sS'vdw'
p19
F1.7999999523162842
sS'name'
p20
S'N'
sS'b'
F0
sS'index'
p21
I51
sS'chain'
p22
S''
sba(ichempy
Atom
(dp23
g6
S'ARG'
sg7
I51
sg8
F-0.30680000782012939
sg9
I0
sg10
S''
sg11
S'3'
sg12
I3
sS'q'
F1
sg13
I0
sg14
(lp24
F7.9980001449584961
aF4.5289998054504395
aF-2.4360001087188721
asg16
S'C'
sg17
S'CT'
sg18
I0
sg19
F1.7999999523162842
sg20
S'CA'
sS'b'
F0
sg21
I52
sg22
S''
sba(ichempy
Atom
(dp25
g6
S'ARG'
sg7
I52
sg8
F-0.037399999797344208
sg9
I0
sg10
S''
sg11
S'3'
sg12
I3
sS'q'
F1
sg13
I0
sg14
(lp26
F8.5950002670288086
aF3.0929999351501465
aF-2.3859999179840088
asg16
S'C'
sg17
S'CT'
sg18
I0
sg19
F1.7999999523162842
sg20
S'CB'
sS'b'
F0
sg21
I53
sg22
S''
sba(ichempy
Atom
(dp27
g6
S'ARG'
sg7
I54
sg8
F0.074400000274181366
sg9
I0
sg10
S''
sg11
S'3'
sg12
I3
sS'q'
F1
sg13
I0
sg14
(lp28
F10.13700008392334
aF3.0160000324249268
aF-2.2049999237060547
asg16
S'C'
sg17
S'CT'
sg18
I0
sg19
F1.7999999523162842
sg20
S'CG'
sS'b'
F0
sg21
I54
sg22
S''
sba(ichempy
Atom
(dp29
g6
S'ARG'
sg7
I53
sg8
F0.11140000075101852
sg9
I0
sg10
S''
sg11
S'3'
sg12
I3
sS'q'
F1
sg13
I0
sg14
(lp30
F10.64799976348877
aF1.565000057220459
aF-2.2039999961853027
asg16
S'C'
sg17
S'CT'
sg18
I0
sg19
F1.7999999523162842
sg20
S'CD'
sS'b'
F0
sg21
I55
sg22
S''
sba(ichempy
Atom
(dp31
g6
S'ARG'
sg7
I70
sg8
F-0.55640000104904175
sg9
I0
sg10
S''
sg11
S'3'
sg12
I3
sS'q'
F1
sg13
I0
sg14
(lp32
F12.126999855041504
aF1.5529999732971191
aF-2.005000114440918
asg16
S'N'
sg17
S'N2'
sg18
I0
sg19
F1.7999999523162842
sg20
S'NE'
sS'b'
F0
sg21
I56
sg22
S''
sba(ichempy
Atom
(dp33
g6
S'ARG'
sg7
I55
sg8
F0.8367999792098999
sg9
I0
sg10
S''
sg11
S'3'
sg12
I3
sS'q'
F1
sg13
I0
sg14
(lp34
F12.88700008392334
aF0.46299999952316284
aF-1.9600000381469727
asg16
S'C'
sg17
S'CA'
sg18
I0
sg19
F1.7999999523162842
sg20
S'CZ'
sS'b'
F0
sg21
I57
sg22
S''
sba(ichempy
Atom
(dp35
g6
S'ARG'
sg7
I71
sg8
F-0.87370002269744873
sg9
I0
sg10
S''
sg11
S'3'
sg12
I3
sS'q'
F1
sg13
I0
sg14
(lp36
F12.421999931335449
aF-0.74699997901916504
aF-2.0929999351501465
asg16
S'N'
sg17
S'N2'
sg18
I0
sg19
F1.7999999523162842
sg20
S'NH1'
sS'b'
F0
sg21
I58
sg22
S''
sba(ichempy
Atom
(dp37
g6
S'ARG'
sg7
I72
sg8
F-0.87370002269744873
sg9
I0
sg10
S''
sg11
S'3'
sg12
I3
sS'q'
F1
sg13
I0
sg14
(lp38
F14.16100025177002
aF0.61000001430511475
aF-1.7740000486373901
asg16
S'N'
sg17
S'N2'
sg18
I0
sg19
F1.7999999523162842
sg20
S'NH2'
sS'b'
F0
sg21
I59
sg22
S''
sba(ichempy
Atom
(dp39
g6
S'ARG'
sg7
I74
sg8
F-0.82660001516342163
sg9
I0
sg10
S''
sg11
S'3'
sg12
I3
sS'q'
F1
sg13
I0
sg14
(lp40
F9.6579999923706055
aF5.3870000839233398
aF-3.878000020980835
asg16
S'O'
sg17
S'O2'
sg18
I0
sg19
F1.5
sg20
S'OXT'
sS'b'
F0
sg21
I60
sg22
S''
sba(ichempy
Atom
(dp41
g6
S'ARG'
sg7
I50
sg8
F0.85570001602172852
sg9
I0
sg10
S''
sg11
S'3'
sg12
I3
sS'q'
F1
sg13
I0
sg14
(lp42
F8.4090003967285156
aF5.254000186920166
aF-3.6949999332427979
asg16
S'C'
sg17
S'C'
sg18
I0
sg19
F1.7999999523162842
sg20
S'C'
sS'b'
F0
sg21
I61
sg22
S''
sba(ichempy
Atom
(dp43
g6
S'ARG'
sg7
I73
sg8
F-0.82660001516342163
sg9
I0
sg10
S''
sg11
S'3'
sg12
I3
sS'q'
F1
sg13
I0
sg14
(lp44
F7.554999828338623
aF5.7230000495910645
aF-4.5100002288818359
asg16
S'O'
sg17
S'O2'
sg18
I0
sg19
F1.5
sg20
S'O'
sS'b'
F0
sg21
I62
sg22
S''
sba(ichempy
Atom
(dp45
g6
S'ARG'
sg7
I56
sg8
F0.44929999113082886
sg9
I0
sg10
S''
sg11
S'3'
sg12
I3
sS'q'
F1
sg13
I0
sg14
(lp46
F11.41100025177002
aF-0.79199999570846558
aF-2.2390000820159912
asg16
S'H'
sg17
S'H'
sg18
I0
sg19
F1.1000000238418579
sg20
S'1HH1'
sS'b'
F0
sg21
I63
sg22
S''
sba(ichempy
Atom
(dp47
g6
S'ARG'
sg7
I57
sg8
F0.44929999113082886
sg9
I0
sg10
S''
sg11
S'3'
sg12
I3
sS'q'
F1
sg13
I0
sg14
(lp48
F14.506999969482422
aF1.5659999847412109
aF-1.6729999780654907
asg16
S'H'
sg17
S'H'
sg18
I0
sg19
F1.1000000238418579
sg20
S'1HH2'
sS'b'
F0
sg21
I64
sg22
S''
sba(ichempy
Atom
(dp49
g6
S'ARG'
sg7
I58
sg8
F0.037099998444318771
sg9
I0
sg10
S''
sg11
S'3'
sg12
I3
sS'q'
F1
sg13
I0
sg14
(lp50
F8.2930002212524414
aF2.5499999523162842
aF-3.3069999217987061
asg16
S'H'
sg17
S'HC'
sg18
I0
sg19
F1.1000000238418579
sg20
S'2HB'
sS'b'
F0
sg21
I65
sg22
S''
sba(ichempy
Atom
(dp51
g6
S'ARG'
sg7
I59
sg8
F0.046799998730421066
sg9
I0
sg10
S''
sg11
S'3'
sg12
I3
sS'q'
F1
sg13
I0
sg14
(lp52
F10.371999740600586
aF1.0779999494552612
aF-3.1640000343322754
asg16
S'H'
sg17
S'H1'
sg18
I0
sg19
F1.1000000238418579
sg20
S'2HD'
sS'b'
F0
sg21
I66
sg22
S''
sba(ichempy
Atom
(dp53
g6
S'ARG'
sg7
I60
sg8
F0.018500000238418579
sg9
I0
sg10
S''
sg11
S'3'
sg12
I3
sS'q'
F1
sg13
I0
sg14
(lp54
F10.418999671936035
aF3.5269999504089355
aF-1.2610000371932983
asg16
S'H'
sg17
S'HC'
sg18
I0
sg19
F1.1000000238418579
sg20
S'2HG'
sS'b'
F0
sg21
I67
sg22
S''
sba(ichempy
Atom
(dp55
g6
S'ARG'
sg7
I61
sg8
F0.44929999113082886
sg9
I0
sg10
S''
sg11
S'3'
sg12
I3
sS'q'
F1
sg13
I0
sg14
(lp56
F13.072999954223633
aF-1.5329999923706055
aF-2.0460000038146973
asg16
S'H'
sg17
S'H'
sg18
I0
sg19
F1.1000000238418579
sg20
S'2HH1'
sS'b'
F0
sg21
I68
sg22
S''
sba(ichempy
Atom
(dp57
g6
S'ARG'
sg7
I62
sg8
F0.44929999113082886
sg9
I0
sg10
S''
sg11
S'3'
sg12
I3
sS'q'
F1
sg13
I0
sg14
(lp58
F14.727999687194824
aF-0.23899999260902405
aF-1.7410000562667847
asg16
S'H'
sg17
S'H'
sg18
I0
sg19
F1.1000000238418579
sg20
S'2HH2'
sS'b'
F0
sg21
I69
sg22
S''
sba(ichempy
Atom
(dp59
g6
S'ARG'
sg7
I63
sg8
F0.037099998444318771
sg9
I0
sg10
S''
sg11
S'3'
sg12
I3
sS'q'
F1
sg13
I0
sg14
(lp60
F8.1140003204345703
aF2.5269999504089355
aF-1.5640000104904175
asg16
S'H'
sg17
S'HC'
sg18
I0
sg19
F1.1000000238418579
sg20
S'3HB'
sS'b'
F0
sg21
I70
sg22
S''
sba(ichempy
Atom
(dp61
g6
S'ARG'
sg7
I64
sg8
F0.046799998730421066
sg9
I0
sg10
S''
sg11
S'3'
sg12
I3
sS'q'
F1
sg13
I0
sg14
(lp62
F10.133000373840332
aF0.99299997091293335
aF-1.4019999504089355
asg16
S'H'
sg17
S'H1'
sg18
I0
sg19
F1.1000000238418579
sg20
S'3HD'
sS'b'
F0
sg21
I71
sg22
S''
sba(ichempy
Atom
(dp63
g6
S'ARG'
sg7
I65
sg8
F0.018500000238418579
sg9
I0
sg10
S''
sg11
S'3'
sg12
I3
sS'q'
F1
sg13
I0
sg14
(lp64
F10.645000457763672
aF3.5820000171661377
aF-3.0130000114440918
asg16
S'H'
sg17
S'HC'
sg18
I0
sg19
F1.1000000238418579
sg20
S'3HG'
sS'b'
F0
sg21
I72
sg22
S''
sba(ichempy
Atom
(dp65
g6
S'ARG'
sg7
I66
sg8
F0.27639999985694885
sg9
I0
sg10
S''
sg11
S'3'
sg12
I3
sS'q'
F1
sg13
I0
sg14
(lp66
F5.9239997863769531
aF4.8289999961853027
aF-3.0520000457763672
asg16
S'H'
sg17
S'H'
sg18
I0
sg19
F1.1000000238418579
sg20
S'H'
sS'b'
F0
sg21
I73
sg22
S''
sba(ichempy
Atom
(dp67
g6
S'ARG'
sg7
I67
sg8
F0.14470000565052032
sg9
I0
sg10
S''
sg11
S'3'
sg12
I3
sS'q'
F1
sg13
I0
sg14
(lp68
F8.3640003204345703
aF5.120999813079834
aF-1.5750000476837158
asg16
S'H'
sg17
S'H1'
sg18
I0
sg19
F1.1000000238418579
sg20
S'HA'
sS'b'
F0
sg21
I74
sg22
S''
sba(ichempy
Atom
(dp69
g6
S'ARG'
sg7
I68
sg8
F0.34790000319480896
sg9
I0
sg10
S''
sg11
S'3'
sg12
I3
sS'q'
F1
sg13
I0
sg14
(lp70
F12.64900016784668
aF2.4270000457763672
aF-1.8860000371932983
asg16
S'H'
sg17
S'H'
sg18
I0
sg19
F1.1000000238418579
sg20
S'HE'
sS'b'
F0
sg21
I75
sg22
S''
sbasS'molecule'
p71
(ichempy
Molecule
(dp72
bsg21
NsS'bond'
p73
(lp74
(ichempy
Bond
(dp75
S'order'
p76
I1
sg21
(lp77
I0
aI1
asba(ichempy
Bond
(dp78
g76
I1
sg21
(lp79
I0
aI22
asba(ichempy
Bond
(dp80
g76
I1
sg21
(lp81
I1
aI2
asba(ichempy
Bond
(dp82
g76
I1
sg21
(lp83
I1
aI10
asba(ichempy
Bond
(dp84
g76
I1
sg21
(lp85
I1
aI23
asba(ichempy
Bond
(dp86
g76
I1
sg21
(lp87
I3
aI2
asba(ichempy
Bond
(dp88
g76
I1
sg21
(lp89
I4
aI3
asba(ichempy
Bond
(dp90
g76
I1
sg21
(lp91
I5
aI4
asba(ichempy
Bond
(dp92
g76
I1
sg21
(lp93
I6
aI5
asba(ichempy
Bond
(dp94
g76
I2
sg21
(lp95
I7
aI6
asba(ichempy
Bond
(dp96
g76
I1
sg21
(lp97
I8
aI6
asba(ichempy
Bond
(dp98
g76
I1
sg21
(lp99
I10
aI9
asba(ichempy
Bond
(dp100
g76
I2
sg21
(lp101
I10
aI11
asba(ichempy
Bond
(dp102
g76
I1
sg21
(lp103
I12
aI7
asba(ichempy
Bond
(dp104
g76
I1
sg21
(lp105
I13
aI8
asba(ichempy
Bond
(dp106
g76
I1
sg21
(lp107
I14
aI2
asba(ichempy
Bond
(dp108
g76
I1
sg21
(lp109
I15
aI4
asba(ichempy
Bond
(dp110
g76
I1
sg21
(lp111
I16
aI3
asba(ichempy
Bond
(dp112
g76
I1
sg21
(lp113
I17
aI7
asba(ichempy
Bond
(dp114
g76
I1
sg21
(lp115
I18
aI8
asba(ichempy
Bond
(dp116
g76
I1
sg21
(lp117
I19
aI2
asba(ichempy
Bond
(dp118
g76
I1
sg21
(lp119
I20
aI4
asba(ichempy
Bond
(dp120
g76
I1
sg21
(lp121
I21
aI3
asba(ichempy
Bond
(dp122
g76
I1
sg21
(lp123
I24
aI5
asbasb.