(ichempy.models
Indexed
p1
(dp2
S'atom'
p3
(lp4
(ichempy
Atom
(dp5
S'resn'
p6
S'CYS'
sS'id'
p7
I32
sS'partial_charge'
p8
F-0.38209998607635498
sS'formal_charge'
p9
I0
sS'segi'
p10
S''
sS'resi'
p11
S'3'
sS'resi_number'
p12
I3
sS'q'
F1
sS'hetatm'
p13
I0
sS'coord'
p14
(lp15
F5.9660000801086426
aF4.1170001029968262
aF0
asS'symbol'
p16
S'N'
sS'text_type'
p17
S'N'
sS'flags'
p18
I0
sS'vdw'
p19
F1.7999999523162842
sS'name'
p20
S'N'
sS'b'
F0
sS'index'
p21
I25
sS'chain'
p22
S''
sba(ichempy
Atom
(dp23
g6
S'CYS'
sg7
I25
sg8
F-0.16349999606609344
sg9
I0
sg10
S''
sg11
S'3'
sg12
I3
sS'q'
F1
sg13
I0
sg14
(lp24
F7.4219999313354492
aF4.2309999465942383
aF0
asg16
S'C'
sg17
S'CT'
sg18
I0
sg19
F1.7999999523162842
sg20
S'CA'
sS'b'
F0
sg21
I26
sg22
S''
sba(ichempy
Atom
(dp25
g6
S'CYS'
sg7
I26
sg8
F-0.19959999620914459
sg9
I0
sg10
S''
sg11
S'3'
sg12
I3
sS'q'
F1
sg13
I0
sg14
(lp26
F7.9749999046325684
aF3.4530000686645508
aF-1.2100000381469727
asg16
S'C'
sg17
S'CT'
sg18
I0
sg19
F1.7999999523162842
sg20
S'CB'
sS'b'
F0
sg21
I27
sg22
S''
sba(ichempy
Atom
(dp27
g6
S'CYS'
sg7
I35
sg8
F-0.31020000576972961
sg9
I0
sg10
S''
sg11
S'3'
sg12
I3
sS'q'
F1
sg13
I0
sg14
(lp28
F9.7799997329711914
aF3.4040000438690186
aF-1.1679999828338623
asg16
S'S'
sg17
S'SH'
sg18
I0
sg19
F1.8999999761581421
sg20
S'SG'
sS'b'
F0
sg21
I28
sg22
S''
sba(ichempy
Atom
(dp29
g6
S'CYS'
sg7
I34
sg8
F-0.79809999465942383
sg9
I0
sg10
S''
sg11
S'3'
sg12
I3
sS'q'
F1
sg13
I0
sg14
(lp30
F9.1029996871948242
aF5.8889999389648438
aF0
asg16
S'O'
sg17
S'O2'
sg18
I0
sg19
F1.5
sg20
S'OXT'
sS'b'
F0
sg21
I29
sg22
S''
sba(ichempy
Atom
(dp31
g6
S'CYS'
sg7
I24
sg8
F0.74970000982284546
sg9
I0
sg10
S''
sg11
S'3'
sg12
I3
sS'q'
F1
sg13
I0
sg14
(lp32
F7.8509998321533203
aF5.6789999008178711
aF0
asg16
S'C'
sg17
S'C'
sg18
I0
sg19
F1.7999999523162842
sg20
S'C'
sS'b'
F0
sg21
I30
sg22
S''
sba(ichempy
Atom
(dp33
g6
S'CYS'
sg7
I33
sg8
F-0.79809999465942383
sg9
I0
sg10
S''
sg11
S'3'
sg12
I3
sS'q'
F1
sg13
I0
sg14
(lp34
F7.0089998245239258
aF6.630000114440918
aF0
asg16
S'O'
sg17
S'O2'
sg18
I0
sg19
F1.5
sg20
S'O'
sS'b'
F0
sg21
I31
sg22
S''
sba(ichempy
Atom
(dp35
g6
S'CYS'
sg7
I27
sg8
F0.1437000036239624
sg9
I0
sg10
S''
sg11
S'3'
sg12
I3
sS'q'
F1
sg13
I0
sg14
(lp36
F7.6420001983642578
aF3.9040000438690186
aF-2.1679999828338623
asg16
S'H'
sg17
S'H1'
sg18
I0
sg19
F1.1000000238418579
sg20
S'2HB'
sS'b'
F0
sg21
I32
sg22
S''
sba(ichempy
Atom
(dp37
g6
S'CYS'
sg7
I28
sg8
F0.1437000036239624
sg9
I0
sg10
S''
sg11
S'3'
sg12
I3
sS'q'
F1
sg13
I0
sg14
(lp38
F7.6059999465942383
aF2.4119999408721924
aF-1.218000054359436
asg16
S'H'
sg17
S'H1'
sg18
I0
sg19
F1.1000000238418579
sg20
S'3HB'
sS'b'
F0
sg21
I33
sg22
S''
sba(ichempy
Atom
(dp39
g6
S'CYS'
sg7
I29
sg8
F0.26809999346733093
sg9
I0
sg10
S''
sg11
S'3'
sg12
I3
sS'q'
F1
sg13
I0
sg14
(lp40
F5.3239998817443848
aF4.9850001335144043
aF0
asg16
S'H'
sg17
S'H'
sg18
I0
sg19
F1.1000000238418579
sg20
S'H'
sS'b'
F0
sg21
I34
sg22
S''
sba(ichempy
Atom
(dp41
g6
S'CYS'
sg7
I30
sg8
F0.1395999938249588
sg9
I0
sg10
S''
sg11
S'3'
sg12
I3
sS'q'
F1
sg13
I0
sg14
(lp42
F7.8060002326965332
aF3.7750000953674316
aF0.9309999942779541
asg16
S'H'
sg17
S'H1'
sg18
I0
sg19
F1.1000000238418579
sg20
S'HA'
sS'b'
F0
sg21
I35
sg22
S''
sba(ichempy
Atom
(dp43
g6
S'CYS'
sg7
I31
sg8
F0.20679999887943268
sg9
I0
sg10
S''
sg11
S'3'
sg12
I3
sS'q'
F1
sg13
I0
sg14
(lp44
F9.9870004653930664
aF4.2960000038146973
aF-2.1329998970031738
asg16
S'H'
sg17
S'HS'
sg18
I0
sg19
F1.1000000238418579
sg20
S'HG'
sS'b'
F0
sg21
I36
sg22
S''
sbasS'molecule'
p45
(ichempy
Molecule
(dp46
bsg21
NsS'bond'
p47
(lp48
(ichempy
Bond
(dp49
S'order'
p50
I1
sg21
(lp51
I0
aI1
asba(ichempy
Bond
(dp52
g50
I1
sg21
(lp53
I0
aI9
asba(ichempy
Bond
(dp54
g50
I1
sg21
(lp55
I1
aI2
asba(ichempy
Bond
(dp56
g50
I1
sg21
(lp57
I1
aI5
asba(ichempy
Bond
(dp58
g50
I1
sg21
(lp59
I1
aI10
asba(ichempy
Bond
(dp60
g50
I1
sg21
(lp61
I3
aI2
asba(ichempy
Bond
(dp62
g50
I1
sg21
(lp63
I5
aI4
asba(ichempy
Bond
(dp64
g50
I2
sg21
(lp65
I5
aI6
asba(ichempy
Bond
(dp66
g50
I1
sg21
(lp67
I7
aI2
asba(ichempy
Bond
(dp68
g50
I1
sg21
(lp69
I8
aI2
asba(ichempy
Bond
(dp70
g50
I1
sg21
(lp71
I11
aI3
asbasb.