(ichempy.models
Indexed
p1
(dp2
S'atom'
p3
(lp4
(ichempy
Atom
(dp5
S'resn'
p6
S'GLN'
sS'id'
p7
I49
sS'partial_charge'
p8
F-0.38209998607635498
sS'formal_charge'
p9
I0
sS'segi'
p10
S''
sS'resi'
p11
S'3'
sS'resi_number'
p12
I3
sS'q'
F1
sS'hetatm'
p13
I0
sS'coord'
p14
(lp15
F5.9310002326965332
aF4.1380000114440918
aF0
asS'symbol'
p16
S'N'
sS'text_type'
p17
S'N'
sS'flags'
p18
I0
sS'vdw'
p19
F1.7999999523162842
sS'name'
p20
S'N'
sS'b'
F0
sS'index'
p21
I37
sS'chain'
p22
S''
sba(ichempy
Atom
(dp23
g6
S'GLN'
sg7
I37
sg8
F-0.22480000555515289
sg9
I0
sg10
S''
sg11
S'3'
sg12
I3
sS'q'
F1
sg13
I0
sg14
(lp24
F7.3860001564025879
aF4.2600002288818359
aF0
asg16
S'C'
sg17
S'CT'
sg18
I0
sg19
F1.7999999523162842
sg20
S'CA'
sS'b'
F0
sg21
I38
sg22
S''
sba(ichempy
Atom
(dp25
g6
S'GLN'
sg7
I38
sg8
F-0.066399998962879181
sg9
I0
sg10
S''
sg11
S'3'
sg12
I3
sS'q'
F1
sg13
I0
sg14
(lp26
F7.945000171661377
aF3.5220000743865967
aF-1.2359999418258667
asg16
S'C'
sg17
S'CT'
sg18
I0
sg19
F1.7999999523162842
sg20
S'CB'
sS'b'
F0
sg21
I39
sg22
S''
sba(ichempy
Atom
(dp27
g6
S'GLN'
sg7
I40
sg8
F-0.020999999716877937
sg9
I0
sg10
S''
sg11
S'3'
sg12
I3
sS'q'
F1
sg13
I0
sg14
(lp28
F9.5019998550415039
aF3.503000020980835
aF-1.3839999437332153
asg16
S'C'
sg17
S'CT'
sg18
I0
sg19
F1.7999999523162842
sg20
S'CG'
sS'b'
F0
sg21
I40
sg22
S''
sba(ichempy
Atom
(dp29
g6
S'GLN'
sg7
I39
sg8
F0.70929998159408569
sg9
I0
sg10
S''
sg11
S'3'
sg12
I3
sS'q'
F1
sg13
I0
sg14
(lp30
F10.128000259399414
aF2.8410000801086426
aF-2.6180000305175781
asg16
S'C'
sg17
S'C'
sg18
I0
sg19
F1.7999999523162842
sg20
S'CD'
sS'b'
F0
sg21
I41
sg22
S''
sba(ichempy
Atom
(dp31
g6
S'GLN'
sg7
I50
sg8
F-0.95740002393722534
sg9
I0
sg10
S''
sg11
S'3'
sg12
I3
sS'q'
F1
sg13
I0
sg14
(lp32
F9.3610000610351562
aF2.2860000133514404
aF-3.5220000743865967
asg16
S'N'
sg17
S'N'
sg18
I0
sg19
F1.7999999523162842
sg20
S'NE2'
sS'b'
F0
sg21
I42
sg22
S''
sba(ichempy
Atom
(dp33
g6
S'GLN'
sg7
I52
sg8
F-0.60979998111724854
sg9
I0
sg10
S''
sg11
S'3'
sg12
I3
sS'q'
F1
sg13
I0
sg14
(lp34
F11.336999893188477
aF2.8410000801086426
aF-2.7890000343322754
asg16
S'O'
sg17
S'O'
sg18
I0
sg19
F1.5
sg20
S'OE1'
sS'b'
F0
sg21
I43
sg22
S''
sba(ichempy
Atom
(dp35
g6
S'GLN'
sg7
I53
sg8
F-0.80419999361038208
sg9
I0
sg10
S''
sg11
S'3'
sg12
I3
sS'q'
F1
sg13
I0
sg14
(lp36
F9.0579996109008789
aF5.9260001182556152
aF0
asg16
S'O'
sg17
S'O2'
sg18
I0
sg19
F1.5
sg20
S'OXT'
sS'b'
F0
sg21
I44
sg22
S''
sba(ichempy
Atom
(dp37
g6
S'GLN'
sg7
I36
sg8
F0.7774999737739563
sg9
I0
sg10
S''
sg11
S'3'
sg12
I3
sS'q'
F1
sg13
I0
sg14
(lp38
F7.8070001602172852
aF5.7100000381469727
aF0
asg16
S'C'
sg17
S'C'
sg18
I0
sg19
F1.7999999523162842
sg20
S'C'
sS'b'
F0
sg21
I45
sg22
S''
sba(ichempy
Atom
(dp39
g6
S'GLN'
sg7
I51
sg8
F-0.80419999361038208
sg9
I0
sg10
S''
sg11
S'3'
sg12
I3
sS'q'
F1
sg13
I0
sg14
(lp40
F6.9609999656677246
aF6.6570000648498535
aF0
asg16
S'O'
sg17
S'O2'
sg18
I0
sg19
F1.5
sg20
S'O'
sS'b'
F0
sg21
I46
sg22
S''
sba(ichempy
Atom
(dp41
g6
S'GLN'
sg7
I41
sg8
F0.43040001392364502
sg9
I0
sg10
S''
sg11
S'3'
sg12
I3
sS'q'
F1
sg13
I0
sg14
(lp42
F9.8520002365112305
aF1.9259999990463257
aF-4.3420000076293945
asg16
S'H'
sg17
S'H'
sg18
I0
sg19
F1.1000000238418579
sg20
S'1HE2'
sS'b'
F0
sg21
I47
sg22
S''
sba(ichempy
Atom
(dp43
g6
S'GLN'
sg7
I42
sg8
F0.045200001448392868
sg9
I0
sg10
S''
sg11
S'3'
sg12
I3
sS'q'
F1
sg13
I0
sg14
(lp44
F7.5019998550415039
aF3.9730000495910645
aF-2.1480000019073486
asg16
S'H'
sg17
S'HC'
sg18
I0
sg19
F1.1000000238418579
sg20
S'2HB'
sS'b'
F0
sg21
I48
sg22
S''
sba(ichempy
Atom
(dp45
g6
S'GLN'
sg7
I43
sg8
F0.43040001392364502
sg9
I0
sg10
S''
sg11
S'3'
sg12
I3
sS'q'
F1
sg13
I0
sg14
(lp46
F8.3579998016357422
aF2.3810000419616699
aF-3.3540000915527344
asg16
S'H'
sg17
S'H'
sg18
I0
sg19
F1.1000000238418579
sg20
S'2HE2'
sS'b'
F0
sg21
I49
sg22
S''
sba(ichempy
Atom
(dp47
g6
S'GLN'
sg7
I44
sg8
F0.020300000905990601
sg9
I0
sg10
S''
sg11
S'3'
sg12
I3
sS'q'
F1
sg13
I0
sg14
(lp48
F9.9639997482299805
aF3.0420000553131104
aF-0.49099999666213989
asg16
S'H'
sg17
S'HC'
sg18
I0
sg19
F1.1000000238418579
sg20
S'2HG'
sS'b'
F0
sg21
I50
sg22
S''
sba(ichempy
Atom
(dp49
g6
S'GLN'
sg7
I45
sg8
F0.045200001448392868
sg9
I0
sg10
S''
sg11
S'3'
sg12
I3
sS'q'
F1
sg13
I0
sg14
(lp50
F7.5799999237060547
aF2.4749999046325684
aF-1.2230000495910645
asg16
S'H'
sg17
S'HC'
sg18
I0
sg19
F1.1000000238418579
sg20
S'3HB'
sS'b'
F0
sg21
I51
sg22
S''
sba(ichempy
Atom
(dp51
g6
S'GLN'
sg7
I46
sg8
F0.020300000905990601
sg9
I0
sg10
S''
sg11
S'3'
sg12
I3
sS'q'
F1
sg13
I0
sg14
(lp52
F9.8979997634887695
aF4.5349998474121094
aF-1.3949999809265137
asg16
S'H'
sg17
S'HC'
sg18
I0
sg19
F1.1000000238418579
sg20
S'3HG'
sS'b'
F0
sg21
I52
sg22
S''
sba(ichempy
Atom
(dp53
g6
S'GLN'
sg7
I47
sg8
F0.26809999346733093
sg9
I0
sg10
S''
sg11
S'3'
sg12
I3
sS'q'
F1
sg13
I0
sg14
(lp54
F5.3559999465942383
aF4.9060001373291016
aF0
asg16
S'H'
sg17
S'H'
sg18
I0
sg19
F1.1000000238418579
sg20
S'H'
sS'b'
F0
sg21
I53
sg22
S''
sba(ichempy
Atom
(dp55
g6
S'GLN'
sg7
I48
sg8
F0.12319999933242798
sg9
I0
sg10
S''
sg11
S'3'
sg12
I3
sS'q'
F1
sg13
I0
sg14
(lp56
F7.7810001373291016
aF3.7960000038146973
aF0.92299997806549072
asg16
S'H'
sg17
S'H1'
sg18
I0
sg19
F1.1000000238418579
sg20
S'HA'
sS'b'
F0
sg21
I54
sg22
S''
sbasS'molecule'
p57
(ichempy
Molecule
(dp58
bsg21
NsS'bond'
p59
(lp60
(ichempy
Bond
(dp61
S'order'
p62
I1
sg21
(lp63
I0
aI1
asba(ichempy
Bond
(dp64
g62
I1
sg21
(lp65
I0
aI16
asba(ichempy
Bond
(dp66
g62
I1
sg21
(lp67
I1
aI2
asba(ichempy
Bond
(dp68
g62
I1
sg21
(lp69
I1
aI8
asba(ichempy
Bond
(dp70
g62
I1
sg21
(lp71
I1
aI17
asba(ichempy
Bond
(dp72
g62
I1
sg21
(lp73
I3
aI2
asba(ichempy
Bond
(dp74
g62
I1
sg21
(lp75
I4
aI3
asba(ichempy
Bond
(dp76
g62
I1
sg21
(lp77
I5
aI4
asba(ichempy
Bond
(dp78
g62
I2
sg21
(lp79
I6
aI4
asba(ichempy
Bond
(dp80
g62
I1
sg21
(lp81
I8
aI7
asba(ichempy
Bond
(dp82
g62
I2
sg21
(lp83
I8
aI9
asba(ichempy
Bond
(dp84
g62
I1
sg21
(lp85
I10
aI5
asba(ichempy
Bond
(dp86
g62
I1
sg21
(lp87
I11
aI2
asba(ichempy
Bond
(dp88
g62
I1
sg21
(lp89
I12
aI5
asba(ichempy
Bond
(dp90
g62
I1
sg21
(lp91
I13
aI3
asba(ichempy
Bond
(dp92
g62
I1
sg21
(lp93
I14
aI2
asba(ichempy
Bond
(dp94
g62
I1
sg21
(lp95
I15
aI3
asbasb.