(ichempy.models
Indexed
p1
(dp2
S'atom'
p3
(lp4
(ichempy
Atom
(dp5
S'resn'
p6
S'HIE'
sS'id'
p7
I49
sS'partial_charge'
p8
F-0.38209998607635498
sS'formal_charge'
p9
I0
sS'segi'
p10
S''
sS'resi'
p11
S'3'
sS'resi_number'
p12
I3
sS'q'
F1
sS'hetatm'
p13
I0
sS'coord'
p14
(lp15
F3.6659998893737793
aF4.9460000991821289
aF10.065999984741211
asS'symbol'
p16
S'N'
sS'text_type'
p17
S'N'
sS'flags'
p18
I0
sS'vdw'
p19
F1.7999999523162842
sS'name'
p20
S'N'
sS'b'
F0
sS'index'
p21
I37
sS'chain'
p22
S''
sba(ichempy
Atom
(dp23
g6
S'HIE'
sg7
I37
sg8
F-0.26989999413490295
sg9
I0
sg10
S''
sg11
S'3'
sg12
I3
sS'q'
F1
sg13
I0
sg14
(lp24
F5.119999885559082
aF5.0679998397827148
aF10.071000099182129
asg16
S'C'
sg17
S'CT'
sg18
I0
sg19
F1.7999999523162842
sg20
S'CA'
sS'b'
F0
sg21
I38
sg22
S''
sba(ichempy
Atom
(dp25
g6
S'HIE'
sg7
I38
sg8
F-0.10679999738931656
sg9
I0
sg10
S''
sg11
S'3'
sg12
I3
sS'q'
F1
sg13
I0
sg14
(lp26
F5.5929999351501465
aF4.6700000762939453
aF8.6630001068115234
asg16
S'C'
sg17
S'CT'
sg18
I0
sg19
F1.7999999523162842
sg20
S'CB'
sS'b'
F0
sg21
I39
sg22
S''
sba(ichempy
Atom
(dp27
g6
S'HIE'
sg7
I41
sg8
F0.27239999175071716
sg9
I0
sg10
S''
sg11
S'3'
sg12
I3
sS'q'
F1
sg13
I0
sg14
(lp28
F6.5069999694824219
aF3.4809999465942383
aF8.6840000152587891
asg16
S'C'
sg17
S'CC'
sg18
I0
sg19
F1.7999999523162842
sg20
S'CG'
sS'b'
F0
sg21
I40
sg22
S''
sba(ichempy
Atom
(dp29
g6
S'HIE'
sg7
I39
sg8
F-0.25879999995231628
sg9
I0
sg10
S''
sg11
S'3'
sg12
I3
sS'q'
F1
sg13
I0
sg14
(lp30
F6.0440001487731934
aF2.1770000457763672
aF8.5729999542236328
asg16
S'C'
sg17
S'CW'
sg18
I0
sg19
F1.7999999523162842
sg20
S'CD2'
sS'b'
F0
sg21
I41
sg22
S''
sba(ichempy
Atom
(dp31
g6
S'HIE'
sg7
I50
sg8
F-0.55169999599456787
sg9
I0
sg10
S''
sg11
S'3'
sg12
I3
sS'q'
F1
sg13
I0
sg14
(lp32
F7.8940000534057617
aF3.5209999084472656
aF8.8100004196166992
asg16
S'N'
sg17
S'NB'
sg18
I0
sg19
F1.7999999523162842
sg20
S'ND1'
sS'b'
F0
sg21
I42
sg22
S''
sba(ichempy
Atom
(dp33
g6
S'HIE'
sg7
I40
sg8
F0.15579999983310699
sg9
I0
sg10
S''
sg11
S'3'
sg12
I3
sS'q'
F1
sg13
I0
sg14
(lp34
F8.1660003662109375
aF2.2019999027252197
aF8.7709999084472656
asg16
S'C'
sg17
S'CR'
sg18
I0
sg19
F1.7999999523162842
sg20
S'CE1'
sS'b'
F0
sg21
I43
sg22
S''
sba(ichempy
Atom
(dp35
g6
S'HIE'
sg7
I51
sg8
F-0.2669999897480011
sg9
I0
sg10
S''
sg11
S'3'
sg12
I3
sS'q'
F1
sg13
I0
sg14
(lp36
F7.125999927520752
aF1.3370000123977661
aF8.6280002593994141
asg16
S'N'
sg17
S'NA'
sg18
I0
sg19
F1.7999999523162842
sg20
S'NE2'
sS'b'
F0
sg21
I44
sg22
S''
sba(ichempy
Atom
(dp37
g6
S'HIE'
sg7
I53
sg8
F-0.80650001764297485
sg9
I0
sg10
S''
sg11
S'3'
sg12
I3
sS'q'
F1
sg13
I0
sg14
(lp38
F6.7950000762939453
aF6.6970000267028809
aF10.416999816894531
asg16
S'O'
sg17
S'O2'
sg18
I0
sg19
F1.5
sg20
S'OXT'
sS'b'
F0
sg21
I45
sg22
S''
sba(ichempy
Atom
(dp39
g6
S'HIE'
sg7
I36
sg8
F0.79159998893737793
sg9
I0
sg10
S''
sg11
S'3'
sg12
I3
sS'q'
F1
sg13
I0
sg14
(lp40
F5.5430002212524414
aF6.4829998016357422
aF10.387999534606934
asg16
S'C'
sg17
S'C'
sg18
I0
sg19
F1.7999999523162842
sg20
S'C'
sS'b'
F0
sg21
I46
sg22
S''
sba(ichempy
Atom
(dp41
g6
S'HIE'
sg7
I52
sg8
F-0.80650001764297485
sg9
I0
sg10
S''
sg11
S'3'
sg12
I3
sS'q'
F1
sg13
I0
sg14
(lp42
F4.6979999542236328
aF7.4039998054504395
aF10.611000061035156
asg16
S'O'
sg17
S'O2'
sg18
I0
sg19
F1.5
sg20
S'O'
sS'b'
F0
sg21
I47
sg22
S''
sba(ichempy
Atom
(dp43
g6
S'HIE'
sg7
I42
sg8
F0.14480000734329224
sg9
I0
sg10
S''
sg11
S'3'
sg12
I3
sS'q'
F1
sg13
I0
sg14
(lp44
F9.2030000686645508
aF1.9019999504089355
aF8.8520002365112305
asg16
S'H'
sg17
S'H5'
sg18
I0
sg19
F1.1000000238418579
sg20
S'1HE'
sS'b'
F0
sg21
I48
sg22
S''
sba(ichempy
Atom
(dp45
g6
S'HIE'
sg7
I43
sg8
F0.061999998986721039
sg9
I0
sg10
S''
sg11
S'3'
sg12
I3
sS'q'
F1
sg13
I0
sg14
(lp46
F6.1310000419616699
aF5.505000114440918
aF8.1700000762939453
asg16
S'H'
sg17
S'HC'
sg18
I0
sg19
F1.1000000238418579
sg20
S'2HB'
sS'b'
F0
sg21
I49
sg22
S''
sba(ichempy
Atom
(dp47
g6
S'HIE'
sg7
I44
sg8
F0.19570000469684601
sg9
I0
sg10
S''
sg11
S'3'
sg12
I3
sS'q'
F1
sg13
I0
sg14
(lp48
F4.999000072479248
aF1.9019999504089355
aF8.4619998931884766
asg16
S'H'
sg17
S'H4'
sg18
I0
sg19
F1.1000000238418579
sg20
S'2HD'
sS'b'
F0
sg21
I50
sg22
S''
sba(ichempy
Atom
(dp49
g6
S'HIE'
sg7
I45
sg8
F0.33190000057220459
sg9
I0
sg10
S''
sg11
S'3'
sg12
I3
sS'q'
F1
sg13
I0
sg14
(lp50
F7.1399998664855957
aF0.30799999833106995
aF8.5769996643066406
asg16
S'H'
sg17
S'H'
sg18
I0
sg19
F1.1000000238418579
sg20
S'2HE'
sS'b'
F0
sg21
I51
sg22
S''
sba(ichempy
Atom
(dp51
g6
S'HIE'
sg7
I46
sg8
F0.061999998986721039
sg9
I0
sg10
S''
sg11
S'3'
sg12
I3
sS'q'
F1
sg13
I0
sg14
(lp52
F4.7439999580383301
aF4.429999828338623
aF7.9899997711181641
asg16
S'H'
sg17
S'HC'
sg18
I0
sg19
F1.1000000238418579
sg20
S'3HB'
sS'b'
F0
sg21
I52
sg22
S''
sba(ichempy
Atom
(dp53
g6
S'HIE'
sg7
I47
sg8
F0.26809999346733093
sg9
I0
sg10
S''
sg11
S'3'
sg12
I3
sS'q'
F1
sg13
I0
sg14
(lp54
F3.0199999809265137
aF5.7870001792907715
aF10.269000053405762
asg16
S'H'
sg17
S'H'
sg18
I0
sg19
F1.1000000238418579
sg20
S'H'
sS'b'
F0
sg21
I53
sg22
S''
sba(ichempy
Atom
(dp55
g6
S'HIE'
sg7
I48
sg8
F0.16500000655651093
sg9
I0
sg10
S''
sg11
S'3'
sg12
I3
sS'q'
F1
sg13
I0
sg14
(lp56
F5.5069999694824219
aF4.4340000152587891
aF10.88599967956543
asg16
S'H'
sg17
S'H1'
sg18
I0
sg19
F1.1000000238418579
sg20
S'HA'
sS'b'
F0
sg21
I54
sg22
S''
sbasS'molecule'
p57
(ichempy
Molecule
(dp58
bsg21
NsS'bond'
p59
(lp60
(ichempy
Bond
(dp61
S'order'
p62
I1
sg21
(lp63
I0
aI1
asba(ichempy
Bond
(dp64
g62
I1
sg21
(lp65
I0
aI16
asba(ichempy
Bond
(dp66
g62
I1
sg21
(lp67
I1
aI2
asba(ichempy
Bond
(dp68
g62
I1
sg21
(lp69
I1
aI9
asba(ichempy
Bond
(dp70
g62
I1
sg21
(lp71
I1
aI17
asba(ichempy
Bond
(dp72
g62
I1
sg21
(lp73
I3
aI2
asba(ichempy
Bond
(dp74
g62
I2
sg21
(lp75
I3
aI4
asba(ichempy
Bond
(dp76
g62
I1
sg21
(lp77
I4
aI7
asba(ichempy
Bond
(dp78
g62
I1
sg21
(lp79
I5
aI3
asba(ichempy
Bond
(dp80
g62
I2
sg21
(lp81
I6
aI5
asba(ichempy
Bond
(dp82
g62
I1
sg21
(lp83
I7
aI6
asba(ichempy
Bond
(dp84
g62
I1
sg21
(lp85
I9
aI8
asba(ichempy
Bond
(dp86
g62
I2
sg21
(lp87
I9
aI10
asba(ichempy
Bond
(dp88
g62
I1
sg21
(lp89
I11
aI6
asba(ichempy
Bond
(dp90
g62
I1
sg21
(lp91
I12
aI2
asba(ichempy
Bond
(dp92
g62
I1
sg21
(lp93
I13
aI4
asba(ichempy
Bond
(dp94
g62
I1
sg21
(lp95
I14
aI7
asba(ichempy
Bond
(dp96
g62
I1
sg21
(lp97
I15
aI2
asbasb.