(ichempy.models
Indexed
p1
(dp2
S'atom'
p3
(lp4
(ichempy
Atom
(dp5
S'resn'
p6
S'HIP'
sS'id'
p7
I52
sS'partial_charge'
p8
F-0.34810000658035278
sS'formal_charge'
p9
I0
sS'segi'
p10
S''
sS'resi'
p11
S'3'
sS'resi_number'
p12
I3
sS'q'
F1
sS'hetatm'
p13
I0
sS'coord'
p14
(lp15
F3.6749999523162842
aF5.1719999313354492
aF8.8570003509521484
asS'symbol'
p16
S'N'
sS'text_type'
p17
S'N'
sS'flags'
p18
I0
sS'vdw'
p19
F1.7999999523162842
sS'name'
p20
S'N'
sS'b'
F0
sS'index'
p21
I39
sS'chain'
p22
S''
sba(ichempy
Atom
(dp23
g6
S'HIP'
sg7
I39
sg8
F-0.1445000022649765
sg9
I0
sg10
S''
sg11
S'3'
sg12
I3
sS'q'
F1
sg13
I0
sg14
(lp24
F5.1310000419616699
aF5.2870001792907715
aF8.8570003509521484
asg16
S'C'
sg17
S'CT'
sg18
I0
sg19
F1.7999999523162842
sg20
S'CA'
sS'b'
F0
sg21
I40
sg22
S''
sba(ichempy
Atom
(dp25
g6
S'HIP'
sg7
I40
sg8
F-0.079999998211860657
sg9
I0
sg10
S''
sg11
S'3'
sg12
I3
sS'q'
F1
sg13
I0
sg14
(lp26
F5.6729998588562012
aF4.5089998245239258
aF7.6129999160766602
asg16
S'C'
sg17
S'CT'
sg18
I0
sg19
F1.7999999523162842
sg20
S'CB'
sS'b'
F0
sg21
I41
sg22
S''
sba(ichempy
Atom
(dp27
g6
S'HIP'
sg7
I43
sg8
F0.029799999669194221
sg9
I0
sg10
S''
sg11
S'3'
sg12
I3
sS'q'
F1
sg13
I0
sg14
(lp28
F6.6050000190734863
aF3.3289999961853027
aF7.8819999694824219
asg16
S'C'
sg17
S'CC'
sg18
I0
sg19
F1.7999999523162842
sg20
S'CG'
sS'b'
F0
sg21
I42
sg22
S''
sba(ichempy
Atom
(dp29
g6
S'HIP'
sg7
I41
sg8
F-0.12559999525547028
sg9
I0
sg10
S''
sg11
S'3'
sg12
I3
sS'q'
F1
sg13
I0
sg14
(lp30
F6.1710000038146973
aF2.0060000419616699
aF8.0869998931884766
asg16
S'C'
sg17
S'CW'
sg18
I0
sg19
F1.7999999523162842
sg20
S'CD2'
sS'b'
F0
sg21
I43
sg22
S''
sba(ichempy
Atom
(dp31
g6
S'HIP'
sg7
I53
sg8
F-0.1500999927520752
sg9
I0
sg10
S''
sg11
S'3'
sg12
I3
sS'q'
F1
sg13
I0
sg14
(lp32
F7.9879999160766602
aF3.3840000629425049
aF7.9720001220703125
asg16
S'N'
sg17
S'NA'
sg18
I0
sg19
F1.7999999523162842
sg20
S'ND1'
sS'b'
F0
sg21
I44
sg22
S''
sba(ichempy
Atom
(dp33
g6
S'HIP'
sg7
I42
sg8
F-0.025100000202655792
sg9
I0
sg10
S''
sg11
S'3'
sg12
I3
sS'q'
F1
sg13
I0
sg14
(lp34
F8.2950000762939453
aF2.0789999961853027
aF8.2349996566772461
asg16
S'C'
sg17
S'CR'
sg18
I0
sg19
F1.7999999523162842
sg20
S'CE1'
sS'b'
F0
sg21
I45
sg22
S''
sba(ichempy
Atom
(dp35
g6
S'HIP'
sg7
I54
sg8
F-0.16830000281333923
sg9
I0
sg10
S''
sg11
S'3'
sg12
I3
sS'q'
F1
sg13
I0
sg14
(lp36
F7.2659997940063477
aF1.1749999523162842
aF8.3159999847412109
asg16
S'N'
sg17
S'NA'
sg18
I0
sg19
F1.7999999523162842
sg20
S'NE2'
sS'b'
F0
sg21
I46
sg22
S''
sba(ichempy
Atom
(dp37
g6
S'HIP'
sg7
I56
sg8
F-0.81770002841949463
sg9
I0
sg10
S''
sg11
S'3'
sg12
I3
sS'q'
F1
sg13
I0
sg14
(lp38
F6.8119997978210449
aF6.9439997673034668
aF8.8570003509521484
asg16
S'O'
sg17
S'O2'
sg18
I0
sg19
F1.5
sg20
S'OXT'
sS'b'
F0
sg21
I47
sg22
S''
sba(ichempy
Atom
(dp39
g6
S'HIP'
sg7
I38
sg8
F0.80320000648498535
sg9
I0
sg10
S''
sg11
S'3'
sg12
I3
sS'q'
F1
sg13
I0
sg14
(lp40
F5.559999942779541
aF6.7340002059936523
aF8.8570003509521484
asg16
S'C'
sg17
S'C'
sg18
I0
sg19
F1.7999999523162842
sg20
S'C'
sS'b'
F0
sg21
I48
sg22
S''
sba(ichempy
Atom
(dp41
g6
S'HIP'
sg7
I55
sg8
F-0.81770002841949463
sg9
I0
sg10
S''
sg11
S'3'
sg12
I3
sS'q'
F1
sg13
I0
sg14
(lp42
F4.7179999351501465
aF7.685999870300293
aF8.8570003509521484
asg16
S'O'
sg17
S'O2'
sg18
I0
sg19
F1.5
sg20
S'O'
sS'b'
F0
sg21
I49
sg22
S''
sba(ichempy
Atom
(dp43
g6
S'HIP'
sg7
I44
sg8
F0.38830000162124634
sg9
I0
sg10
S''
sg11
S'3'
sg12
I3
sS'q'
F1
sg13
I0
sg14
(lp44
F8.6059999465942383
aF4.2059998512268066
aF7.9330000877380371
asg16
S'H'
sg17
S'H'
sg18
I0
sg19
F1.1000000238418579
sg20
S'1HD'
sS'b'
F0
sg21
I50
sg22
S''
sba(ichempy
Atom
(dp45
g6
S'HIP'
sg7
I45
sg8
F0.26940000057220459
sg9
I0
sg10
S''
sg11
S'3'
sg12
I3
sS'q'
F1
sg13
I0
sg14
(lp46
F9.3319997787475586
aF1.7730000019073486
aF8.3839998245239258
asg16
S'H'
sg17
S'H5'
sg18
I0
sg19
F1.1000000238418579
sg20
S'1HE'
sS'b'
F0
sg21
I51
sg22
S''
sba(ichempy
Atom
(dp47
g6
S'HIP'
sg7
I46
sg8
F0.086800001561641693
sg9
I0
sg10
S''
sg11
S'3'
sg12
I3
sS'q'
F1
sg13
I0
sg14
(lp48
F6.1909999847412109
aF5.2030000686645508
aF6.9200000762939453
asg16
S'H'
sg17
S'HC'
sg18
I0
sg19
F1.1000000238418579
sg20
S'2HB'
sS'b'
F0
sg21
I52
sg22
S''
sba(ichempy
Atom
(dp49
g6
S'HIP'
sg7
I47
sg8
F0.23360000550746918
sg9
I0
sg10
S''
sg11
S'3'
sg12
I3
sS'q'
F1
sg13
I0
sg14
(lp50
F5.129000186920166
aF1.6979999542236328
aF8.074000358581543
asg16
S'H'
sg17
S'H4'
sg18
I0
sg19
F1.1000000238418579
sg20
S'2HD'
sS'b'
F0
sg21
I53
sg22
S''
sba(ichempy
Atom
(dp51
g6
S'HIP'
sg7
I48
sg8
F0.39129999279975891
sg9
I0
sg10
S''
sg11
S'3'
sg12
I3
sS'q'
F1
sg13
I0
sg14
(lp52
F7.2969999313354492
aF0.16500000655651093
aF8.5100002288818359
asg16
S'H'
sg17
S'H'
sg18
I0
sg19
F1.1000000238418579
sg20
S'2HE'
sS'b'
F0
sg21
I54
sg22
S''
sba(ichempy
Atom
(dp53
g6
S'HIP'
sg7
I49
sg8
F0.086800001561641693
sg9
I0
sg10
S''
sg11
S'3'
sg12
I3
sS'q'
F1
sg13
I0
sg14
(lp54
F4.8420000076293945
aF4.1430001258850098
aF6.9730000495910645
asg16
S'H'
sg17
S'HC'
sg18
I0
sg19
F1.1000000238418579
sg20
S'3HB'
sS'b'
F0
sg21
I55
sg22
S''
sba(ichempy
Atom
(dp55
g6
S'HIP'
sg7
I50
sg8
F0.27639999985694885
sg9
I0
sg10
S''
sg11
S'3'
sg12
I3
sS'q'
F1
sg13
I0
sg14
(lp56
F3.0329999923706055
aF6.0399999618530273
aF8.8570003509521484
asg16
S'H'
sg17
S'H'
sg18
I0
sg19
F1.1000000238418579
sg20
S'H'
sS'b'
F0
sg21
I56
sg22
S''
sba(ichempy
Atom
(dp57
g6
S'HIP'
sg7
I51
sg8
F0.11150000244379044
sg9
I0
sg10
S''
sg11
S'3'
sg12
I3
sS'q'
F1
sg13
I0
sg14
(lp58
F5.4899997711181641
aF4.879000186920166
aF9.8179998397827148
asg16
S'H'
sg17
S'H1'
sg18
I0
sg19
F1.1000000238418579
sg20
S'HA'
sS'b'
F0
sg21
I57
sg22
S''
sbasS'molecule'
p59
(ichempy
Molecule
(dp60
bsg21
NsS'bond'
p61
(lp62
(ichempy
Bond
(dp63
S'order'
p64
I1
sg21
(lp65
I0
aI1
asba(ichempy
Bond
(dp66
g64
I1
sg21
(lp67
I0
aI17
asba(ichempy
Bond
(dp68
g64
I1
sg21
(lp69
I1
aI2
asba(ichempy
Bond
(dp70
g64
I1
sg21
(lp71
I1
aI9
asba(ichempy
Bond
(dp72
g64
I1
sg21
(lp73
I1
aI18
asba(ichempy
Bond
(dp74
g64
I1
sg21
(lp75
I3
aI2
asba(ichempy
Bond
(dp76
g64
I2
sg21
(lp77
I3
aI4
asba(ichempy
Bond
(dp78
g64
I1
sg21
(lp79
I4
aI7
asba(ichempy
Bond
(dp80
g64
I1
sg21
(lp81
I5
aI3
asba(ichempy
Bond
(dp82
g64
I2
sg21
(lp83
I6
aI5
asba(ichempy
Bond
(dp84
g64
I1
sg21
(lp85
I7
aI6
asba(ichempy
Bond
(dp86
g64
I1
sg21
(lp87
I9
aI8
asba(ichempy
Bond
(dp88
g64
I2
sg21
(lp89
I9
aI10
asba(ichempy
Bond
(dp90
g64
I1
sg21
(lp91
I11
aI5
asba(ichempy
Bond
(dp92
g64
I1
sg21
(lp93
I12
aI6
asba(ichempy
Bond
(dp94
g64
I1
sg21
(lp95
I13
aI2
asba(ichempy
Bond
(dp96
g64
I1
sg21
(lp97
I14
aI4
asba(ichempy
Bond
(dp98
g64
I1
sg21
(lp99
I15
aI7
asba(ichempy
Bond
(dp100
g64
I1
sg21
(lp101
I16
aI2
asbasb.