(ichempy.models
Indexed
p1
(dp2
S'atom'
p3
(lp4
(ichempy
Atom
(dp5
S'resn'
p6
S'ILE'
sS'id'
p7
I57
sS'partial_charge'
p8
F-0.38209998607635498
sS'formal_charge'
p9
I0
sS'segi'
p10
S''
sS'resi'
p11
S'3'
sS'resi_number'
p12
I3
sS'q'
F1
sS'hetatm'
p13
I0
sS'coord'
p14
(lp15
F5.7820000648498535
aF4.304999828338623
aF0
asS'symbol'
p16
S'N'
sS'text_type'
p17
S'N'
sS'flags'
p18
I0
sS'vdw'
p19
F1.7999999523162842
sS'name'
p20
S'N'
sS'b'
F0
sS'index'
p21
I41
sS'chain'
p22
S''
sba(ichempy
Atom
(dp23
g6
S'ILE'
sg7
I41
sg8
F-0.31000000238418579
sg9
I0
sg10
S''
sg11
S'3'
sg12
I3
sS'q'
F1
sg13
I0
sg14
(lp24
F7.2300000190734863
aF4.4850001335144043
aF0
asg16
S'C'
sg17
S'CT'
sg18
I0
sg19
F1.7999999523162842
sg20
S'CA'
sS'b'
F0
sg21
I42
sg22
S''
sba(ichempy
Atom
(dp25
g6
S'ILE'
sg7
I42
sg8
F0.036299999803304672
sg9
I0
sg10
S''
sg11
S'3'
sg12
I3
sS'q'
F1
sg13
I0
sg14
(lp26
F7.9070000648498535
aF3.7109999656677246
aF-1.2029999494552612
asg16
S'C'
sg17
S'CT'
sg18
I0
sg19
F1.7999999523162842
sg20
S'CB'
sS'b'
F0
sg21
I43
sg22
S''
sba(ichempy
Atom
(dp27
g6
S'ILE'
sg7
I44
sg8
F-0.03229999914765358
sg9
I0
sg10
S''
sg11
S'3'
sg12
I3
sS'q'
F1
sg13
I0
sg14
(lp28
F7.5149998664855957
aF2.2019999027252197
aF-1.309999942779541
asg16
S'C'
sg17
S'CT'
sg18
I0
sg19
F1.7999999523162842
sg20
S'CG1'
sS'b'
F0
sg21
I44
sg22
S''
sba(ichempy
Atom
(dp29
g6
S'ILE'
sg7
I45
sg8
F-0.3497999906539917
sg9
I0
sg10
S''
sg11
S'3'
sg12
I3
sS'q'
F1
sg13
I0
sg14
(lp30
F9.4639997482299805
aF3.8059999942779541
aF-1.184999942779541
asg16
S'C'
sg17
S'CT'
sg18
I0
sg19
F1.7999999523162842
sg20
S'CG2'
sS'b'
F0
sg21
I45
sg22
S''
sba(ichempy
Atom
(dp31
g6
S'ILE'
sg7
I43
sg8
F-0.069899998605251312
sg9
I0
sg10
S''
sg11
S'3'
sg12
I3
sS'q'
F1
sg13
I0
sg14
(lp32
F7.8880000114440918
aF1.5010000467300415
aF-2.6329998970031738
asg16
S'C'
sg17
S'CT'
sg18
I0
sg19
F1.7999999523162842
sg20
S'CD1'
sS'b'
F0
sg21
I46
sg22
S''
sba(ichempy
Atom
(dp33
g6
S'ILE'
sg7
I59
sg8
F-0.8190000057220459
sg9
I0
sg10
S''
sg11
S'3'
sg12
I3
sS'q'
F1
sg13
I0
sg14
(lp34
F8.8350000381469727
aF6.2170000076293945
aF0
asg16
S'O'
sg17
S'O2'
sg18
I0
sg19
F1.5
sg20
S'OXT'
sS'b'
F0
sg21
I47
sg22
S''
sba(ichempy
Atom
(dp35
g6
S'ILE'
sg7
I40
sg8
F0.83429998159408569
sg9
I0
sg10
S''
sg11
S'3'
sg12
I3
sS'q'
F1
sg13
I0
sg14
(lp36
F7.5929999351501465
aF5.9510002136230469
aF0
asg16
S'C'
sg17
S'C'
sg18
I0
sg19
F1.7999999523162842
sg20
S'C'
sS'b'
F0
sg21
I48
sg22
S''
sba(ichempy
Atom
(dp37
g6
S'ILE'
sg7
I58
sg8
F-0.8190000057220459
sg9
I0
sg10
S''
sg11
S'3'
sg12
I3
sS'q'
F1
sg13
I0
sg14
(lp38
F6.7100000381469727
aF6.8629999160766602
aF0
asg16
S'O'
sg17
S'O2'
sg18
I0
sg19
F1.5
sg20
S'O'
sS'b'
F0
sg21
I49
sg22
S''
sba(ichempy
Atom
(dp39
g6
S'ILE'
sg7
I46
sg8
F0.019600000232458115
sg9
I0
sg10
S''
sg11
S'3'
sg12
I3
sS'q'
F1
sg13
I0
sg14
(lp40
F7.4559998512268066
aF2.0209999084472656
aF-3.5090000629425049
asg16
S'H'
sg17
S'HC'
sg18
I0
sg19
F1.1000000238418579
sg20
S'1HD1'
sS'b'
F0
sg21
I50
sg22
S''
sba(ichempy
Atom
(dp41
g6
S'ILE'
sg7
I47
sg8
F0.10209999978542328
sg9
I0
sg10
S''
sg11
S'3'
sg12
I3
sS'q'
F1
sg13
I0
sg14
(lp42
F9.8369998931884766
aF4.8449997901916504
aF-1.2289999723434448
asg16
S'H'
sg17
S'HC'
sg18
I0
sg19
F1.1000000238418579
sg20
S'1HG2'
sS'b'
F0
sg21
I51
sg22
S''
sba(ichempy
Atom
(dp43
g6
S'ILE'
sg7
I48
sg8
F0.019600000232458115
sg9
I0
sg10
S''
sg11
S'3'
sg12
I3
sS'q'
F1
sg13
I0
sg14
(lp44
F8.9809999465942383
aF1.4440000057220459
aF-2.7880001068115234
asg16
S'H'
sg17
S'HC'
sg18
I0
sg19
F1.1000000238418579
sg20
S'2HD1'
sS'b'
F0
sg21
I52
sg22
S''
sba(ichempy
Atom
(dp45
g6
S'ILE'
sg7
I49
sg8
F0.032099999487400055
sg9
I0
sg10
S''
sg11
S'3'
sg12
I3
sS'q'
F1
sg13
I0
sg14
(lp46
F6.4180002212524414
aF2.0969998836517334
aF-1.2120000123977661
asg16
S'H'
sg17
S'HC'
sg18
I0
sg19
F1.1000000238418579
sg20
S'2HG1'
sS'b'
F0
sg21
I53
sg22
S''
sba(ichempy
Atom
(dp47
g6
S'ILE'
sg7
I50
sg8
F0.10209999978542328
sg9
I0
sg10
S''
sg11
S'3'
sg12
I3
sS'q'
F1
sg13
I0
sg14
(lp48
F9.8999996185302734
aF3.3389999866485596
aF-0.28099998831748962
asg16
S'H'
sg17
S'HC'
sg18
I0
sg19
F1.1000000238418579
sg20
S'2HG2'
sS'b'
F0
sg21
I54
sg22
S''
sba(ichempy
Atom
(dp49
g6
S'ILE'
sg7
I51
sg8
F0.019600000232458115
sg9
I0
sg10
S''
sg11
S'3'
sg12
I3
sS'q'
F1
sg13
I0
sg14
(lp50
F7.5120000839233398
aF0.46200001239776611
aF-2.6549999713897705
asg16
S'H'
sg17
S'HC'
sg18
I0
sg19
F1.1000000238418579
sg20
S'3HD1'
sS'b'
F0
sg21
I55
sg22
S''
sba(ichempy
Atom
(dp51
g6
S'ILE'
sg7
I52
sg8
F0.032099999487400055
sg9
I0
sg10
S''
sg11
S'3'
sg12
I3
sS'q'
F1
sg13
I0
sg14
(lp52
F7.9250001907348633
aF1.6369999647140503
aF-0.44999998807907104
asg16
S'H'
sg17
S'HC'
sg18
I0
sg19
F1.1000000238418579
sg20
S'3HG1'
sS'b'
F0
sg21
I56
sg22
S''
sba(ichempy
Atom
(dp53
g6
S'ILE'
sg7
I53
sg8
F0.10209999978542328
sg9
I0
sg10
S''
sg11
S'3'
sg12
I3
sS'q'
F1
sg13
I0
sg14
(lp54
F9.9270000457763672
aF3.312000036239624
aF-2.0580000877380371
asg16
S'H'
sg17
S'HC'
sg18
I0
sg19
F1.1000000238418579
sg20
S'3HG2'
sS'b'
F0
sg21
I57
sg22
S''
sba(ichempy
Atom
(dp55
g6
S'ILE'
sg7
I54
sg8
F0.26809999346733093
sg9
I0
sg10
S''
sg11
S'3'
sg12
I3
sS'q'
F1
sg13
I0
sg14
(lp56
F5.1009998321533203
aF5.1430001258850098
aF0
asg16
S'H'
sg17
S'H'
sg18
I0
sg19
F1.1000000238418579
sg20
S'H'
sS'b'
F0
sg21
I58
sg22
S''
sba(ichempy
Atom
(dp57
g6
S'ILE'
sg7
I55
sg8
F0.13750000298023224
sg9
I0
sg10
S''
sg11
S'3'
sg12
I3
sS'q'
F1
sg13
I0
sg14
(lp58
F7.6189999580383301
aF4.0659999847412109
aF0.94599997997283936
asg16
S'H'
sg17
S'H1'
sg18
I0
sg19
F1.1000000238418579
sg20
S'HA'
sS'b'
F0
sg21
I59
sg22
S''
sba(ichempy
Atom
(dp59
g6
S'ILE'
sg7
I56
sg8
F0.076600000262260437
sg9
I0
sg10
S''
sg11
S'3'
sg12
I3
sS'q'
F1
sg13
I0
sg14
(lp60
F7.5529999732971191
aF4.1999998092651367
aF-2.1349999904632568
asg16
S'H'
sg17
S'HC'
sg18
I0
sg19
F1.1000000238418579
sg20
S'HB'
sS'b'
F0
sg21
I60
sg22
S''
sbasS'molecule'
p61
(ichempy
Molecule
(dp62
bsg21
NsS'bond'
p63
(lp64
(ichempy
Bond
(dp65
S'order'
p66
I1
sg21
(lp67
I0
aI1
asba(ichempy
Bond
(dp68
g66
I1
sg21
(lp69
I0
aI17
asba(ichempy
Bond
(dp70
g66
I1
sg21
(lp71
I1
aI2
asba(ichempy
Bond
(dp72
g66
I1
sg21
(lp73
I1
aI7
asba(ichempy
Bond
(dp74
g66
I1
sg21
(lp75
I1
aI18
asba(ichempy
Bond
(dp76
g66
I1
sg21
(lp77
I3
aI2
asba(ichempy
Bond
(dp78
g66
I1
sg21
(lp79
I4
aI2
asba(ichempy
Bond
(dp80
g66
I1
sg21
(lp81
I5
aI3
asba(ichempy
Bond
(dp82
g66
I1
sg21
(lp83
I7
aI6
asba(ichempy
Bond
(dp84
g66
I2
sg21
(lp85
I7
aI8
asba(ichempy
Bond
(dp86
g66
I1
sg21
(lp87
I9
aI5
asba(ichempy
Bond
(dp88
g66
I1
sg21
(lp89
I10
aI4
asba(ichempy
Bond
(dp90
g66
I1
sg21
(lp91
I11
aI5
asba(ichempy
Bond
(dp92
g66
I1
sg21
(lp93
I12
aI3
asba(ichempy
Bond
(dp94
g66
I1
sg21
(lp95
I13
aI4
asba(ichempy
Bond
(dp96
g66
I1
sg21
(lp97
I14
aI5
asba(ichempy
Bond
(dp98
g66
I1
sg21
(lp99
I15
aI3
asba(ichempy
Bond
(dp100
g66
I1
sg21
(lp101
I16
aI4
asba(ichempy
Bond
(dp102
g66
I1
sg21
(lp103
I19
aI2
asbasb.