(ichempy.models
Indexed
p1
(dp2
S'atom'
p3
(lp4
(ichempy
Atom
(dp5
S'resn'
p6
S'MET'
sS'id'
p7
I50
sS'partial_charge'
p8
F-0.38209998607635498
sS'formal_charge'
p9
I0
sS'segi'
p10
S''
sS'resi'
p11
S'3'
sS'resi_number'
p12
I3
sS'q'
F1
sS'hetatm'
p13
I0
sS'coord'
p14
(lp15
F5.7039999961853027
aF4.3470001220703125
aF0
asS'symbol'
p16
S'N'
sS'text_type'
p17
S'N'
sS'flags'
p18
I0
sS'vdw'
p19
F1.7999999523162842
sS'name'
p20
S'N'
sS'b'
F0
sS'index'
p21
I37
sS'chain'
p22
S''
sba(ichempy
Atom
(dp23
g6
S'MET'
sg7
I37
sg8
F-0.25970000028610229
sg9
I0
sg10
S''
sg11
S'3'
sg12
I3
sS'q'
F1
sg13
I0
sg14
(lp24
F7.1519999504089355
aF4.5380001068115234
aF0
asg16
S'C'
sg17
S'CT'
sg18
I0
sg19
F1.7999999523162842
sg20
S'CA'
sS'b'
F0
sg21
I38
sg22
S''
sba(ichempy
Atom
(dp25
g6
S'MET'
sg7
I38
sg8
F-0.023600000888109207
sg9
I0
sg10
S''
sg11
S'3'
sg12
I3
sS'q'
F1
sg13
I0
sg14
(lp26
F7.7789998054504395
aF3.8169999122619629
aF-1.2250000238418579
asg16
S'C'
sg17
S'CT'
sg18
I0
sg19
F1.7999999523162842
sg20
S'CB'
sS'b'
F0
sg21
I39
sg22
S''
sba(ichempy
Atom
(dp27
g6
S'MET'
sg7
I40
sg8
F0.049199998378753662
sg9
I0
sg10
S''
sg11
S'3'
sg12
I3
sS'q'
F1
sg13
I0
sg14
(lp28
F7.6069998741149902
aF2.2839999198913574
aF-1.2660000324249268
asg16
S'C'
sg17
S'CT'
sg18
I0
sg19
F1.7999999523162842
sg20
S'CG'
sS'b'
F0
sg21
I40
sg22
S''
sba(ichempy
Atom
(dp29
g6
S'MET'
sg7
I53
sg8
F-0.26919999718666077
sg9
I0
sg10
S''
sg11
S'3'
sg12
I3
sS'q'
F1
sg13
I0
sg14
(lp30
F8.6289997100830078
aF1.5900000333786011
aF-2.5750000476837158
asg16
S'S'
sg17
S'S'
sg18
I0
sg19
F1.8999999761581421
sg20
S'SD'
sS'b'
F0
sg21
I41
sg22
S''
sba(ichempy
Atom
(dp31
g6
S'MET'
sg7
I39
sg8
F-0.037599999457597733
sg9
I0
sg10
S''
sg11
S'3'
sg12
I3
sS'q'
F1
sg13
I0
sg14
(lp32
F7.9219999313354492
aF-0.061999998986721039
aF-2.6170001029968262
asg16
S'C'
sg17
S'CT'
sg18
I0
sg19
F1.7999999523162842
sg20
S'CE'
sS'b'
F0
sg21
I42
sg22
S''
sba(ichempy
Atom
(dp33
g6
S'MET'
sg7
I52
sg8
F-0.81050002574920654
sg9
I0
sg10
S''
sg11
S'3'
sg12
I3
sS'q'
F1
sg13
I0
sg14
(lp34
F8.7430000305175781
aF6.2820000648498535
aF0
asg16
S'O'
sg17
S'O2'
sg18
I0
sg19
F1.5
sg20
S'OXT'
sS'b'
F0
sg21
I43
sg22
S''
sba(ichempy
Atom
(dp35
g6
S'MET'
sg7
I36
sg8
F0.80129998922348022
sg9
I0
sg10
S''
sg11
S'3'
sg12
I3
sS'q'
F1
sg13
I0
sg14
(lp36
F7.504000186920166
aF6.0060000419616699
aF0
asg16
S'C'
sg17
S'C'
sg18
I0
sg19
F1.7999999523162842
sg20
S'C'
sS'b'
F0
sg21
I44
sg22
S''
sba(ichempy
Atom
(dp37
g6
S'MET'
sg7
I51
sg8
F-0.81050002574920654
sg9
I0
sg10
S''
sg11
S'3'
sg12
I3
sS'q'
F1
sg13
I0
sg14
(lp38
F6.6129999160766602
aF6.9120001792907715
aF0
asg16
S'O'
sg17
S'O2'
sg18
I0
sg19
F1.5
sg20
S'O'
sS'b'
F0
sg21
I45
sg22
S''
sba(ichempy
Atom
(dp39
g6
S'MET'
sg7
I41
sg8
F0.0625
sg9
I0
sg10
S''
sg11
S'3'
sg12
I3
sS'q'
F1
sg13
I0
sg14
(lp40
F7.9710001945495605
aF-0.54000002145767212
aF-1.621999979019165
asg16
S'H'
sg17
S'H1'
sg18
I0
sg19
F1.1000000238418579
sg20
S'1HE'
sS'b'
F0
sg21
I46
sg22
S''
sba(ichempy
Atom
(dp41
g6
S'MET'
sg7
I42
sg8
F0.048000000417232513
sg9
I0
sg10
S''
sg11
S'3'
sg12
I3
sS'q'
F1
sg13
I0
sg14
(lp42
F8.8640003204345703
aF4.0349998474121094
aF-1.2619999647140503
asg16
S'H'
sg17
S'HC'
sg18
I0
sg19
F1.1000000238418579
sg20
S'2HB'
sS'b'
F0
sg21
I47
sg22
S''
sba(ichempy
Atom
(dp43
g6
S'MET'
sg7
I43
sg8
F0.0625
sg9
I0
sg10
S''
sg11
S'3'
sg12
I3
sS'q'
F1
sg13
I0
sg14
(lp44
F6.8629999160766602
aF-0.019999999552965164
aF-2.9300000667572021
asg16
S'H'
sg17
S'H1'
sg18
I0
sg19
F1.1000000238418579
sg20
S'2HE'
sS'b'
F0
sg21
I48
sg22
S''
sba(ichempy
Atom
(dp45
g6
S'MET'
sg7
I44
sg8
F0.031700000166893005
sg9
I0
sg10
S''
sg11
S'3'
sg12
I3
sS'q'
F1
sg13
I0
sg14
(lp46
F6.5469999313354492
aF2.0260000228881836
aF-1.4529999494552612
asg16
S'H'
sg17
S'H1'
sg18
I0
sg19
F1.1000000238418579
sg20
S'2HG'
sS'b'
F0
sg21
I49
sg22
S''
sba(ichempy
Atom
(dp47
g6
S'MET'
sg7
I45
sg8
F0.048000000417232513
sg9
I0
sg10
S''
sg11
S'3'
sg12
I3
sS'q'
F1
sg13
I0
sg14
(lp48
F7.3720002174377441
aF4.245999813079834
aF-2.1630001068115234
asg16
S'H'
sg17
S'HC'
sg18
I0
sg19
F1.1000000238418579
sg20
S'3HB'
sS'b'
F0
sg21
I50
sg22
S''
sba(ichempy
Atom
(dp49
g6
S'MET'
sg7
I46
sg8
F0.0625
sg9
I0
sg10
S''
sg11
S'3'
sg12
I3
sS'q'
F1
sg13
I0
sg14
(lp50
F8.4680004119873047
aF-0.69900000095367432
aF-3.3359999656677246
asg16
S'H'
sg17
S'H1'
sg18
I0
sg19
F1.1000000238418579
sg20
S'3HE'
sS'b'
F0
sg21
I51
sg22
S''
sba(ichempy
Atom
(dp51
g6
S'MET'
sg7
I47
sg8
F0.031700000166893005
sg9
I0
sg10
S''
sg11
S'3'
sg12
I3
sS'q'
F1
sg13
I0
sg14
(lp52
F7.8810000419616699
aF1.8170000314712524
aF-0.30199998617172241
asg16
S'H'
sg17
S'H1'
sg18
I0
sg19
F1.1000000238418579
sg20
S'3HG'
sS'b'
F0
sg21
I52
sg22
S''
sba(ichempy
Atom
(dp53
g6
S'MET'
sg7
I48
sg8
F0.26809999346733093
sg9
I0
sg10
S''
sg11
S'3'
sg12
I3
sS'q'
F1
sg13
I0
sg14
(lp54
F5.0170001983642578
aF5.179999828338623
aF0
asg16
S'H'
sg17
S'H'
sg18
I0
sg19
F1.1000000238418579
sg20
S'H'
sS'b'
F0
sg21
I53
sg22
S''
sba(ichempy
Atom
(dp55
g6
S'MET'
sg7
I49
sg8
F0.12770000100135803
sg9
I0
sg10
S''
sg11
S'3'
sg12
I3
sS'q'
F1
sg13
I0
sg14
(lp56
F7.564000129699707
aF4.1050000190734863
aF0.93000000715255737
asg16
S'H'
sg17
S'H1'
sg18
I0
sg19
F1.1000000238418579
sg20
S'HA'
sS'b'
F0
sg21
I54
sg22
S''
sbasS'molecule'
p57
(ichempy
Molecule
(dp58
bsg21
NsS'bond'
p59
(lp60
(ichempy
Bond
(dp61
S'order'
p62
I1
sg21
(lp63
I0
aI1
asba(ichempy
Bond
(dp64
g62
I1
sg21
(lp65
I0
aI16
asba(ichempy
Bond
(dp66
g62
I1
sg21
(lp67
I1
aI2
asba(ichempy
Bond
(dp68
g62
I1
sg21
(lp69
I1
aI7
asba(ichempy
Bond
(dp70
g62
I1
sg21
(lp71
I1
aI17
asba(ichempy
Bond
(dp72
g62
I1
sg21
(lp73
I3
aI2
asba(ichempy
Bond
(dp74
g62
I1
sg21
(lp75
I4
aI3
asba(ichempy
Bond
(dp76
g62
I1
sg21
(lp77
I5
aI4
asba(ichempy
Bond
(dp78
g62
I1
sg21
(lp79
I7
aI6
asba(ichempy
Bond
(dp80
g62
I2
sg21
(lp81
I7
aI8
asba(ichempy
Bond
(dp82
g62
I1
sg21
(lp83
I9
aI5
asba(ichempy
Bond
(dp84
g62
I1
sg21
(lp85
I10
aI2
asba(ichempy
Bond
(dp86
g62
I1
sg21
(lp87
I11
aI5
asba(ichempy
Bond
(dp88
g62
I1
sg21
(lp89
I12
aI3
asba(ichempy
Bond
(dp90
g62
I1
sg21
(lp91
I13
aI2
asba(ichempy
Bond
(dp92
g62
I1
sg21
(lp93
I14
aI5
asba(ichempy
Bond
(dp94
g62
I1
sg21
(lp95
I15
aI3
asbasb.