(ichempy.models
Indexed
p1
(dp2
S'atom'
p3
(lp4
(ichempy
Atom
(dp5
S'resn'
p6
S'PHE'
sS'id'
p7
I60
sS'partial_charge'
p8
F-0.38209998607635498
sS'formal_charge'
p9
I0
sS'segi'
p10
S''
sS'resi'
p11
S'3'
sS'resi_number'
p12
I3
sS'q'
F1
sS'hetatm'
p13
I0
sS'coord'
p14
(lp15
F5.8330001831054688
aF4.2480001449584961
aF0
asS'symbol'
p16
S'N'
sS'text_type'
p17
S'N'
sS'flags'
p18
I0
sS'vdw'
p19
F1.7999999523162842
sS'name'
p20
S'N'
sS'b'
F0
sS'index'
p21
I43
sS'chain'
p22
S''
sba(ichempy
Atom
(dp23
g6
S'PHE'
sg7
I43
sg8
F-0.18250000476837158
sg9
I0
sg10
S''
sg11
S'3'
sg12
I3
sS'q'
F1
sg13
I0
sg14
(lp24
F7.2839999198913574
aF4.4089999198913574
aF0
asg16
S'C'
sg17
S'CT'
sg18
I0
sg19
F1.7999999523162842
sg20
S'CA'
sS'b'
F0
sg21
I44
sg22
S''
sba(ichempy
Atom
(dp25
g6
S'PHE'
sg7
I44
sg8
F-0.095899999141693115
sg9
I0
sg10
S''
sg11
S'3'
sg12
I3
sS'q'
F1
sg13
I0
sg14
(lp26
F7.8979997634887695
aF3.7290000915527344
aF-1.2610000371932983
asg16
S'C'
sg17
S'CT'
sg18
I0
sg19
F1.7999999523162842
sg20
S'CB'
sS'b'
F0
sg21
I45
sg22
S''
sba(ichempy
Atom
(dp27
g6
S'PHE'
sg7
I49
sg8
F0.055199999362230301
sg9
I0
sg10
S''
sg11
S'3'
sg12
I3
sS'q'
F1
sg13
I0
sg14
(lp28
F7.6129999160766602
aF2.2290000915527344
aF-1.4359999895095825
asg16
S'C'
sg17
S'CA'
sg18
I0
sg19
F1.7999999523162842
sg20
S'CG'
sS'b'
F0
sg21
I46
sg22
S''
sba(ichempy
Atom
(dp29
g6
S'PHE'
sg7
I45
sg8
F-0.12999999523162842
sg9
I0
sg10
S''
sg11
S'3'
sg12
I3
sS'q'
F1
sg13
I0
sg14
(lp30
F6.4609999656677246
aF1.8179999589920044
aF-2.1170001029968262
asg16
S'C'
sg17
S'CA'
sg18
I0
sg19
F1.7999999523162842
sg20
S'CD1'
sS'b'
F0
sg21
I47
sg22
S''
sba(ichempy
Atom
(dp31
g6
S'PHE'
sg7
I46
sg8
F-0.12999999523162842
sg9
I0
sg10
S''
sg11
S'3'
sg12
I3
sS'q'
F1
sg13
I0
sg14
(lp32
F8.4569997787475586
aF1.2699999809265137
aF-0.87000000476837158
asg16
S'C'
sg17
S'CA'
sg18
I0
sg19
F1.7999999523162842
sg20
S'CD2'
sS'b'
F0
sg21
I48
sg22
S''
sba(ichempy
Atom
(dp33
g6
S'PHE'
sg7
I47
sg8
F-0.18469999730587006
sg9
I0
sg10
S''
sg11
S'3'
sg12
I3
sS'q'
F1
sg13
I0
sg14
(lp34
F6.1479997634887695
aF0.46700000762939453
aF-2.2139999866485596
asg16
S'C'
sg17
S'CA'
sg18
I0
sg19
F1.7999999523162842
sg20
S'CE1'
sS'b'
F0
sg21
I49
sg22
S''
sba(ichempy
Atom
(dp35
g6
S'PHE'
sg7
I48
sg8
F-0.18469999730587006
sg9
I0
sg10
S''
sg11
S'3'
sg12
I3
sS'q'
F1
sg13
I0
sg14
(lp36
F8.1470003128051758
aF-0.082999996840953827
aF-0.97699999809265137
asg16
S'C'
sg17
S'CA'
sg18
I0
sg19
F1.7999999523162842
sg20
S'CE2'
sS'b'
F0
sg21
I50
sg22
S''
sba(ichempy
Atom
(dp37
g6
S'PHE'
sg7
I50
sg8
F-0.094400003552436829
sg9
I0
sg10
S''
sg11
S'3'
sg12
I3
sS'q'
F1
sg13
I0
sg14
(lp38
F6.9920001029968262
aF-0.48399999737739563
aF-1.6460000276565552
asg16
S'C'
sg17
S'CA'
sg18
I0
sg19
F1.7999999523162842
sg20
S'CZ'
sS'b'
F0
sg21
I51
sg22
S''
sba(ichempy
Atom
(dp39
g6
S'PHE'
sg7
I62
sg8
F-0.80260002613067627
sg9
I0
sg10
S''
sg11
S'3'
sg12
I3
sS'q'
F1
sg13
I0
sg14
(lp40
F8.9110002517700195
aF6.119999885559082
aF0
asg16
S'O'
sg17
S'O2'
sg18
I0
sg19
F1.5
sg20
S'OXT'
sS'b'
F0
sg21
I52
sg22
S''
sba(ichempy
Atom
(dp41
g6
S'PHE'
sg7
I42
sg8
F0.76599997282028198
sg9
I0
sg10
S''
sg11
S'3'
sg12
I3
sS'q'
F1
sg13
I0
sg14
(lp42
F7.6659998893737793
aF5.869999885559082
aF0
asg16
S'C'
sg17
S'C'
sg18
I0
sg19
F1.7999999523162842
sg20
S'C'
sS'b'
F0
sg21
I53
sg22
S''
sba(ichempy
Atom
(dp43
g6
S'PHE'
sg7
I61
sg8
F-0.80260002613067627
sg9
I0
sg10
S''
sg11
S'3'
sg12
I3
sS'q'
F1
sg13
I0
sg14
(lp44
F6.7940001487731934
aF6.7940001487731934
aF0
asg16
S'O'
sg17
S'O2'
sg18
I0
sg19
F1.5
sg20
S'O'
sS'b'
F0
sg21
I54
sg22
S''
sba(ichempy
Atom
(dp45
g6
S'PHE'
sg7
I51
sg8
F0.14079999923706055
sg9
I0
sg10
S''
sg11
S'3'
sg12
I3
sS'q'
F1
sg13
I0
sg14
(lp46
F5.7849998474121094
aF2.5529999732971191
aF-2.5329999923706055
asg16
S'H'
sg17
S'HA'
sg18
I0
sg19
F1.1000000238418579
sg20
S'1HD'
sS'b'
F0
sg21
I55
sg22
S''
sba(ichempy
Atom
(dp47
g6
S'PHE'
sg7
I52
sg8
F0.1460999995470047
sg9
I0
sg10
S''
sg11
S'3'
sg12
I3
sS'q'
F1
sg13
I0
sg14
(lp48
F5.2399997711181641
aF0.16200000047683716
aF-2.7149999141693115
asg16
S'H'
sg17
S'HA'
sg18
I0
sg19
F1.1000000238418579
sg20
S'1HE'
sS'b'
F0
sg21
I56
sg22
S''
sba(ichempy
Atom
(dp49
g6
S'PHE'
sg7
I53
sg8
F0.044300001114606857
sg9
I0
sg10
S''
sg11
S'3'
sg12
I3
sS'q'
F1
sg13
I0
sg14
(lp50
F8.9960002899169922
aF3.878000020980835
aF-1.2619999647140503
asg16
S'H'
sg17
S'HC'
sg18
I0
sg19
F1.1000000238418579
sg20
S'2HB'
sS'b'
F0
sg21
I57
sg22
S''
sba(ichempy
Atom
(dp51
g6
S'PHE'
sg7
I54
sg8
F0.14079999923706055
sg9
I0
sg10
S''
sg11
S'3'
sg12
I3
sS'q'
F1
sg13
I0
sg14
(lp52
F9.3430004119873047
aF1.5740000009536743
aF-0.33100000023841858
asg16
S'H'
sg17
S'HA'
sg18
I0
sg19
F1.1000000238418579
sg20
S'2HD'
sS'b'
F0
sg21
I58
sg22
S''
sba(ichempy
Atom
(dp53
g6
S'PHE'
sg7
I55
sg8
F0.1460999995470047
sg9
I0
sg10
S''
sg11
S'3'
sg12
I3
sS'q'
F1
sg13
I0
sg14
(lp54
F8.7980003356933594
aF-0.82099997997283936
aF-0.53100001811981201
asg16
S'H'
sg17
S'HA'
sg18
I0
sg19
F1.1000000238418579
sg20
S'2HE'
sS'b'
F0
sg21
I59
sg22
S''
sba(ichempy
Atom
(dp55
g6
S'PHE'
sg7
I56
sg8
F0.044300001114606857
sg9
I0
sg10
S''
sg11
S'3'
sg12
I3
sS'q'
F1
sg13
I0
sg14
(lp56
F7.5630002021789551
aF4.2649998664855957
aF-2.1730000972747803
asg16
S'H'
sg17
S'HC'
sg18
I0
sg19
F1.1000000238418579
sg20
S'3HB'
sS'b'
F0
sg21
I60
sg22
S''
sba(ichempy
Atom
(dp57
g6
S'PHE'
sg7
I57
sg8
F0.26809999346733093
sg9
I0
sg10
S''
sg11
S'3'
sg12
I3
sS'q'
F1
sg13
I0
sg14
(lp58
F5.1630001068115234
aF5.0949997901916504
aF0
asg16
S'H'
sg17
S'H'
sg18
I0
sg19
F1.1000000238418579
sg20
S'H'
sS'b'
F0
sg21
I61
sg22
S''
sba(ichempy
Atom
(dp59
g6
S'PHE'
sg7
I58
sg8
F0.10980000346899033
sg9
I0
sg10
S''
sg11
S'3'
sg12
I3
sS'q'
F1
sg13
I0
sg14
(lp60
F7.6960000991821289
aF3.9470000267028809
aF0.91699999570846558
asg16
S'H'
sg17
S'H1'
sg18
I0
sg19
F1.1000000238418579
sg20
S'HA'
sS'b'
F0
sg21
I62
sg22
S''
sba(ichempy
Atom
(dp61
g6
S'PHE'
sg7
I59
sg8
F0.12800000607967377
sg9
I0
sg10
S''
sg11
S'3'
sg12
I3
sS'q'
F1
sg13
I0
sg14
(lp62
F6.7439999580383301
aF-1.531999945640564
aF-1.718000054359436
asg16
S'H'
sg17
S'HA'
sg18
I0
sg19
F1.1000000238418579
sg20
S'HZ'
sS'b'
F0
sg21
I63
sg22
S''
sbasS'molecule'
p63
(ichempy
Molecule
(dp64
bsg21
NsS'bond'
p65
(lp66
(ichempy
Bond
(dp67
S'order'
p68
I1
sg21
(lp69
I0
aI1
asba(ichempy
Bond
(dp70
g68
I1
sg21
(lp71
I0
aI18
asba(ichempy
Bond
(dp72
g68
I1
sg21
(lp73
I1
aI2
asba(ichempy
Bond
(dp74
g68
I1
sg21
(lp75
I1
aI10
asba(ichempy
Bond
(dp76
g68
I1
sg21
(lp77
I1
aI19
asba(ichempy
Bond
(dp78
g68
I1
sg21
(lp79
I3
aI2
asba(ichempy
Bond
(dp80
g68
I2
sg21
(lp81
I4
aI3
asba(ichempy
Bond
(dp82
g68
I1
sg21
(lp83
I5
aI3
asba(ichempy
Bond
(dp84
g68
I2
sg21
(lp85
I5
aI7
asba(ichempy
Bond
(dp86
g68
I1
sg21
(lp87
I6
aI4
asba(ichempy
Bond
(dp88
g68
I1
sg21
(lp89
I7
aI8
asba(ichempy
Bond
(dp90
g68
I2
sg21
(lp91
I8
aI6
asba(ichempy
Bond
(dp92
g68
I1
sg21
(lp93
I10
aI9
asba(ichempy
Bond
(dp94
g68
I2
sg21
(lp95
I10
aI11
asba(ichempy
Bond
(dp96
g68
I1
sg21
(lp97
I12
aI4
asba(ichempy
Bond
(dp98
g68
I1
sg21
(lp99
I13
aI6
asba(ichempy
Bond
(dp100
g68
I1
sg21
(lp101
I14
aI2
asba(ichempy
Bond
(dp102
g68
I1
sg21
(lp103
I15
aI5
asba(ichempy
Bond
(dp104
g68
I1
sg21
(lp105
I16
aI7
asba(ichempy
Bond
(dp106
g68
I1
sg21
(lp107
I17
aI2
asba(ichempy
Bond
(dp108
g68
I1
sg21
(lp109
I20
aI8
asbasb.