(ichempy.models
Indexed
p1
(dp2
S'atom'
p3
(lp4
(ichempy
Atom
(dp5
S'resn'
p6
S'PRO'
sS'id'
p7
I42
sS'partial_charge'
p8
F-0.28020000457763672
sS'formal_charge'
p9
I0
sS'segi'
p10
S''
sS'resi'
p11
S'3'
sS'resi_number'
p12
I3
sS'q'
F1
sS'hetatm'
p13
I0
sS'coord'
p14
(lp15
F2.3229999542236328
aF5.499000072479248
aF-3.1159999370574951
asS'symbol'
p16
S'N'
sS'text_type'
p17
S'N'
sS'flags'
p18
I0
sS'vdw'
p19
F1.7999999523162842
sS'name'
p20
S'N'
sS'b'
F0
sS'index'
p21
I31
sS'chain'
p22
S''
sba(ichempy
Atom
(dp23
g6
S'PRO'
sg7
I31
sg8
F-0.13359999656677246
sg9
I0
sg10
S''
sg11
S'3'
sg12
I3
sS'q'
F1
sg13
I0
sg14
(lp24
F2.2590000629425049
aF6.8610000610351562
aF-2.6080000400543213
asg16
S'C'
sg17
S'CT'
sg18
I0
sg19
F1.7999999523162842
sg20
S'CA'
sS'b'
F0
sg21
I32
sg22
S''
sba(ichempy
Atom
(dp25
g6
S'PRO'
sg7
I32
sg8
F-0.05429999902844429
sg9
I0
sg10
S''
sg11
S'3'
sg12
I3
sS'q'
F1
sg13
I0
sg14
(lp26
F3.124000072479248
aF7.6189999580383301
aF-3.625
asg16
S'C'
sg17
S'CT'
sg18
I0
sg19
F1.7999999523162842
sg20
S'CB'
sS'b'
F0
sg21
I33
sg22
S''
sba(ichempy
Atom
(dp27
g6
S'PRO'
sg7
I34
sg8
F0.046599999070167542
sg9
I0
sg10
S''
sg11
S'3'
sg12
I3
sS'q'
F1
sg13
I0
sg14
(lp28
F2.9440000057220459
aF6.8169999122619629
aF-4.9229998588562012
asg16
S'C'
sg17
S'CT'
sg18
I0
sg19
F1.7999999523162842
sg20
S'CG'
sS'b'
F0
sg21
I34
sg22
S''
sba(ichempy
Atom
(dp29
g6
S'PRO'
sg7
I33
sg8
F0.043400000780820847
sg9
I0
sg10
S''
sg11
S'3'
sg12
I3
sS'q'
F1
sg13
I0
sg14
(lp30
F2.8949999809265137
aF5.3670001029968262
aF-4.4380002021789551
asg16
S'C'
sg17
S'CT'
sg18
I0
sg19
F1.7999999523162842
sg20
S'CD'
sS'b'
F0
sg21
I35
sg22
S''
sba(ichempy
Atom
(dp31
g6
S'PRO'
sg7
I44
sg8
F-0.76969999074935913
sg9
I0
sg10
S''
sg11
S'3'
sg12
I3
sS'q'
F1
sg13
I0
sg14
(lp32
F0.57099997997283936
aF8.5500001907348633
aF-2.127000093460083
asg16
S'O'
sg17
S'O2'
sg18
I0
sg19
F1.5
sg20
S'OXT'
sS'b'
F0
sg21
I36
sg22
S''
sba(ichempy
Atom
(dp33
g6
S'PRO'
sg7
I30
sg8
F0.66310000419616699
sg9
I0
sg10
S''
sg11
S'3'
sg12
I3
sS'q'
F1
sg13
I0
sg14
(lp34
F0.81099998950958252
aF7.375999927520752
aF-2.5480000972747803
asg16
S'C'
sg17
S'C'
sg18
I0
sg19
F1.7999999523162842
sg20
S'C'
sS'b'
F0
sg21
I37
sg22
S''
sba(ichempy
Atom
(dp35
g6
S'PRO'
sg7
I43
sg8
F-0.76969999074935913
sg9
I0
sg10
S''
sg11
S'3'
sg12
I3
sS'q'
F1
sg13
I0
sg14
(lp36
F-0.15199999511241913
aF6.6310000419616699
aF-2.9089999198913574
asg16
S'O'
sg17
S'O2'
sg18
I0
sg19
F1.5
sg20
S'O'
sS'b'
F0
sg21
I38
sg22
S''
sba(ichempy
Atom
(dp37
g6
S'PRO'
sg7
I35
sg8
F0.038100000470876694
sg9
I0
sg10
S''
sg11
S'3'
sg12
I3
sS'q'
F1
sg13
I0
sg14
(lp38
F4.1700000762939453
aF7.565000057220459
aF-3.312000036239624
asg16
S'H'
sg17
S'HC'
sg18
I0
sg19
F1.1000000238418579
sg20
S'2HB'
sS'b'
F0
sg21
I39
sg22
S''
sba(ichempy
Atom
(dp39
g6
S'PRO'
sg7
I36
sg8
F0.033100001513957977
sg9
I0
sg10
S''
sg11
S'3'
sg12
I3
sS'q'
F1
sg13
I0
sg14
(lp40
F3.9000000953674316
aF4.945000171661377
aF-4.3610000610351562
asg16
S'H'
sg17
S'H1'
sg18
I0
sg19
F1.1000000238418579
sg20
S'2HD'
sS'b'
F0
sg21
I40
sg22
S''
sba(ichempy
Atom
(dp41
g6
S'PRO'
sg7
I37
sg8
F0.017200000584125519
sg9
I0
sg10
S''
sg11
S'3'
sg12
I3
sS'q'
F1
sg13
I0
sg14
(lp42
F3.753000020980835
aF6.9869999885559082
aF-5.6360001564025879
asg16
S'H'
sg17
S'HC'
sg18
I0
sg19
F1.1000000238418579
sg20
S'2HG'
sS'b'
F0
sg21
I41
sg22
S''
sba(ichempy
Atom
(dp43
g6
S'PRO'
sg7
I38
sg8
F0.038100000470876694
sg9
I0
sg10
S''
sg11
S'3'
sg12
I3
sS'q'
F1
sg13
I0
sg14
(lp44
F2.8369998931884766
aF8.6680002212524414
aF-3.7309999465942383
asg16
S'H'
sg17
S'HC'
sg18
I0
sg19
F1.1000000238418579
sg20
S'3HB'
sS'b'
F0
sg21
I42
sg22
S''
sba(ichempy
Atom
(dp45
g6
S'PRO'
sg7
I39
sg8
F0.033100001513957977
sg9
I0
sg10
S''
sg11
S'3'
sg12
I3
sS'q'
F1
sg13
I0
sg14
(lp46
F2.2690000534057617
aF4.7389998435974121
aF-5.0760002136230469
asg16
S'H'
sg17
S'H1'
sg18
I0
sg19
F1.1000000238418579
sg20
S'3HD'
sS'b'
F0
sg21
I43
sg22
S''
sba(ichempy
Atom
(dp47
g6
S'PRO'
sg7
I40
sg8
F0.017200000584125519
sg9
I0
sg10
S''
sg11
S'3'
sg12
I3
sS'q'
F1
sg13
I0
sg14
(lp48
F1.9889999628067017
aF7.0789999961853027
aF-5.3850002288818359
asg16
S'H'
sg17
S'HC'
sg18
I0
sg19
F1.1000000238418579
sg20
S'3HG'
sS'b'
F0
sg21
I44
sg22
S''
sba(ichempy
Atom
(dp49
g6
S'PRO'
sg7
I41
sg8
F0.077600002288818359
sg9
I0
sg10
S''
sg11
S'3'
sg12
I3
sS'q'
F1
sg13
I0
sg14
(lp50
F2.6930000782012939
aF6.9169998168945312
aF-1.6069999933242798
asg16
S'H'
sg17
S'H1'
sg18
I0
sg19
F1.1000000238418579
sg20
S'HA'
sS'b'
F0
sg21
I45
sg22
S''
sbasS'molecule'
p51
(ichempy
Molecule
(dp52
bsg21
NsS'bond'
p53
(lp54
(ichempy
Bond
(dp55
S'order'
p56
I1
sg21
(lp57
I0
aI1
asba(ichempy
Bond
(dp58
g56
I1
sg21
(lp59
I0
aI4
asba(ichempy
Bond
(dp60
g56
I1
sg21
(lp61
I1
aI2
asba(ichempy
Bond
(dp62
g56
I1
sg21
(lp63
I1
aI6
asba(ichempy
Bond
(dp64
g56
I1
sg21
(lp65
I1
aI14
asba(ichempy
Bond
(dp66
g56
I1
sg21
(lp67
I2
aI3
asba(ichempy
Bond
(dp68
g56
I1
sg21
(lp69
I3
aI4
asba(ichempy
Bond
(dp70
g56
I1
sg21
(lp71
I6
aI5
asba(ichempy
Bond
(dp72
g56
I2
sg21
(lp73
I6
aI7
asba(ichempy
Bond
(dp74
g56
I1
sg21
(lp75
I8
aI2
asba(ichempy
Bond
(dp76
g56
I1
sg21
(lp77
I9
aI4
asba(ichempy
Bond
(dp78
g56
I1
sg21
(lp79
I10
aI3
asba(ichempy
Bond
(dp80
g56
I1
sg21
(lp81
I11
aI2
asba(ichempy
Bond
(dp82
g56
I1
sg21
(lp83
I12
aI4
asba(ichempy
Bond
(dp84
g56
I1
sg21
(lp85
I13
aI3
asbasb.