(ichempy.models
Indexed
p1
(dp2
S'atom'
p3
(lp4
(ichempy
Atom
(dp5
S'resn'
p6
S'TRP'
sS'id'
p7
I71
sS'partial_charge'
p8
F-0.38209998607635498
sS'formal_charge'
p9
I0
sS'segi'
p10
S''
sS'resi'
p11
S'3'
sS'resi_number'
p12
I3
sS'q'
F1
sS'hetatm'
p13
I0
sS'coord'
p14
(lp15
F6.2579998970031738
aF12.352999687194824
aF0.098999999463558197
asS'symbol'
p16
S'N'
sS'text_type'
p17
S'N'
sS'flags'
p18
I0
sS'vdw'
p19
F1.7999999523162842
sS'name'
p20
S'N'
sS'b'
F0
sS'index'
p21
I51
sS'chain'
p22
S''
sba(ichempy
Atom
(dp23
g6
S'TRP'
sg7
I51
sg8
F-0.20839999616146088
sg9
I0
sg10
S''
sg11
S'3'
sg12
I3
sS'q'
F1
sg13
I0
sg14
(lp24
F7.7140002250671387
aF12.46399974822998
aF0.097000002861022949
asg16
S'C'
sg17
S'CT'
sg18
I0
sg19
F1.7999999523162842
sg20
S'CA'
sS'b'
F0
sg21
I52
sg22
S''
sba(ichempy
Atom
(dp25
g6
S'TRP'
sg7
I52
sg8
F-0.074199996888637543
sg9
I0
sg10
S''
sg11
S'3'
sg12
I3
sS'q'
F1
sg13
I0
sg14
(lp26
F8.2779998779296875
aF11.718999862670898
aF-1.1440000534057617
asg16
S'C'
sg17
S'CT'
sg18
I0
sg19
F1.7999999523162842
sg20
S'CB'
sS'b'
F0
sg21
I53
sg22
S''
sba(ichempy
Atom
(dp27
g6
S'TRP'
sg7
I57
sg8
F-0.079599998891353607
sg9
I0
sg10
S''
sg11
S'3'
sg12
I3
sS'q'
F1
sg13
I0
sg14
(lp28
F8.0699996948242188
aF10.201000213623047
aF-1.1319999694824219
asg16
S'C'
sg17
S'C*'
sg18
I0
sg19
F1.7999999523162842
sg20
S'CG'
sS'b'
F0
sg21
I54
sg22
S''
sba(ichempy
Atom
(dp29
g6
S'TRP'
sg7
I53
sg8
F-0.18080000579357147
sg9
I0
sg10
S''
sg11
S'3'
sg12
I3
sS'q'
F1
sg13
I0
sg14
(lp30
F7.0229997634887695
aF9.5100002288818359
aF-1.7769999504089355
asg16
S'C'
sg17
S'CW'
sg18
I0
sg19
F1.7999999523162842
sg20
S'CD1'
sS'b'
F0
sg21
I55
sg22
S''
sba(ichempy
Atom
(dp31
g6
S'TRP'
sg7
I54
sg8
F0.10779999941587448
sg9
I0
sg10
S''
sg11
S'3'
sg12
I3
sS'q'
F1
sg13
I0
sg14
(lp32
F8.7819995880126953
aF9.2469997406005859
aF-0.43700000643730164
asg16
S'C'
sg17
S'CB'
sg18
I0
sg19
F1.7999999523162842
sg20
S'CD2'
sS'b'
F0
sg21
I56
sg22
S''
sba(ichempy
Atom
(dp33
g6
S'TRP'
sg7
I55
sg8
F0.12219999730587006
sg9
I0
sg10
S''
sg11
S'3'
sg12
I3
sS'q'
F1
sg13
I0
sg14
(lp34
F8.1660003662109375
aF7.9910001754760742
aF-0.66900002956390381
asg16
S'C'
sg17
S'CN'
sg18
I0
sg19
F1.7999999523162842
sg20
S'CE2'
sS'b'
F0
sg21
I57
sg22
S''
sba(ichempy
Atom
(dp35
g6
S'TRP'
sg7
I56
sg8
F-0.18369999527931213
sg9
I0
sg10
S''
sg11
S'3'
sg12
I3
sS'q'
F1
sg13
I0
sg14
(lp36
F9.9119997024536133
aF9.3500003814697266
aF0.414000004529953
asg16
S'C'
sg17
S'CA'
sg18
I0
sg19
F1.7999999523162842
sg20
S'CE3'
sS'b'
F0
sg21
I58
sg22
S''
sba(ichempy
Atom
(dp37
g6
S'TRP'
sg7
I72
sg8
F-0.33160001039505005
sg9
I0
sg10
S''
sg11
S'3'
sg12
I3
sS'q'
F1
sg13
I0
sg14
(lp38
F7.0679998397827148
aF8.1289997100830078
aF-1.503000020980835
asg16
S'N'
sg17
S'NA'
sg18
I0
sg19
F1.7999999523162842
sg20
S'NE1'
sS'b'
F0
sg21
I59
sg22
S''
sba(ichempy
Atom
(dp39
g6
S'TRP'
sg7
I59
sg8
F-0.25940001010894775
sg9
I0
sg10
S''
sg11
S'3'
sg12
I3
sS'q'
F1
sg13
I0
sg14
(lp40
F8.6850004196166992
aF6.8280000686645508
aF-0.059999998658895493
asg16
S'C'
sg17
S'CA'
sg18
I0
sg19
F1.7999999523162842
sg20
S'CZ2'
sS'b'
F0
sg21
I60
sg22
S''
sba(ichempy
Atom
(dp41
g6
S'TRP'
sg7
I60
sg8
F-0.22869999706745148
sg9
I0
sg10
S''
sg11
S'3'
sg12
I3
sS'q'
F1
sg13
I0
sg14
(lp42
F10.41100025177002
aF8.185999870300293
aF0.99900001287460327
asg16
S'C'
sg17
S'CA'
sg18
I0
sg19
F1.7999999523162842
sg20
S'CZ3'
sS'b'
F0
sg21
I61
sg22
S''
sba(ichempy
Atom
(dp43
g6
S'TRP'
sg7
I58
sg8
F-0.10199999809265137
sg9
I0
sg10
S''
sg11
S'3'
sg12
I3
sS'q'
F1
sg13
I0
sg14
(lp44
F9.8079996109008789
aF6.9419999122619629
aF0.76399999856948853
asg16
S'C'
sg17
S'CA'
sg18
I0
sg19
F1.7999999523162842
sg20
S'CH2'
sS'b'
F0
sg21
I62
sg22
S''
sba(ichempy
Atom
(dp45
g6
S'TRP'
sg7
I74
sg8
F-0.80110001564025879
sg9
I0
sg10
S''
sg11
S'3'
sg12
I3
sS'q'
F1
sg13
I0
sg14
(lp46
F9.3999996185302734
aF14.116000175476074
aF0.061999998986721039
asg16
S'O'
sg17
S'O2'
sg18
I0
sg19
F1.5
sg20
S'OXT'
sS'b'
F0
sg21
I63
sg22
S''
sba(ichempy
Atom
(dp47
g6
S'TRP'
sg7
I50
sg8
F0.76579999923706055
sg9
I0
sg10
S''
sg11
S'3'
sg12
I3
sS'q'
F1
sg13
I0
sg14
(lp48
F8.1470003128051758
aF13.909999847412109
aF0.065999999642372131
asg16
S'C'
sg17
S'C'
sg18
I0
sg19
F1.7999999523162842
sg20
S'C'
sS'b'
F0
sg21
I64
sg22
S''
sba(ichempy
Atom
(dp49
g6
S'TRP'
sg7
I73
sg8
F-0.80110001564025879
sg9
I0
sg10
S''
sg11
S'3'
sg12
I3
sS'q'
F1
sg13
I0
sg14
(lp50
F7.3080000877380371
aF14.86299991607666
aF0.046000000089406967
asg16
S'O'
sg17
S'O2'
sg18
I0
sg19
F1.5
sg20
S'O'
sS'b'
F0
sg21
I65
sg22
S''
sba(ichempy
Atom
(dp51
g6
S'TRP'
sg7
I61
sg8
F0.20430000126361847
sg9
I0
sg10
S''
sg11
S'3'
sg12
I3
sS'q'
F1
sg13
I0
sg14
(lp52
F6.2560000419616699
aF9.9930000305175781
aF-2.3670001029968262
asg16
S'H'
sg17
S'H4'
sg18
I0
sg19
F1.1000000238418579
sg20
S'1HD'
sS'b'
F0
sg21
I66
sg22
S''
sba(ichempy
Atom
(dp53
g6
S'TRP'
sg7
I62
sg8
F0.34130001068115234
sg9
I0
sg10
S''
sg11
S'3'
sg12
I3
sS'q'
F1
sg13
I0
sg14
(lp54
F6.4130001068115234
aF7.4000000953674316
aF-1.8070000410079956
asg16
S'H'
sg17
S'H'
sg18
I0
sg19
F1.1000000238418579
sg20
S'1HE'
sS'b'
F0
sg21
I67
sg22
S''
sba(ichempy
Atom
(dp55
g6
S'TRP'
sg7
I63
sg8
F0.049699999392032623
sg9
I0
sg10
S''
sg11
S'3'
sg12
I3
sS'q'
F1
sg13
I0
sg14
(lp56
F9.3649997711181641
aF11.906000137329102
aF-1.2419999837875366
asg16
S'H'
sg17
S'HC'
sg18
I0
sg19
F1.1000000238418579
sg20
S'2HB'
sS'b'
F0
sg21
I68
sg22
S''
sba(ichempy
Atom
(dp57
g6
S'TRP'
sg7
I64
sg8
F0.14010000228881836
sg9
I0
sg10
S''
sg11
S'3'
sg12
I3
sS'q'
F1
sg13
I0
sg14
(lp58
F10.218999862670898
aF6.0570001602172852
aF1.2269999980926514
asg16
S'H'
sg17
S'HA'
sg18
I0
sg19
F1.1000000238418579
sg20
S'2HH'
sS'b'
F0
sg21
I69
sg22
S''
sba(ichempy
Atom
(dp59
g6
S'TRP'
sg7
I65
sg8
F0.15670000016689301
sg9
I0
sg10
S''
sg11
S'3'
sg12
I3
sS'q'
F1
sg13
I0
sg14
(lp60
F8.2189998626708984
aF5.8689999580383301
aF-0.23299999535083771
asg16
S'H'
sg17
S'HA'
sg18
I0
sg19
F1.1000000238418579
sg20
S'2HZ'
sS'b'
F0
sg21
I70
sg22
S''
sba(ichempy
Atom
(dp61
g6
S'TRP'
sg7
I66
sg8
F0.049699999392032623
sg9
I0
sg10
S''
sg11
S'3'
sg12
I3
sS'q'
F1
sg13
I0
sg14
(lp62
F7.8439998626708984
aF12.142000198364258
aF-2.0729999542236328
asg16
S'H'
sg17
S'HC'
sg18
I0
sg19
F1.1000000238418579
sg20
S'3HB'
sS'b'
F0
sg21
I71
sg22
S''
sba(ichempy
Atom
(dp63
g6
S'TRP'
sg7
I67
sg8
F0.14910000562667847
sg9
I0
sg10
S''
sg11
S'3'
sg12
I3
sS'q'
F1
sg13
I0
sg14
(lp64
F10.378000259399414
aF10.307000160217285
aF0.60699999332427979
asg16
S'H'
sg17
S'HA'
sg18
I0
sg19
F1.1000000238418579
sg20
S'3HE'
sS'b'
F0
sg21
I72
sg22
S''
sba(ichempy
Atom
(dp65
g6
S'TRP'
sg7
I68
sg8
F0.15070000290870667
sg9
I0
sg10
S''
sg11
S'3'
sg12
I3
sS'q'
F1
sg13
I0
sg14
(lp66
F11.276000022888184
aF8.2460002899169922
aF1.6430000066757202
asg16
S'H'
sg17
S'HA'
sg18
I0
sg19
F1.1000000238418579
sg20
S'3HZ'
sS'b'
F0
sg21
I73
sg22
S''
sba(ichempy
Atom
(dp67
g6
S'TRP'
sg7
I69
sg8
F0.26809999346733093
sg9
I0
sg10
S''
sg11
S'3'
sg12
I3
sS'q'
F1
sg13
I0
sg14
(lp68
F5.6659998893737793
aF13.157999992370605
aF0.082000002264976501
asg16
S'H'
sg17
S'H'
sg18
I0
sg19
F1.1000000238418579
sg20
S'H'
sS'b'
F0
sg21
I74
sg22
S''
sba(ichempy
Atom
(dp69
g6
S'TRP'
sg7
I70
sg8
F0.12720000743865967
sg9
I0
sg10
S''
sg11
S'3'
sg12
I3
sS'q'
F1
sg13
I0
sg14
(lp70
F8.1129999160766602
aF12.015000343322754
aF1.0269999504089355
asg16
S'H'
sg17
S'H1'
sg18
I0
sg19
F1.1000000238418579
sg20
S'HA'
sS'b'
F0
sg21
I75
sg22
S''
sbasS'molecule'
p71
(ichempy
Molecule
(dp72
bsg21
NsS'bond'
p73
(lp74
(ichempy
Bond
(dp75
S'order'
p76
I1
sg21
(lp77
I0
aI1
asba(ichempy
Bond
(dp78
g76
I1
sg21
(lp79
I0
aI23
asba(ichempy
Bond
(dp80
g76
I1
sg21
(lp81
I1
aI2
asba(ichempy
Bond
(dp82
g76
I1
sg21
(lp83
I1
aI13
asba(ichempy
Bond
(dp84
g76
I1
sg21
(lp85
I1
aI24
asba(ichempy
Bond
(dp86
g76
I1
sg21
(lp87
I3
aI2
asba(ichempy
Bond
(dp88
g76
I1
sg21
(lp89
I3
aI5
asba(ichempy
Bond
(dp90
g76
I2
sg21
(lp91
I4
aI3
asba(ichempy
Bond
(dp92
g76
I1
sg21
(lp93
I5
aI7
asba(ichempy
Bond
(dp94
g76
I2
sg21
(lp95
I6
aI5
asba(ichempy
Bond
(dp96
g76
I1
sg21
(lp97
I6
aI8
asba(ichempy
Bond
(dp98
g76
I2
sg21
(lp99
I7
aI10
asba(ichempy
Bond
(dp100
g76
I1
sg21
(lp101
I8
aI4
asba(ichempy
Bond
(dp102
g76
I1
sg21
(lp103
I9
aI6
asba(ichempy
Bond
(dp104
g76
I1
sg21
(lp105
I10
aI11
asba(ichempy
Bond
(dp106
g76
I2
sg21
(lp107
I11
aI9
asba(ichempy
Bond
(dp108
g76
I1
sg21
(lp109
I13
aI12
asba(ichempy
Bond
(dp110
g76
I2
sg21
(lp111
I13
aI14
asba(ichempy
Bond
(dp112
g76
I1
sg21
(lp113
I15
aI4
asba(ichempy
Bond
(dp114
g76
I1
sg21
(lp115
I16
aI8
asba(ichempy
Bond
(dp116
g76
I1
sg21
(lp117
I17
aI2
asba(ichempy
Bond
(dp118
g76
I1
sg21
(lp119
I18
aI11
asba(ichempy
Bond
(dp120
g76
I1
sg21
(lp121
I19
aI9
asba(ichempy
Bond
(dp122
g76
I1
sg21
(lp123
I20
aI2
asba(ichempy
Bond
(dp124
g76
I1
sg21
(lp125
I21
aI7
asba(ichempy
Bond
(dp126
g76
I1
sg21
(lp127
I22
aI10
asbasb.