(ichempy.models
Indexed
p1
(dp2
S'atom'
p3
(lp4
(ichempy
Atom
(dp5
S'resn'
p6
S'CYS'
sS'id'
p7
I21
sS'partial_charge'
p8
F-0.41569998860359192
sS'formal_charge'
p9
I0
sS'segi'
p10
S''
sS'resi'
p11
S'2'
sS'resi_number'
p12
I2
sS'q'
F1
sS'hetatm'
p13
I0
sS'coord'
p14
(lp15
F3.2880001068115234
aF1.6369999647140503
aF0
asS'symbol'
p16
S'N'
sS'text_type'
p17
S'N'
sS'flags'
p18
I0
sS'vdw'
p19
F1.7999999523162842
sS'name'
p20
S'N'
sS'b'
F0
sS'index'
p21
I14
sS'chain'
p22
S''
sba(ichempy
Atom
(dp23
g6
S'CYS'
sg7
I14
sg8
F0.021299999207258224
sg9
I0
sg10
S''
sg11
S'2'
sg12
I2
sS'q'
F1
sg13
I0
sg14
(lp24
F3.8469998836517334
aF2.9860000610351562
aF0
asg16
S'C'
sg17
S'CT'
sg18
I0
sg19
F1.7999999523162842
sg20
S'CA'
sS'b'
F0
sg21
I15
sg22
S''
sba(ichempy
Atom
(dp25
g6
S'CYS'
sg7
I15
sg8
F-0.12309999763965607
sg9
I0
sg10
S''
sg11
S'2'
sg12
I2
sS'q'
F1
sg13
I0
sg14
(lp26
F3.2780001163482666
aF3.752000093460083
aF1.2100000381469727
asg16
S'C'
sg17
S'CT'
sg18
I0
sg19
F1.7999999523162842
sg20
S'CB'
sS'b'
F0
sg21
I16
sg22
S''
sba(ichempy
Atom
(dp27
g6
S'CYS'
sg7
I23
sg8
F-0.31189998984336853
sg9
I0
sg10
S''
sg11
S'2'
sg12
I2
sS'q'
F1
sg13
I0
sg14
(lp28
F3.7890000343322754
aF5.4850001335144043
aF1.1679999828338623
asg16
S'S'
sg17
S'SH'
sg18
I0
sg19
F1.8999999761581421
sg20
S'SG'
sS'b'
F0
sg21
I17
sg22
S''
sba(ichempy
Atom
(dp29
g6
S'CYS'
sg7
I13
sg8
F0.59729999303817749
sg9
I0
sg10
S''
sg11
S'2'
sg12
I2
sS'q'
F1
sg13
I0
sg14
(lp30
F5.3569998741149902
aF2.9460000991821289
aF0
asg16
S'C'
sg17
S'C'
sg18
I0
sg19
F1.7999999523162842
sg20
S'C'
sS'b'
F0
sg21
I18
sg22
S''
sba(ichempy
Atom
(dp31
g6
S'CYS'
sg7
I22
sg8
F-0.56790000200271606
sg9
I0
sg10
S''
sg11
S'2'
sg12
I2
sS'q'
F1
sg13
I0
sg14
(lp32
F5.9860000610351562
aF1.878000020980835
aF0
asg16
S'O'
sg17
S'O'
sg18
I0
sg19
F1.5
sg20
S'O'
sS'b'
F0
sg21
I19
sg22
S''
sba(ichempy
Atom
(dp33
g6
S'CYS'
sg7
I16
sg8
F0.1111999973654747
sg9
I0
sg10
S''
sg11
S'2'
sg12
I2
sS'q'
F1
sg13
I0
sg14
(lp34
F3.6029999256134033
aF3.2969999313354492
aF2.1679999828338623
asg16
S'H'
sg17
S'H1'
sg18
I0
sg19
F1.1000000238418579
sg20
S'2HB'
sS'b'
F0
sg21
I20
sg22
S''
sba(ichempy
Atom
(dp35
g6
S'CYS'
sg7
I17
sg8
F0.1111999973654747
sg9
I0
sg10
S''
sg11
S'2'
sg12
I2
sS'q'
F1
sg13
I0
sg14
(lp36
F2.1740000247955322
aF3.7239999771118164
aF1.218000054359436
asg16
S'H'
sg17
S'H1'
sg18
I0
sg19
F1.1000000238418579
sg20
S'3HB'
sS'b'
F0
sg21
I21
sg22
S''
sba(ichempy
Atom
(dp37
g6
S'CYS'
sg7
I18
sg8
F0.2718999981880188
sg9
I0
sg10
S''
sg11
S'2'
sg12
I2
sS'q'
F1
sg13
I0
sg14
(lp38
F3.9159998893737793
aF0.75800001621246338
aF0
asg16
S'H'
sg17
S'H'
sg18
I0
sg19
F1.1000000238418579
sg20
S'H'
sS'b'
F0
sg21
I22
sg22
S''
sba(ichempy
Atom
(dp39
g6
S'CYS'
sg7
I19
sg8
F0.11240000277757645
sg9
I0
sg10
S''
sg11
S'2'
sg12
I2
sS'q'
F1
sg13
I0
sg14
(lp40
F3.5320000648498535
aF3.4920001029968262
aF-0.9309999942779541
asg16
S'H'
sg17
S'H1'
sg18
I0
sg19
F1.1000000238418579
sg20
S'HA'
sS'b'
F0
sg21
I23
sg22
S''
sba(ichempy
Atom
(dp41
g6
S'CYS'
sg7
I20
sg8
F0.19329999387264252
sg9
I0
sg10
S''
sg11
S'2'
sg12
I2
sS'q'
F1
sg13
I0
sg14
(lp42
F4.7010002136230469
aF5.4060001373291016
aF2.1340000629425049
asg16
S'H'
sg17
S'HS'
sg18
I0
sg19
F1.1000000238418579
sg20
S'HG'
sS'b'
F0
sg21
I24
sg22
S''
sbasS'molecule'
p43
(ichempy
Molecule
(dp44
bsg21
NsS'bond'
p45
(lp46
(ichempy
Bond
(dp47
S'order'
p48
I1
sg21
(lp49
I0
aI1
asba(ichempy
Bond
(dp50
g48
I1
sg21
(lp51
I0
aI8
asba(ichempy
Bond
(dp52
g48
I1
sg21
(lp53
I1
aI2
asba(ichempy
Bond
(dp54
g48
I1
sg21
(lp55
I1
aI4
asba(ichempy
Bond
(dp56
g48
I1
sg21
(lp57
I1
aI9
asba(ichempy
Bond
(dp58
g48
I1
sg21
(lp59
I3
aI2
asba(ichempy
Bond
(dp60
g48
I2
sg21
(lp61
I4
aI5
asba(ichempy
Bond
(dp62
g48
I1
sg21
(lp63
I6
aI2
asba(ichempy
Bond
(dp64
g48
I1
sg21
(lp65
I7
aI2
asba(ichempy
Bond
(dp66
g48
I1
sg21
(lp67
I10
aI3
asbasb.