(ichempy.models
Indexed
p1
(dp2
S'atom'
p3
(lp4
(ichempy
Atom
(dp5
S'resn'
p6
S'ILE'
sS'id'
p7
I38
sS'partial_charge'
p8
F-0.41569998860359192
sS'formal_charge'
p9
I0
sS'segi'
p10
S''
sS'resi'
p11
S'2'
sS'resi_number'
p12
I2
sS'q'
F1
sS'hetatm'
p13
I0
sS'coord'
p14
(lp15
F3.2190001010894775
aF1.7059999704360962
aF0
asS'symbol'
p16
S'N'
sS'text_type'
p17
S'N'
sS'flags'
p18
I0
sS'vdw'
p19
F1.7999999523162842
sS'name'
p20
S'N'
sS'b'
F0
sS'index'
p21
I22
sS'chain'
p22
S''
sba(ichempy
Atom
(dp23
g6
S'ILE'
sg7
I22
sg8
F-0.059700001031160355
sg9
I0
sg10
S''
sg11
S'2'
sg12
I2
sS'q'
F1
sg13
I0
sg14
(lp24
F3.7160000801086426
aF3.0789999961853027
aF0
asg16
S'C'
sg17
S'CT'
sg18
I0
sg19
F1.7999999523162842
sg20
S'CA'
sS'b'
F0
sg21
I23
sg22
S''
sba(ichempy
Atom
(dp25
g6
S'ILE'
sg7
I23
sg8
F0.13030000030994415
sg9
I0
sg10
S''
sg11
S'2'
sg12
I2
sS'q'
F1
sg13
I0
sg14
(lp26
F3.1110000610351562
aF3.9110000133514404
aF1.2029999494552612
asg16
S'C'
sg17
S'CT'
sg18
I0
sg19
F1.7999999523162842
sg20
S'CB'
sS'b'
F0
sg21
I24
sg22
S''
sba(ichempy
Atom
(dp27
g6
S'ILE'
sg7
I25
sg8
F-0.043000001460313797
sg9
I0
sg10
S''
sg11
S'2'
sg12
I2
sS'q'
F1
sg13
I0
sg14
(lp28
F1.5529999732971191
aF3.8629999160766602
aF1.309999942779541
asg16
S'C'
sg17
S'CT'
sg18
I0
sg19
F1.7999999523162842
sg20
S'CG1'
sS'b'
F0
sg21
I25
sg22
S''
sba(ichempy
Atom
(dp29
g6
S'ILE'
sg7
I26
sg8
F-0.32039999961853027
sg9
I0
sg10
S''
sg11
S'2'
sg12
I2
sS'q'
F1
sg13
I0
sg14
(lp30
F3.5499999523162842
aF5.4079999923706055
aF1.184999942779541
asg16
S'C'
sg17
S'CT'
sg18
I0
sg19
F1.7999999523162842
sg20
S'CG2'
sS'b'
F0
sg21
I26
sg22
S''
sba(ichempy
Atom
(dp31
g6
S'ILE'
sg7
I24
sg8
F-0.065999999642372131
sg9
I0
sg10
S''
sg11
S'2'
sg12
I2
sS'q'
F1
sg13
I0
sg14
(lp32
F0.95300000905990601
aF4.3829998970031738
aF2.6329998970031738
asg16
S'C'
sg17
S'CT'
sg18
I0
sg19
F1.7999999523162842
sg20
S'CD1'
sS'b'
F0
sg21
I27
sg22
S''
sba(ichempy
Atom
(dp33
g6
S'ILE'
sg7
I21
sg8
F0.59729999303817749
sg9
I0
sg10
S''
sg11
S'2'
sg12
I2
sS'q'
F1
sg13
I0
sg14
(lp34
F5.2249999046325684
aF3.1080000400543213
aF0
asg16
S'C'
sg17
S'C'
sg18
I0
sg19
F1.7999999523162842
sg20
S'C'
sS'b'
F0
sg21
I28
sg22
S''
sba(ichempy
Atom
(dp35
g6
S'ILE'
sg7
I39
sg8
F-0.56790000200271606
sg9
I0
sg10
S''
sg11
S'2'
sg12
I2
sS'q'
F1
sg13
I0
sg14
(lp36
F5.9019999504089355
aF2.0690000057220459
aF0
asg16
S'O'
sg17
S'O'
sg18
I0
sg19
F1.5
sg20
S'O'
sS'b'
F0
sg21
I29
sg22
S''
sba(ichempy
Atom
(dp37
g6
S'ILE'
sg7
I27
sg8
F0.018600000068545341
sg9
I0
sg10
S''
sg11
S'2'
sg12
I2
sS'q'
F1
sg13
I0
sg14
(lp38
F1.3639999628067017
aF3.8459999561309814
aF3.5090000629425049
asg16
S'H'
sg17
S'HC'
sg18
I0
sg19
F1.1000000238418579
sg20
S'1HD1'
sS'b'
F0
sg21
I30
sg22
S''
sba(ichempy
Atom
(dp39
g6
S'ILE'
sg7
I28
sg8
F0.088200002908706665
sg9
I0
sg10
S''
sg11
S'2'
sg12
I2
sS'q'
F1
sg13
I0
sg14
(lp40
F4.6449999809265137
aF5.5409998893737793
aF1.2289999723434448
asg16
S'H'
sg17
S'HC'
sg18
I0
sg19
F1.1000000238418579
sg20
S'1HG2'
sS'b'
F0
sg21
I31
sg22
S''
sba(ichempy
Atom
(dp41
g6
S'ILE'
sg7
I29
sg8
F0.018600000068545341
sg9
I0
sg10
S''
sg11
S'2'
sg12
I2
sS'q'
F1
sg13
I0
sg14
(lp42
F1.1390000581741333
aF5.4609999656677246
aF2.7880001068115234
asg16
S'H'
sg17
S'HC'
sg18
I0
sg19
F1.1000000238418579
sg20
S'2HD1'
sS'b'
F0
sg21
I32
sg22
S''
sba(ichempy
Atom
(dp43
g6
S'ILE'
sg7
I30
sg8
F0.023600000888109207
sg9
I0
sg10
S''
sg11
S'2'
sg12
I2
sS'q'
F1
sg13
I0
sg14
(lp44
F1.2070000171661377
aF2.8169999122619629
aF1.2120000123977661
asg16
S'H'
sg17
S'HC'
sg18
I0
sg19
F1.1000000238418579
sg20
S'2HG1'
sS'b'
F0
sg21
I33
sg22
S''
sba(ichempy
Atom
(dp45
g6
S'ILE'
sg7
I31
sg8
F0.088200002908706665
sg9
I0
sg10
S''
sg11
S'2'
sg12
I2
sS'q'
F1
sg13
I0
sg14
(lp46
F3.1909999847412109
aF5.935999870300293
aF0.28099998831748962
asg16
S'H'
sg17
S'HC'
sg18
I0
sg19
F1.1000000238418579
sg20
S'2HG2'
sS'b'
F0
sg21
I34
sg22
S''
sba(ichempy
Atom
(dp47
g6
S'ILE'
sg7
I32
sg8
F0.018600000068545341
sg9
I0
sg10
S''
sg11
S'2'
sg12
I2
sS'q'
F1
sg13
I0
sg14
(lp48
F-0.14399999380111694
aF4.245999813079834
aF2.6549999713897705
asg16
S'H'
sg17
S'HC'
sg18
I0
sg19
F1.1000000238418579
sg20
S'3HD1'
sS'b'
F0
sg21
I35
sg22
S''
sba(ichempy
Atom
(dp49
g6
S'ILE'
sg7
I33
sg8
F0.023600000888109207
sg9
I0
sg10
S''
sg11
S'2'
sg12
I2
sS'q'
F1
sg13
I0
sg14
(lp50
F1.093000054359436
aF4.3880000114440918
aF0.44999998807907104
asg16
S'H'
sg17
S'HC'
sg18
I0
sg19
F1.1000000238418579
sg20
S'3HG1'
sS'b'
F0
sg21
I36
sg22
S''
sba(ichempy
Atom
(dp51
g6
S'ILE'
sg7
I34
sg8
F0.088200002908706665
sg9
I0
sg10
S''
sg11
S'2'
sg12
I2
sS'q'
F1
sg13
I0
sg14
(lp52
F3.1700000762939453
aF5.9689998626708984
aF2.0580000877380371
asg16
S'H'
sg17
S'HC'
sg18
I0
sg19
F1.1000000238418579
sg20
S'3HG2'
sS'b'
F0
sg21
I37
sg22
S''
sba(ichempy
Atom
(dp53
g6
S'ILE'
sg7
I35
sg8
F0.2718999981880188
sg9
I0
sg10
S''
sg11
S'2'
sg12
I2
sS'q'
F1
sg13
I0
sg14
(lp54
F3.8849999904632568
aF0.85600000619888306
aF0
asg16
S'H'
sg17
S'H'
sg18
I0
sg19
F1.1000000238418579
sg20
S'H'
sS'b'
F0
sg21
I38
sg22
S''
sba(ichempy
Atom
(dp55
g6
S'ILE'
sg7
I36
sg8
F0.086900003254413605
sg9
I0
sg10
S''
sg11
S'2'
sg12
I2
sS'q'
F1
sg13
I0
sg14
(lp56
F3.3929998874664307
aF3.5510001182556152
aF-0.94599997997283936
asg16
S'H'
sg17
S'H1'
sg18
I0
sg19
F1.1000000238418579
sg20
S'HA'
sS'b'
F0
sg21
I39
sg22
S''
sba(ichempy
Atom
(dp57
g6
S'ILE'
sg7
I37
sg8
F0.018699999898672104
sg9
I0
sg10
S''
sg11
S'2'
sg12
I2
sS'q'
F1
sg13
I0
sg14
(lp58
F3.5090000629425049
aF3.4570000171661377
aF2.1349999904632568
asg16
S'H'
sg17
S'HC'
sg18
I0
sg19
F1.1000000238418579
sg20
S'HB'
sS'b'
F0
sg21
I40
sg22
S''
sbasS'molecule'
p59
(ichempy
Molecule
(dp60
bsg21
NsS'bond'
p61
(lp62
(ichempy
Bond
(dp63
S'order'
p64
I1
sg21
(lp65
I0
aI1
asba(ichempy
Bond
(dp66
g64
I1
sg21
(lp67
I0
aI16
asba(ichempy
Bond
(dp68
g64
I1
sg21
(lp69
I1
aI2
asba(ichempy
Bond
(dp70
g64
I1
sg21
(lp71
I1
aI6
asba(ichempy
Bond
(dp72
g64
I1
sg21
(lp73
I1
aI17
asba(ichempy
Bond
(dp74
g64
I1
sg21
(lp75
I3
aI2
asba(ichempy
Bond
(dp76
g64
I1
sg21
(lp77
I4
aI2
asba(ichempy
Bond
(dp78
g64
I1
sg21
(lp79
I5
aI3
asba(ichempy
Bond
(dp80
g64
I2
sg21
(lp81
I6
aI7
asba(ichempy
Bond
(dp82
g64
I1
sg21
(lp83
I8
aI5
asba(ichempy
Bond
(dp84
g64
I1
sg21
(lp85
I9
aI4
asba(ichempy
Bond
(dp86
g64
I1
sg21
(lp87
I10
aI5
asba(ichempy
Bond
(dp88
g64
I1
sg21
(lp89
I11
aI3
asba(ichempy
Bond
(dp90
g64
I1
sg21
(lp91
I12
aI4
asba(ichempy
Bond
(dp92
g64
I1
sg21
(lp93
I13
aI5
asba(ichempy
Bond
(dp94
g64
I1
sg21
(lp95
I14
aI3
asba(ichempy
Bond
(dp96
g64
I1
sg21
(lp97
I15
aI4
asba(ichempy
Bond
(dp98
g64
I1
sg21
(lp99
I18
aI2
asbasb.