(ichempy.models
Indexed
p1
(dp2
S'atom'
p3
(lp4
(ichempy
Atom
(dp5
S'resn'
p6
S'LEU'
sS'id'
p7
I38
sS'partial_charge'
p8
F-0.41569998860359192
sS'formal_charge'
p9
I0
sS'segi'
p10
S''
sS'resi'
p11
S'2'
sS'resi_number'
p12
I2
sS'q'
F1
sS'hetatm'
p13
I0
sS'coord'
p14
(lp15
F3.2639999389648438
aF1.6349999904632568
aF0
asS'symbol'
p16
S'N'
sS'text_type'
p17
S'N'
sS'flags'
p18
I0
sS'vdw'
p19
F1.7999999523162842
sS'name'
p20
S'N'
sS'b'
F0
sS'index'
p21
I22
sS'chain'
p22
S''
sba(ichempy
Atom
(dp23
g6
S'LEU'
sg7
I22
sg8
F-0.051800001412630081
sg9
I0
sg10
S''
sg11
S'2'
sg12
I2
sS'q'
F1
sg13
I0
sg14
(lp24
F3.8320000171661377
aF2.9800000190734863
aF0
asg16
S'C'
sg17
S'CT'
sg18
I0
sg19
F1.7999999523162842
sg20
S'CA'
sS'b'
F0
sg21
I23
sg22
S''
sba(ichempy
Atom
(dp25
g6
S'LEU'
sg7
I23
sg8
F-0.11020000278949738
sg9
I0
sg10
S''
sg11
S'2'
sg12
I2
sS'q'
F1
sg13
I0
sg14
(lp26
F3.3039999008178711
aF3.7960000038146973
aF1.2139999866485596
asg16
S'C'
sg17
S'CT'
sg18
I0
sg19
F1.7999999523162842
sg20
S'CB'
sS'b'
F0
sg21
I24
sg22
S''
sba(ichempy
Atom
(dp27
g6
S'LEU'
sg7
I26
sg8
F0.3531000018119812
sg9
I0
sg10
S''
sg11
S'2'
sg12
I2
sS'q'
F1
sg13
I0
sg14
(lp28
F1.7690000534057617
aF3.9809999465942383
aF1.3580000400543213
asg16
S'C'
sg17
S'CT'
sg18
I0
sg19
F1.7999999523162842
sg20
S'CG'
sS'b'
F0
sg21
I25
sg22
S''
sba(ichempy
Atom
(dp29
g6
S'LEU'
sg7
I24
sg8
F-0.41209998726844788
sg9
I0
sg10
S''
sg11
S'2'
sg12
I2
sS'q'
F1
sg13
I0
sg14
(lp30
F1.4570000171661377
aF4.9019999504089355
aF2.5460000038146973
asg16
S'C'
sg17
S'CT'
sg18
I0
sg19
F1.7999999523162842
sg20
S'CD1'
sS'b'
F0
sg21
I26
sg22
S''
sba(ichempy
Atom
(dp31
g6
S'LEU'
sg7
I25
sg8
F-0.41209998726844788
sg9
I0
sg10
S''
sg11
S'2'
sg12
I2
sS'q'
F1
sg13
I0
sg14
(lp32
F1.1160000562667847
aF4.5409998893737793
aF0.082999996840953827
asg16
S'C'
sg17
S'CT'
sg18
I0
sg19
F1.7999999523162842
sg20
S'CD2'
sS'b'
F0
sg21
I27
sg22
S''
sba(ichempy
Atom
(dp33
g6
S'LEU'
sg7
I21
sg8
F0.59729999303817749
sg9
I0
sg10
S''
sg11
S'2'
sg12
I2
sS'q'
F1
sg13
I0
sg14
(lp34
F5.3410000801086426
aF2.9289999008178711
aF0
asg16
S'C'
sg17
S'C'
sg18
I0
sg19
F1.7999999523162842
sg20
S'C'
sS'b'
F0
sg21
I28
sg22
S''
sba(ichempy
Atom
(dp35
g6
S'LEU'
sg7
I39
sg8
F-0.56790000200271606
sg9
I0
sg10
S''
sg11
S'2'
sg12
I2
sS'q'
F1
sg13
I0
sg14
(lp36
F5.9629998207092285
aF1.8559999465942383
aF0
asg16
S'O'
sg17
S'O'
sg18
I0
sg19
F1.5
sg20
S'O'
sS'b'
F0
sg21
I29
sg22
S''
sba(ichempy
Atom
(dp37
g6
S'LEU'
sg7
I27
sg8
F0.10000000149011612
sg9
I0
sg10
S''
sg11
S'2'
sg12
I2
sS'q'
F1
sg13
I0
sg14
(lp38
F1.8760000467300415
aF4.5089998245239258
aF3.4920001029968262
asg16
S'H'
sg17
S'HC'
sg18
I0
sg19
F1.1000000238418579
sg20
S'1HD1'
sS'b'
F0
sg21
I30
sg22
S''
sba(ichempy
Atom
(dp39
g6
S'LEU'
sg7
I28
sg8
F0.10000000149011612
sg9
I0
sg10
S''
sg11
S'2'
sg12
I2
sS'q'
F1
sg13
I0
sg14
(lp40
F1.5690000057220459
aF5.4980001449584961
aF-0.23399999737739563
asg16
S'H'
sg17
S'HC'
sg18
I0
sg19
F1.1000000238418579
sg20
S'1HD2'
sS'b'
F0
sg21
I31
sg22
S''
sba(ichempy
Atom
(dp41
g6
S'LEU'
sg7
I29
sg8
F0.045699998736381531
sg9
I0
sg10
S''
sg11
S'2'
sg12
I2
sS'q'
F1
sg13
I0
sg14
(lp42
F3.7739999294281006
aF4.7989997863769531
aF1.1940000057220459
asg16
S'H'
sg17
S'HC'
sg18
I0
sg19
F1.1000000238418579
sg20
S'2HB'
sS'b'
F0
sg21
I32
sg22
S''
sba(ichempy
Atom
(dp43
g6
S'LEU'
sg7
I30
sg8
F0.10000000149011612
sg9
I0
sg10
S''
sg11
S'2'
sg12
I2
sS'q'
F1
sg13
I0
sg14
(lp44
F1.8669999837875366
aF5.9200000762939453
aF2.4059998989105225
asg16
S'H'
sg17
S'HC'
sg18
I0
sg19
F1.1000000238418579
sg20
S'2HD1'
sS'b'
F0
sg21
I33
sg22
S''
sba(ichempy
Atom
(dp45
g6
S'LEU'
sg7
I31
sg8
F0.10000000149011612
sg9
I0
sg10
S''
sg11
S'2'
sg12
I2
sS'q'
F1
sg13
I0
sg14
(lp46
F1.2150000333786011
aF3.8340001106262207
aF-0.76200002431869507
asg16
S'H'
sg17
S'HC'
sg18
I0
sg19
F1.1000000238418579
sg20
S'2HD2'
sS'b'
F0
sg21
I34
sg22
S''
sba(ichempy
Atom
(dp47
g6
S'LEU'
sg7
I32
sg8
F0.045699998736381531
sg9
I0
sg10
S''
sg11
S'2'
sg12
I2
sS'q'
F1
sg13
I0
sg14
(lp48
F3.6830000877380371
aF3.3310000896453857
aF2.1459999084472656
asg16
S'H'
sg17
S'HC'
sg18
I0
sg19
F1.1000000238418579
sg20
S'3HB'
sS'b'
F0
sg21
I35
sg22
S''
sba(ichempy
Atom
(dp49
g6
S'LEU'
sg7
I33
sg8
F0.10000000149011612
sg9
I0
sg10
S''
sg11
S'2'
sg12
I2
sS'q'
F1
sg13
I0
sg14
(lp50
F0.36800000071525574
aF5.0079998970031738
aF2.7039999961853027
asg16
S'H'
sg17
S'HC'
sg18
I0
sg19
F1.1000000238418579
sg20
S'3HD1'
sS'b'
F0
sg21
I36
sg22
S''
sba(ichempy
Atom
(dp51
g6
S'LEU'
sg7
I34
sg8
F0.10000000149011612
sg9
I0
sg10
S''
sg11
S'2'
sg12
I2
sS'q'
F1
sg13
I0
sg14
(lp52
F0.030999999493360519
aF4.7100000381469727
aF0.21400000154972076
asg16
S'H'
sg17
S'HC'
sg18
I0
sg19
F1.1000000238418579
sg20
S'3HD2'
sS'b'
F0
sg21
I37
sg22
S''
sba(ichempy
Atom
(dp53
g6
S'LEU'
sg7
I35
sg8
F0.2718999981880188
sg9
I0
sg10
S''
sg11
S'2'
sg12
I2
sS'q'
F1
sg13
I0
sg14
(lp54
F3.8529999256134033
aF0.79600000381469727
aF0
asg16
S'H'
sg17
S'H'
sg18
I0
sg19
F1.1000000238418579
sg20
S'H'
sS'b'
F0
sg21
I38
sg22
S''
sba(ichempy
Atom
(dp55
g6
S'LEU'
sg7
I36
sg8
F0.092200003564357758
sg9
I0
sg10
S''
sg11
S'2'
sg12
I2
sS'q'
F1
sg13
I0
sg14
(lp56
F3.5390000343322754
aF3.4830000400543213
aF-0.93900001049041748
asg16
S'H'
sg17
S'H1'
sg18
I0
sg19
F1.1000000238418579
sg20
S'HA'
sS'b'
F0
sg21
I39
sg22
S''
sba(ichempy
Atom
(dp57
g6
S'LEU'
sg7
I37
sg8
F-0.036100000143051147
sg9
I0
sg10
S''
sg11
S'2'
sg12
I2
sS'q'
F1
sg13
I0
sg14
(lp58
F1.3200000524520874
aF2.9879999160766602
aF1.5700000524520874
asg16
S'H'
sg17
S'HC'
sg18
I0
sg19
F1.1000000238418579
sg20
S'HG'
sS'b'
F0
sg21
I40
sg22
S''
sbasS'molecule'
p59
(ichempy
Molecule
(dp60
bsg21
NsS'bond'
p61
(lp62
(ichempy
Bond
(dp63
S'order'
p64
I1
sg21
(lp65
I0
aI1
asba(ichempy
Bond
(dp66
g64
I1
sg21
(lp67
I0
aI16
asba(ichempy
Bond
(dp68
g64
I1
sg21
(lp69
I1
aI2
asba(ichempy
Bond
(dp70
g64
I1
sg21
(lp71
I1
aI6
asba(ichempy
Bond
(dp72
g64
I1
sg21
(lp73
I1
aI17
asba(ichempy
Bond
(dp74
g64
I1
sg21
(lp75
I3
aI2
asba(ichempy
Bond
(dp76
g64
I1
sg21
(lp77
I4
aI3
asba(ichempy
Bond
(dp78
g64
I1
sg21
(lp79
I5
aI3
asba(ichempy
Bond
(dp80
g64
I2
sg21
(lp81
I6
aI7
asba(ichempy
Bond
(dp82
g64
I1
sg21
(lp83
I8
aI4
asba(ichempy
Bond
(dp84
g64
I1
sg21
(lp85
I9
aI5
asba(ichempy
Bond
(dp86
g64
I1
sg21
(lp87
I10
aI2
asba(ichempy
Bond
(dp88
g64
I1
sg21
(lp89
I11
aI4
asba(ichempy
Bond
(dp90
g64
I1
sg21
(lp91
I12
aI5
asba(ichempy
Bond
(dp92
g64
I1
sg21
(lp93
I13
aI2
asba(ichempy
Bond
(dp94
g64
I1
sg21
(lp95
I14
aI4
asba(ichempy
Bond
(dp96
g64
I1
sg21
(lp97
I15
aI5
asba(ichempy
Bond
(dp98
g64
I1
sg21
(lp99
I18
aI3
asbasb.