(ichempy.models
Indexed
p1
(dp2
S'atom'
p3
(lp4
(ichempy
Atom
(dp5
S'resn'
p6
S'MET'
sS'id'
p7
I33
sS'partial_charge'
p8
F-0.41569998860359192
sS'formal_charge'
p9
I0
sS'segi'
p10
S''
sS'resi'
p11
S'2'
sS'resi_number'
p12
I2
sS'q'
F1
sS'hetatm'
p13
I0
sS'coord'
p14
(lp15
F3.1600000858306885
aF1.7300000190734863
aF0
asS'symbol'
p16
S'N'
sS'text_type'
p17
S'N'
sS'flags'
p18
I0
sS'vdw'
p19
F1.7999999523162842
sS'name'
p20
S'N'
sS'b'
F0
sS'index'
p21
I20
sS'chain'
p22
S''
sba(ichempy
Atom
(dp23
g6
S'MET'
sg7
I20
sg8
F-0.02370000071823597
sg9
I0
sg10
S''
sg11
S'2'
sg12
I2
sS'q'
F1
sg13
I0
sg14
(lp24
F3.6480000019073486
aF3.1059999465942383
aF0
asg16
S'C'
sg17
S'CT'
sg18
I0
sg19
F1.7999999523162842
sg20
S'CA'
sS'b'
F0
sg21
I21
sg22
S''
sba(ichempy
Atom
(dp25
g6
S'MET'
sg7
I21
sg8
F0.034200001507997513
sg9
I0
sg10
S''
sg11
S'2'
sg12
I2
sS'q'
F1
sg13
I0
sg14
(lp26
F3.0729999542236328
aF3.8689999580383301
aF1.2250000238418579
asg16
S'C'
sg17
S'CT'
sg18
I0
sg19
F1.7999999523162842
sg20
S'CB'
sS'b'
F0
sg21
I22
sg22
S''
sba(ichempy
Atom
(dp27
g6
S'MET'
sg7
I23
sg8
F0.0017999999690800905
sg9
I0
sg10
S''
sg11
S'2'
sg12
I2
sS'q'
F1
sg13
I0
sg14
(lp28
F1.5369999408721924
aF4.0190000534057617
aF1.2660000324249268
asg16
S'C'
sg17
S'CT'
sg18
I0
sg19
F1.7999999523162842
sg20
S'CG'
sS'b'
F0
sg21
I23
sg22
S''
sba(ichempy
Atom
(dp29
g6
S'MET'
sg7
I35
sg8
F-0.27369999885559082
sg9
I0
sg10
S''
sg11
S'2'
sg12
I2
sS'q'
F1
sg13
I0
sg14
(lp30
F1.0700000524520874
aF5.1630001068115234
aF2.5750000476837158
asg16
S'S'
sg17
S'S'
sg18
I0
sg19
F1.8999999761581421
sg20
S'SD'
sS'b'
F0
sg21
I24
sg22
S''
sba(ichempy
Atom
(dp31
g6
S'MET'
sg7
I22
sg8
F-0.053599998354911804
sg9
I0
sg10
S''
sg11
S'2'
sg12
I2
sS'q'
F1
sg13
I0
sg14
(lp32
F-0.69300001859664917
aF4.814000129699707
aF2.6170001029968262
asg16
S'C'
sg17
S'CT'
sg18
I0
sg19
F1.7999999523162842
sg20
S'CE'
sS'b'
F0
sg21
I25
sg22
S''
sba(ichempy
Atom
(dp33
g6
S'MET'
sg7
I19
sg8
F0.59729999303817749
sg9
I0
sg10
S''
sg11
S'2'
sg12
I2
sS'q'
F1
sg13
I0
sg14
(lp34
F5.1570000648498535
aF3.1459999084472656
aF0
asg16
S'C'
sg17
S'C'
sg18
I0
sg19
F1.7999999523162842
sg20
S'C'
sS'b'
F0
sg21
I26
sg22
S''
sba(ichempy
Atom
(dp35
g6
S'MET'
sg7
I34
sg8
F-0.56790000200271606
sg9
I0
sg10
S''
sg11
S'2'
sg12
I2
sS'q'
F1
sg13
I0
sg14
(lp36
F5.8410000801086426
aF2.1110000610351562
aF0
asg16
S'O'
sg17
S'O'
sg18
I0
sg19
F1.5
sg20
S'O'
sS'b'
F0
sg21
I27
sg22
S''
sba(ichempy
Atom
(dp37
g6
S'MET'
sg7
I24
sg8
F0.068400003015995026
sg9
I0
sg10
S''
sg11
S'2'
sg12
I2
sS'q'
F1
sg13
I0
sg14
(lp38
F-1.1499999761581421
aF4.9619998931884766
aF1.621999979019165
asg16
S'H'
sg17
S'H1'
sg18
I0
sg19
F1.1000000238418579
sg20
S'1HE'
sS'b'
F0
sg21
I28
sg22
S''
sba(ichempy
Atom
(dp39
g6
S'MET'
sg7
I25
sg8
F0.024100000038743019
sg9
I0
sg10
S''
sg11
S'2'
sg12
I2
sS'q'
F1
sg13
I0
sg14
(lp40
F3.5109999179840088
aF4.8850002288818359
aF1.2619999647140503
asg16
S'H'
sg17
S'HC'
sg18
I0
sg19
F1.1000000238418579
sg20
S'2HB'
sS'b'
F0
sg21
I29
sg22
S''
sba(ichempy
Atom
(dp41
g6
S'MET'
sg7
I26
sg8
F0.068400003015995026
sg9
I0
sg10
S''
sg11
S'2'
sg12
I2
sS'q'
F1
sg13
I0
sg14
(lp42
F-0.87099999189376831
aF3.7699999809265137
aF2.9300000667572021
asg16
S'H'
sg17
S'H1'
sg18
I0
sg19
F1.1000000238418579
sg20
S'2HE'
sS'b'
F0
sg21
I30
sg22
S''
sba(ichempy
Atom
(dp43
g6
S'MET'
sg7
I27
sg8
F0.043999999761581421
sg9
I0
sg10
S''
sg11
S'2'
sg12
I2
sS'q'
F1
sg13
I0
sg14
(lp44
F1.065000057220459
aF3.0360000133514404
aF1.4529999494552612
asg16
S'H'
sg17
S'H1'
sg18
I0
sg19
F1.1000000238418579
sg20
S'2HG'
sS'b'
F0
sg21
I31
sg22
S''
sba(ichempy
Atom
(dp45
g6
S'MET'
sg7
I28
sg8
F0.024100000038743019
sg9
I0
sg10
S''
sg11
S'2'
sg12
I2
sS'q'
F1
sg13
I0
sg14
(lp46
F3.4079999923706055
aF3.3819999694824219
aF2.1630001068115234
asg16
S'H'
sg17
S'HC'
sg18
I0
sg19
F1.1000000238418579
sg20
S'3HB'
sS'b'
F0
sg21
I32
sg22
S''
sba(ichempy
Atom
(dp47
g6
S'MET'
sg7
I29
sg8
F0.068400003015995026
sg9
I0
sg10
S''
sg11
S'2'
sg12
I2
sS'q'
F1
sg13
I0
sg14
(lp48
F-1.2020000219345093
aF5.4800000190734863
aF3.3350000381469727
asg16
S'H'
sg17
S'H1'
sg18
I0
sg19
F1.1000000238418579
sg20
S'3HE'
sS'b'
F0
sg21
I33
sg22
S''
sba(ichempy
Atom
(dp49
g6
S'MET'
sg7
I30
sg8
F0.043999999761581421
sg9
I0
sg10
S''
sg11
S'2'
sg12
I2
sS'q'
F1
sg13
I0
sg14
(lp50
F1.1380000114440918
aF4.3850002288818359
aF0.30199998617172241
asg16
S'H'
sg17
S'H1'
sg18
I0
sg19
F1.1000000238418579
sg20
S'3HG'
sS'b'
F0
sg21
I34
sg22
S''
sba(ichempy
Atom
(dp51
g6
S'MET'
sg7
I31
sg8
F0.2718999981880188
sg9
I0
sg10
S''
sg11
S'2'
sg12
I2
sS'q'
F1
sg13
I0
sg14
(lp52
F3.8329999446868896
aF0.88499999046325684
aF0
asg16
S'H'
sg17
S'H'
sg18
I0
sg19
F1.1000000238418579
sg20
S'H'
sS'b'
F0
sg21
I35
sg22
S''
sba(ichempy
Atom
(dp53
g6
S'MET'
sg7
I32
sg8
F0.087999999523162842
sg9
I0
sg10
S''
sg11
S'2'
sg12
I2
sS'q'
F1
sg13
I0
sg14
(lp54
F3.309999942779541
aF3.5999999046325684
aF-0.93000000715255737
asg16
S'H'
sg17
S'H1'
sg18
I0
sg19
F1.1000000238418579
sg20
S'HA'
sS'b'
F0
sg21
I36
sg22
S''
sbasS'molecule'
p55
(ichempy
Molecule
(dp56
bsg21
NsS'bond'
p57
(lp58
(ichempy
Bond
(dp59
S'order'
p60
I1
sg21
(lp61
I0
aI1
asba(ichempy
Bond
(dp62
g60
I1
sg21
(lp63
I0
aI15
asba(ichempy
Bond
(dp64
g60
I1
sg21
(lp65
I1
aI2
asba(ichempy
Bond
(dp66
g60
I1
sg21
(lp67
I1
aI6
asba(ichempy
Bond
(dp68
g60
I1
sg21
(lp69
I1
aI16
asba(ichempy
Bond
(dp70
g60
I1
sg21
(lp71
I3
aI2
asba(ichempy
Bond
(dp72
g60
I1
sg21
(lp73
I4
aI3
asba(ichempy
Bond
(dp74
g60
I1
sg21
(lp75
I5
aI4
asba(ichempy
Bond
(dp76
g60
I2
sg21
(lp77
I6
aI7
asba(ichempy
Bond
(dp78
g60
I1
sg21
(lp79
I8
aI5
asba(ichempy
Bond
(dp80
g60
I1
sg21
(lp81
I9
aI2
asba(ichempy
Bond
(dp82
g60
I1
sg21
(lp83
I10
aI5
asba(ichempy
Bond
(dp84
g60
I1
sg21
(lp85
I11
aI3
asba(ichempy
Bond
(dp86
g60
I1
sg21
(lp87
I12
aI2
asba(ichempy
Bond
(dp88
g60
I1
sg21
(lp89
I13
aI5
asba(ichempy
Bond
(dp90
g60
I1
sg21
(lp91
I14
aI3
asbasb.