(ichempy.models
Indexed
p1
(dp2
S'atom'
p3
(lp4
(ichempy
Atom
(dp5
S'resn'
p6
S'ASN'
sS'id'
p7
I12
sS'partial_charge'
p8
F0.18009999394416809
sS'formal_charge'
p9
I0
sS'segi'
p10
S''
sS'resi'
p11
S'1'
sS'resi_number'
p12
I1
sS'q'
F1
sS'hetatm'
p13
I0
sS'coord'
p14
(lp15
F0.082000002264976501
aF-0.11800000071525574
aF0
asS'symbol'
p16
S'N'
sS'text_type'
p17
S'N3'
sS'flags'
p18
I0
sS'vdw'
p19
F1.7999999523162842
sS'name'
p20
S'N'
sS'b'
F0
sS'index'
p21
I1
sS'chain'
p22
S''
sba(ichempy
Atom
(dp23
g6
S'ASN'
sg7
I1
sg8
F0.036800000816583633
sg9
I0
sg10
S''
sg11
S'1'
sg12
I1
sS'q'
F1
sg13
I0
sg14
(lp24
F1.5390000343322754
aF-0.032000001519918442
aF0
asg16
S'C'
sg17
S'CT'
sg18
I0
sg19
F1.7999999523162842
sg20
S'CA'
sS'b'
F0
sg21
I2
sg22
S''
sba(ichempy
Atom
(dp25
g6
S'ASN'
sg7
I2
sg8
F-0.028300000354647636
sg9
I0
sg10
S''
sg11
S'1'
sg12
I1
sS'q'
F1
sg13
I0
sg14
(lp26
F2.1050000190734863
aF-0.78899997472763062
aF-1.2369999885559082
asg16
S'C'
sg17
S'CT'
sg18
I0
sg19
F1.7999999523162842
sg20
S'CB'
sS'b'
F0
sg21
I3
sg22
S''
sba(ichempy
Atom
(dp27
g6
S'ASN'
sg7
I3
sg8
F0.58329999446868896
sg9
I0
sg10
S''
sg11
S'1'
sg12
I1
sS'q'
F1
sg13
I0
sg14
(lp28
F1.7209999561309814
aF-2.2660000324249268
aF-1.3810000419616699
asg16
S'C'
sg17
S'C'
sg18
I0
sg19
F1.7999999523162842
sg20
S'CG'
sS'b'
F0
sg21
I4
sg22
S''
sba(ichempy
Atom
(dp29
g6
S'ASN'
sg7
I13
sg8
F-0.86339998245239258
sg9
I0
sg10
S''
sg11
S'1'
sg12
I1
sS'q'
F1
sg13
I0
sg14
(lp30
F2.3450000286102295
aF-3.1519999504089355
aF-0.65200001001358032
asg16
S'N'
sg17
S'N'
sg18
I0
sg19
F1.7999999523162842
sg20
S'ND2'
sS'b'
F0
sg21
I5
sg22
S''
sba(ichempy
Atom
(dp31
g6
S'ASN'
sg7
I15
sg8
F-0.57440000772476196
sg9
I0
sg10
S''
sg11
S'1'
sg12
I1
sS'q'
F1
sg13
I0
sg14
(lp32
F0.83799999952316284
aF-2.6389999389648438
aF-2.1389999389648438
asg16
S'O'
sg17
S'O'
sg18
I0
sg19
F1.5
sg20
S'OD1'
sS'b'
F0
sg21
I6
sg22
S''
sba(ichempy
Atom
(dp33
g6
S'ASN'
sg7
I0
sg8
F0.61629998683929443
sg9
I0
sg10
S''
sg11
S'1'
sg12
I1
sS'q'
F1
sg13
I0
sg14
(lp34
F1.9960000514984131
aF1.4079999923706055
aF0
asg16
S'C'
sg17
S'C'
sg18
I0
sg19
F1.7999999523162842
sg20
S'C'
sS'b'
F0
sg21
I7
sg22
S''
sba(ichempy
Atom
(dp35
g6
S'ASN'
sg7
I14
sg8
F-0.57220000028610229
sg9
I0
sg10
S''
sg11
S'1'
sg12
I1
sS'q'
F1
sg13
I0
sg14
(lp36
F1.1990000009536743
aF2.3450000286102295
aF0
asg16
S'O'
sg17
S'O'
sg18
I0
sg19
F1.5
sg20
S'O'
sS'b'
F0
sg21
I8
sg22
S''
sba(ichempy
Atom
(dp37
g6
S'ASN'
sg7
I4
sg8
F0.40970000624656677
sg9
I0
sg10
S''
sg11
S'1'
sg12
I1
sS'q'
F1
sg13
I0
sg14
(lp38
F1.9129999876022339
aF-4.0780000686645508
aF-0.71100002527236938
asg16
S'H'
sg17
S'H'
sg18
I0
sg19
F1.1000000238418579
sg20
S'1HD2'
sS'b'
F0
sg21
I9
sg22
S''
sba(ichempy
Atom
(dp39
g6
S'ASN'
sg7
I5
sg8
F0.19210000336170197
sg9
I0
sg10
S''
sg11
S'1'
sg12
I1
sS'q'
F1
sg13
I0
sg14
(lp40
F-0.20399999618530273
aF-1.1080000400543213
aF0
asg16
S'H'
sg17
S'H'
sg18
I0
sg19
F1.1000000238418579
sg20
S'1HT'
sS'b'
F0
sg21
I10
sg22
S''
sba(ichempy
Atom
(dp41
g6
S'ASN'
sg7
I6
sg8
F0.051500000059604645
sg9
I0
sg10
S''
sg11
S'1'
sg12
I1
sS'q'
F1
sg13
I0
sg14
(lp42
F3.2070000171661377
aF-0.71299999952316284
aF-1.2649999856948853
asg16
S'H'
sg17
S'HC'
sg18
I0
sg19
F1.1000000238418579
sg20
S'2HB'
sS'b'
F0
sg21
I11
sg22
S''
sba(ichempy
Atom
(dp43
g6
S'ASN'
sg7
I7
sg8
F0.40970000624656677
sg9
I0
sg10
S''
sg11
S'1'
sg12
I1
sS'q'
F1
sg13
I0
sg14
(lp44
F3.0120000839233398
aF-2.7999999523162842
aF0.034000001847743988
asg16
S'H'
sg17
S'H'
sg18
I0
sg19
F1.1000000238418579
sg20
S'2HD2'
sS'b'
F0
sg21
I12
sg22
S''
sba(ichempy
Atom
(dp45
g6
S'ASN'
sg7
I8
sg8
F0.19210000336170197
sg9
I0
sg10
S''
sg11
S'1'
sg12
I1
sS'q'
F1
sg13
I0
sg14
(lp46
F-0.28999999165534973
aF0.34599998593330383
aF0.8410000205039978
asg16
S'H'
sg17
S'H'
sg18
I0
sg19
F1.1000000238418579
sg20
S'2HT'
sS'b'
F0
sg21
I13
sg22
S''
sba(ichempy
Atom
(dp47
g6
S'ASN'
sg7
I9
sg8
F0.051500000059604645
sg9
I0
sg10
S''
sg11
S'1'
sg12
I1
sS'q'
F1
sg13
I0
sg14
(lp48
F1.7719999551773071
aF-0.28200000524520874
aF-2.1640000343322754
asg16
S'H'
sg17
S'HC'
sg18
I0
sg19
F1.1000000238418579
sg20
S'3HB'
sS'b'
F0
sg21
I14
sg22
S''
sba(ichempy
Atom
(dp49
g6
S'ASN'
sg7
I10
sg8
F0.19210000336170197
sg9
I0
sg10
S''
sg11
S'1'
sg12
I1
sS'q'
F1
sg13
I0
sg14
(lp50
F-0.28999999165534973
aF0.34599998593330383
aF-0.8410000205039978
asg16
S'H'
sg17
S'H'
sg18
I0
sg19
F1.1000000238418579
sg20
S'3HT'
sS'b'
F0
sg21
I15
sg22
S''
sba(ichempy
Atom
(dp51
g6
S'ASN'
sg7
I11
sg8
F0.12309999763965607
sg9
I0
sg10
S''
sg11
S'1'
sg12
I1
sS'q'
F1
sg13
I0
sg14
(lp52
F1.9179999828338623
aF-0.49500000476837158
aF0.93000000715255737
asg16
S'H'
sg17
S'HP'
sg18
I0
sg19
F1.1000000238418579
sg20
S'HA'
sS'b'
F0
sg21
I16
sg22
S''
sbasS'molecule'
p53
(ichempy
Molecule
(dp54
bsg21
NsS'bond'
p55
(lp56
(ichempy
Bond
(dp57
S'order'
p58
I1
sg21
(lp59
I0
aI1
asba(ichempy
Bond
(dp60
g58
I1
sg21
(lp61
I0
aI9
asba(ichempy
Bond
(dp62
g58
I1
sg21
(lp63
I0
aI12
asba(ichempy
Bond
(dp64
g58
I1
sg21
(lp65
I0
aI14
asba(ichempy
Bond
(dp66
g58
I1
sg21
(lp67
I1
aI2
asba(ichempy
Bond
(dp68
g58
I1
sg21
(lp69
I1
aI6
asba(ichempy
Bond
(dp70
g58
I1
sg21
(lp71
I1
aI15
asba(ichempy
Bond
(dp72
g58
I1
sg21
(lp73
I3
aI2
asba(ichempy
Bond
(dp74
g58
I1
sg21
(lp75
I4
aI3
asba(ichempy
Bond
(dp76
g58
I2
sg21
(lp77
I5
aI3
asba(ichempy
Bond
(dp78
g58
I2
sg21
(lp79
I6
aI7
asba(ichempy
Bond
(dp80
g58
I1
sg21
(lp81
I8
aI4
asba(ichempy
Bond
(dp82
g58
I1
sg21
(lp83
I10
aI2
asba(ichempy
Bond
(dp84
g58
I1
sg21
(lp85
I11
aI4
asba(ichempy
Bond
(dp86
g58
I1
sg21
(lp87
I13
aI2
asbasb.