(ichempy.models
Indexed
p1
(dp2
S'atom'
p3
(lp4
(ichempy
Atom
(dp5
S'resn'
p6
S'ALA'
sS'id'
p7
I10
sS'partial_charge'
p8
F0.14139999449253082
sS'formal_charge'
p9
I0
sS'segi'
p10
S''
sS'resi'
p11
S'1'
sS'resi_number'
p12
I1
sS'q'
F1
sS'hetatm'
p13
I0
sS'coord'
p14
(lp15
F0.039000000804662704
aF-0.028000000864267349
aF0
asS'symbol'
p16
S'N'
sS'text_type'
p17
S'N3'
sS'flags'
p18
I0
sS'vdw'
p19
F1.7999999523162842
sS'name'
p20
S'N'
sS'b'
F0
sS'index'
p21
I1
sS'chain'
p22
S''
sba(ichempy
Atom
(dp23
g6
S'ALA'
sg7
I1
sg8
F0.096199996769428253
sg9
I0
sg10
S''
sg11
S'1'
sg12
I1
sS'q'
F1
sg13
I0
sg14
(lp24
F1.4989999532699585
aF-0.043000001460313797
aF0
asg16
S'C'
sg17
S'CT'
sg18
I0
sg19
F1.7999999523162842
sg20
S'CA'
sS'b'
F0
sg21
I2
sg22
S''
sba(ichempy
Atom
(dp25
g6
S'ALA'
sg7
I2
sg8
F-0.059700001031160355
sg9
I0
sg10
S''
sg11
S'1'
sg12
I1
sS'q'
F1
sg13
I0
sg14
(lp26
F1.9559999704360962
aF-0.86599999666213989
aF-1.2170000076293945
asg16
S'C'
sg17
S'CT'
sg18
I0
sg19
F1.7999999523162842
sg20
S'CB'
sS'b'
F0
sg21
I3
sg22
S''
sba(ichempy
Atom
(dp27
g6
S'ALA'
sg7
I0
sg8
F0.61629998683929443
sg9
I0
sg10
S''
sg11
S'1'
sg12
I1
sS'q'
F1
sg13
I0
sg14
(lp28
F2.0550000667572021
aF1.3609999418258667
aF0
asg16
S'C'
sg17
S'C'
sg18
I0
sg19
F1.7999999523162842
sg20
S'C'
sS'b'
F0
sg21
I4
sg22
S''
sba(ichempy
Atom
(dp29
g6
S'ALA'
sg7
I11
sg8
F-0.57220000028610229
sg9
I0
sg10
S''
sg11
S'1'
sg12
I1
sS'q'
F1
sg13
I0
sg14
(lp30
F1.3209999799728394
aF2.3559999465942383
aF0.010999999940395355
asg16
S'O'
sg17
S'O'
sg18
I0
sg19
F1.5
sg20
S'O'
sS'b'
F0
sg21
I5
sg22
S''
sba(ichempy
Atom
(dp31
g6
S'ALA'
sg7
I3
sg8
F0.029999999329447746
sg9
I0
sg10
S''
sg11
S'1'
sg12
I1
sS'q'
F1
sg13
I0
sg14
(lp32
F1.5709999799728394
aF-1.9029999971389771
aF-1.1809999942779541
asg16
S'H'
sg17
S'HC'
sg18
I0
sg19
F1.1000000238418579
sg20
S'1HB'
sS'b'
F0
sg21
I6
sg22
S''
sba(ichempy
Atom
(dp33
g6
S'ALA'
sg7
I4
sg8
F0.1996999979019165
sg9
I0
sg10
S''
sg11
S'1'
sg12
I1
sS'q'
F1
sg13
I0
sg14
(lp34
F-0.31499999761581421
aF-0.99500000476837158
aF0
asg16
S'H'
sg17
S'H'
sg18
I0
sg19
F1.1000000238418579
sg20
S'1HT'
sS'b'
F0
sg21
I7
sg22
S''
sba(ichempy
Atom
(dp35
g6
S'ALA'
sg7
I5
sg8
F0.029999999329447746
sg9
I0
sg10
S''
sg11
S'1'
sg12
I1
sS'q'
F1
sg13
I0
sg14
(lp36
F1.6100000143051147
aF-0.42500001192092896
aF-2.1719999313354492
asg16
S'H'
sg17
S'HC'
sg18
I0
sg19
F1.1000000238418579
sg20
S'2HB'
sS'b'
F0
sg21
I8
sg22
S''
sba(ichempy
Atom
(dp37
g6
S'ALA'
sg7
I6
sg8
F0.1996999979019165
sg9
I0
sg10
S''
sg11
S'1'
sg12
I1
sS'q'
F1
sg13
I0
sg14
(lp38
F-0.30000001192092896
aF0.460999995470047
aF0.8410000205039978
asg16
S'H'
sg17
S'H'
sg18
I0
sg19
F1.1000000238418579
sg20
S'2HT'
sS'b'
F0
sg21
I9
sg22
S''
sba(ichempy
Atom
(dp39
g6
S'ALA'
sg7
I7
sg8
F0.029999999329447746
sg9
I0
sg10
S''
sg11
S'1'
sg12
I1
sS'q'
F1
sg13
I0
sg14
(lp40
F3.0580000877380371
aF-0.93900001049041748
aF-1.2740000486373901
asg16
S'H'
sg17
S'HC'
sg18
I0
sg19
F1.1000000238418579
sg20
S'3HB'
sS'b'
F0
sg21
I10
sg22
S''
sba(ichempy
Atom
(dp41
g6
S'ALA'
sg7
I8
sg8
F0.1996999979019165
sg9
I0
sg10
S''
sg11
S'1'
sg12
I1
sS'q'
F1
sg13
I0
sg14
(lp42
F-0.30000001192092896
aF0.460999995470047
aF-0.8410000205039978
asg16
S'H'
sg17
S'H'
sg18
I0
sg19
F1.1000000238418579
sg20
S'3HT'
sS'b'
F0
sg21
I11
sg22
S''
sba(ichempy
Atom
(dp43
g6
S'ALA'
sg7
I9
sg8
F0.088899999856948853
sg9
I0
sg10
S''
sg11
S'1'
sg12
I1
sS'q'
F1
sg13
I0
sg14
(lp44
F1.8470000028610229
aF-0.5339999794960022
aF0.92799997329711914
asg16
S'H'
sg17
S'HP'
sg18
I0
sg19
F1.1000000238418579
sg20
S'HA'
sS'b'
F0
sg21
I12
sg22
S''
sbasS'molecule'
p45
(ichempy
Molecule
(dp46
bsg21
NsS'bond'
p47
(lp48
(ichempy
Bond
(dp49
S'order'
p50
I1
sg21
(lp51
I0
aI1
asba(ichempy
Bond
(dp52
g50
I1
sg21
(lp53
I0
aI6
asba(ichempy
Bond
(dp54
g50
I1
sg21
(lp55
I0
aI8
asba(ichempy
Bond
(dp56
g50
I1
sg21
(lp57
I0
aI10
asba(ichempy
Bond
(dp58
g50
I1
sg21
(lp59
I1
aI2
asba(ichempy
Bond
(dp60
g50
I1
sg21
(lp61
I1
aI3
asba(ichempy
Bond
(dp62
g50
I1
sg21
(lp63
I1
aI11
asba(ichempy
Bond
(dp64
g50
I2
sg21
(lp65
I3
aI4
asba(ichempy
Bond
(dp66
g50
I1
sg21
(lp67
I5
aI2
asba(ichempy
Bond
(dp68
g50
I1
sg21
(lp69
I7
aI2
asba(ichempy
Bond
(dp70
g50
I1
sg21
(lp71
I9
aI2
asbasb.