(ichempy.models
Indexed
p1
(dp2
S'atom'
p3
(lp4
(ichempy
Atom
(dp5
S'resn'
p6
S'GLU'
sS'id'
p7
I13
sS'partial_charge'
p8
F0.0017000000225380063
sS'formal_charge'
p9
I0
sS'segi'
p10
S''
sS'resi'
p11
S'1'
sS'resi_number'
p12
I1
sS'q'
F1
sS'hetatm'
p13
I0
sS'coord'
p14
(lp15
F1.6299999952316284
aF0.61900001764297485
aF1.3420000076293945
asS'symbol'
p16
S'N'
sS'text_type'
p17
S'N3'
sS'flags'
p18
I0
sS'vdw'
p19
F1.7999999523162842
sS'name'
p20
S'N'
sS'b'
F0
sS'index'
p21
I1
sS'chain'
p22
S''
sba(ichempy
Atom
(dp23
g6
S'GLU'
sg7
I1
sg8
F0.058800000697374344
sg9
I0
sg10
S''
sg11
S'1'
sg12
I1
sS'q'
F1
sg13
I0
sg14
(lp24
F3.0850000381469727
aF0.73299998044967651
aF1.3420000076293945
asg16
S'C'
sg17
S'CT'
sg18
I0
sg19
F1.7999999523162842
sg20
S'CA'
sS'b'
F0
sg21
I2
sg22
S''
sba(ichempy
Atom
(dp25
g6
S'GLU'
sg7
I2
sg8
F0.0908999964594841
sg9
I0
sg10
S''
sg11
S'1'
sg12
I1
sS'q'
F1
sg13
I0
sg14
(lp26
F3.6700000762939453
aF-0.0060000000521540642
aF0.10599999874830246
asg16
S'C'
sg17
S'CT'
sg18
I0
sg19
F1.7999999523162842
sg20
S'CB'
sS'b'
F0
sg21
I3
sg22
S''
sba(ichempy
Atom
(dp27
g6
S'GLU'
sg7
I4
sg8
F-0.023600000888109207
sg9
I0
sg10
S''
sg11
S'1'
sg12
I1
sS'q'
F1
sg13
I0
sg14
(lp28
F5.2300000190734863
aF-0.013000000268220901
aF-0.004999999888241291
asg16
S'C'
sg17
S'CT'
sg18
I0
sg19
F1.7999999523162842
sg20
S'CG'
sS'b'
F0
sg21
I4
sg22
S''
sba(ichempy
Atom
(dp29
g6
S'GLU'
sg7
I3
sg8
F0.80870002508163452
sg9
I0
sg10
S''
sg11
S'1'
sg12
I1
sS'q'
F1
sg13
I0
sg14
(lp30
F5.8629999160766602
aF-0.66500002145767212
aF-1.2209999561309814
asg16
S'C'
sg17
S'C'
sg18
I0
sg19
F1.7999999523162842
sg20
S'CD'
sS'b'
F0
sg21
I5
sg22
S''
sba(ichempy
Atom
(dp31
g6
S'GLU'
sg7
I15
sg8
F-0.81889998912811279
sg9
I0
sg10
S''
sg11
S'1'
sg12
I1
sS'q'
F1
sg13
I0
sg14
(lp32
F5.1599998474121094
aF-1.2020000219345093
aF-2.0989999771118164
asg16
S'O'
sg17
S'O2'
sg18
I0
sg19
F1.5
sg20
S'OE1'
sS'b'
F0
sg21
I6
sg22
S''
sba(ichempy
Atom
(dp33
g6
S'GLU'
sg7
I16
sg8
F-0.81889998912811279
sg9
I0
sg10
S''
sg11
S'1'
sg12
I1
sS'q'
F1
sg13
I0
sg14
(lp34
F7.1079998016357422
aF-0.61699998378753662
aF-1.2929999828338623
asg16
S'O'
sg17
S'O2'
sg18
I0
sg19
F1.5
sg20
S'OE2'
sS'b'
F0
sg21
I7
sg22
S''
sba(ichempy
Atom
(dp35
g6
S'GLU'
sg7
I0
sg8
F0.56209999322891235
sg9
I0
sg10
S''
sg11
S'1'
sg12
I1
sS'q'
F1
sg13
I0
sg14
(lp36
F3.5139999389648438
aF2.1809999942779541
aF1.3420000076293945
asg16
S'C'
sg17
S'C'
sg18
I0
sg19
F1.7999999523162842
sg20
S'C'
sS'b'
F0
sg21
I8
sg22
S''
sba(ichempy
Atom
(dp37
g6
S'GLU'
sg7
I14
sg8
F-0.58890002965927124
sg9
I0
sg10
S''
sg11
S'1'
sg12
I1
sS'q'
F1
sg13
I0
sg14
(lp38
F2.6919999122619629
aF3.1099998950958252
aF1.3420000076293945
asg16
S'O'
sg17
S'O'
sg18
I0
sg19
F1.5
sg20
S'O'
sS'b'
F0
sg21
I9
sg22
S''
sba(ichempy
Atom
(dp39
g6
S'GLU'
sg7
I5
sg8
F0.23909999430179596
sg9
I0
sg10
S''
sg11
S'1'
sg12
I1
sS'q'
F1
sg13
I0
sg14
(lp40
F1.3630000352859497
aF-0.37599998712539673
aF1.3420000076293945
asg16
S'H'
sg17
S'H'
sg18
I0
sg19
F1.1000000238418579
sg20
S'1HT'
sS'b'
F0
sg21
I10
sg22
S''
sba(ichempy
Atom
(dp41
g6
S'GLU'
sg7
I6
sg8
F-0.023199999704957008
sg9
I0
sg10
S''
sg11
S'1'
sg12
I1
sS'q'
F1
sg13
I0
sg14
(lp42
F3.255000114440918
aF0.43299999833106995
aF-0.82400000095367432
asg16
S'H'
sg17
S'HC'
sg18
I0
sg19
F1.1000000238418579
sg20
S'2HB'
sS'b'
F0
sg21
I11
sg22
S''
sba(ichempy
Atom
(dp43
g6
S'GLU'
sg7
I7
sg8
F-0.031500000506639481
sg9
I0
sg10
S''
sg11
S'1'
sg12
I1
sS'q'
F1
sg13
I0
sg14
(lp44
F5.690000057220459
aF-0.48899999260902405
aF0.875
asg16
S'H'
sg17
S'HC'
sg18
I0
sg19
F1.1000000238418579
sg20
S'2HG'
sS'b'
F0
sg21
I12
sg22
S''
sba(ichempy
Atom
(dp45
g6
S'GLU'
sg7
I8
sg8
F0.23909999430179596
sg9
I0
sg10
S''
sg11
S'1'
sg12
I1
sS'q'
F1
sg13
I0
sg14
(lp46
F1.2489999532699585
aF1.0759999752044678
aF2.1830000877380371
asg16
S'H'
sg17
S'H'
sg18
I0
sg19
F1.1000000238418579
sg20
S'2HT'
sS'b'
F0
sg21
I13
sg22
S''
sba(ichempy
Atom
(dp47
g6
S'GLU'
sg7
I9
sg8
F-0.023199999704957008
sg9
I0
sg10
S''
sg11
S'1'
sg12
I1
sS'q'
F1
sg13
I0
sg14
(lp48
F3.3180000782012939
aF-1.0549999475479126
aF0.093000002205371857
asg16
S'H'
sg17
S'HC'
sg18
I0
sg19
F1.1000000238418579
sg20
S'3HB'
sS'b'
F0
sg21
I14
sg22
S''
sba(ichempy
Atom
(dp49
g6
S'GLU'
sg7
I10
sg8
F-0.031500000506639481
sg9
I0
sg10
S''
sg11
S'1'
sg12
I1
sS'q'
F1
sg13
I0
sg14
(lp50
F5.6319999694824219
aF1.0119999647140503
aF-0.034000001847743988
asg16
S'H'
sg17
S'HC'
sg18
I0
sg19
F1.1000000238418579
sg20
S'3HG'
sS'b'
F0
sg21
I15
sg22
S''
sba(ichempy
Atom
(dp51
g6
S'GLU'
sg7
I11
sg8
F0.23909999430179596
sg9
I0
sg10
S''
sg11
S'1'
sg12
I1
sS'q'
F1
sg13
I0
sg14
(lp52
F1.2489999532699585
aF1.0759999752044678
aF0.50099998712539673
asg16
S'H'
sg17
S'H'
sg18
I0
sg19
F1.1000000238418579
sg20
S'3HT'
sS'b'
F0
sg21
I16
sg22
S''
sba(ichempy
Atom
(dp53
g6
S'GLU'
sg7
I12
sg8
F0.12020000070333481
sg9
I0
sg10
S''
sg11
S'1'
sg12
I1
sS'q'
F1
sg13
I0
sg14
(lp54
F3.4769999980926514
aF0.26399999856948853
aF2.2630000114440918
asg16
S'H'
sg17
S'HP'
sg18
I0
sg19
F1.1000000238418579
sg20
S'HA'
sS'b'
F0
sg21
I17
sg22
S''
sbasS'molecule'
p55
(ichempy
Molecule
(dp56
bsg21
NsS'bond'
p57
(lp58
(ichempy
Bond
(dp59
S'order'
p60
I1
sg21
(lp61
I0
aI1
asba(ichempy
Bond
(dp62
g60
I1
sg21
(lp63
I0
aI9
asba(ichempy
Bond
(dp64
g60
I1
sg21
(lp65
I0
aI12
asba(ichempy
Bond
(dp66
g60
I1
sg21
(lp67
I0
aI15
asba(ichempy
Bond
(dp68
g60
I1
sg21
(lp69
I1
aI2
asba(ichempy
Bond
(dp70
g60
I1
sg21
(lp71
I1
aI7
asba(ichempy
Bond
(dp72
g60
I1
sg21
(lp73
I1
aI16
asba(ichempy
Bond
(dp74
g60
I1
sg21
(lp75
I3
aI2
asba(ichempy
Bond
(dp76
g60
I1
sg21
(lp77
I4
aI3
asba(ichempy
Bond
(dp78
g60
I2
sg21
(lp79
I5
aI4
asba(ichempy
Bond
(dp80
g60
I1
sg21
(lp81
I6
aI4
asba(ichempy
Bond
(dp82
g60
I2
sg21
(lp83
I7
aI8
asba(ichempy
Bond
(dp84
g60
I1
sg21
(lp85
I10
aI2
asba(ichempy
Bond
(dp86
g60
I1
sg21
(lp87
I11
aI3
asba(ichempy
Bond
(dp88
g60
I1
sg21
(lp89
I13
aI2
asba(ichempy
Bond
(dp90
g60
I1
sg21
(lp91
I14
aI3
asbasb.