(ichempy.models
Indexed
p1
(dp2
S'atom'
p3
(lp4
(ichempy
Atom
(dp5
S'resn'
p6
S'GLN'
sS'id'
p7
I15
sS'partial_charge'
p8
F0.1492999941110611
sS'formal_charge'
p9
I0
sS'segi'
p10
S''
sS'resi'
p11
S'1'
sS'resi_number'
p12
I1
sS'q'
F1
sS'hetatm'
p13
I0
sS'coord'
p14
(lp15
F0.089000001549720764
aF-0.15299999713897705
aF0
asS'symbol'
p16
S'N'
sS'text_type'
p17
S'N3'
sS'flags'
p18
I0
sS'vdw'
p19
F1.7999999523162842
sS'name'
p20
S'N'
sS'b'
F0
sS'index'
p21
I1
sS'chain'
p22
S''
sba(ichempy
Atom
(dp23
g6
S'GLN'
sg7
I1
sg8
F0.053599998354911804
sg9
I0
sg10
S''
sg11
S'1'
sg12
I1
sS'q'
F1
sg13
I0
sg14
(lp24
F1.5440000295639038
aF-0.030999999493360519
aF0
asg16
S'C'
sg17
S'CT'
sg18
I0
sg19
F1.7999999523162842
sg20
S'CA'
sS'b'
F0
sg21
I2
sg22
S''
sba(ichempy
Atom
(dp25
g6
S'GLN'
sg7
I2
sg8
F0.065099999308586121
sg9
I0
sg10
S''
sg11
S'1'
sg12
I1
sS'q'
F1
sg13
I0
sg14
(lp26
F2.1029999256134033
aF-0.76899999380111694
aF-1.2359999418258667
asg16
S'C'
sg17
S'CT'
sg18
I0
sg19
F1.7999999523162842
sg20
S'CB'
sS'b'
F0
sg21
I3
sg22
S''
sba(ichempy
Atom
(dp27
g6
S'GLN'
sg7
I4
sg8
F-0.090300001204013824
sg9
I0
sg10
S''
sg11
S'1'
sg12
I1
sS'q'
F1
sg13
I0
sg14
(lp28
F3.6610000133514404
aF-0.78799998760223389
aF-1.3839999437332153
asg16
S'C'
sg17
S'CT'
sg18
I0
sg19
F1.7999999523162842
sg20
S'CG'
sS'b'
F0
sg21
I4
sg22
S''
sba(ichempy
Atom
(dp29
g6
S'GLN'
sg7
I3
sg8
F0.73540002107620239
sg9
I0
sg10
S''
sg11
S'1'
sg12
I1
sS'q'
F1
sg13
I0
sg14
(lp30
F4.2859997749328613
aF-1.4500000476837158
aF-2.6180000305175781
asg16
S'C'
sg17
S'C'
sg18
I0
sg19
F1.7999999523162842
sg20
S'CD'
sS'b'
F0
sg21
I5
sg22
S''
sba(ichempy
Atom
(dp31
g6
S'GLN'
sg7
I16
sg8
F-1.0031000375747681
sg9
I0
sg10
S''
sg11
S'1'
sg12
I1
sS'q'
F1
sg13
I0
sg14
(lp32
F3.5190000534057617
aF-2.005000114440918
aF-3.5220000743865967
asg16
S'N'
sg17
S'N'
sg18
I0
sg19
F1.7999999523162842
sg20
S'NE2'
sS'b'
F0
sg21
I6
sg22
S''
sba(ichempy
Atom
(dp33
g6
S'GLN'
sg7
I18
sg8
F-0.61330002546310425
sg9
I0
sg10
S''
sg11
S'1'
sg12
I1
sS'q'
F1
sg13
I0
sg14
(lp34
F5.494999885559082
aF-1.4500000476837158
aF-2.7890000343322754
asg16
S'O'
sg17
S'O'
sg18
I0
sg19
F1.5
sg20
S'OE1'
sS'b'
F0
sg21
I7
sg22
S''
sba(ichempy
Atom
(dp35
g6
S'GLN'
sg7
I0
sg8
F0.61229997873306274
sg9
I0
sg10
S''
sg11
S'1'
sg12
I1
sS'q'
F1
sg13
I0
sg14
(lp36
F1.9650000333786011
aF1.4190000295639038
aF0
asg16
S'C'
sg17
S'C'
sg18
I0
sg19
F1.7999999523162842
sg20
S'C'
sS'b'
F0
sg21
I8
sg22
S''
sba(ichempy
Atom
(dp37
g6
S'GLN'
sg7
I17
sg8
F-0.57130002975463867
sg9
I0
sg10
S''
sg11
S'1'
sg12
I1
sS'q'
F1
sg13
I0
sg14
(lp38
F1.1460000276565552
aF2.3350000381469727
aF0
asg16
S'O'
sg17
S'O'
sg18
I0
sg19
F1.5
sg20
S'O'
sS'b'
F0
sg21
I9
sg22
S''
sba(ichempy
Atom
(dp39
g6
S'GLN'
sg7
I5
sg8
F0.44290000200271606
sg9
I0
sg10
S''
sg11
S'1'
sg12
I1
sS'q'
F1
sg13
I0
sg14
(lp40
F4.0110001564025879
aF-2.3650000095367432
aF-4.3420000076293945
asg16
S'H'
sg17
S'H'
sg18
I0
sg19
F1.1000000238418579
sg20
S'1HE2'
sS'b'
F0
sg21
I10
sg22
S''
sba(ichempy
Atom
(dp41
g6
S'GLN'
sg7
I6
sg8
F0.19959999620914459
sg9
I0
sg10
S''
sg11
S'1'
sg12
I1
sS'q'
F1
sg13
I0
sg14
(lp42
F-0.17200000584125519
aF-1.1499999761581421
aF0
asg16
S'H'
sg17
S'H'
sg18
I0
sg19
F1.1000000238418579
sg20
S'1HT'
sS'b'
F0
sg21
I11
sg22
S''
sba(ichempy
Atom
(dp43
g6
S'GLN'
sg7
I7
sg8
F0.004999999888241291
sg9
I0
sg10
S''
sg11
S'1'
sg12
I1
sS'q'
F1
sg13
I0
sg14
(lp44
F1.6599999666213989
aF-0.31799998879432678
aF-2.1480000019073486
asg16
S'H'
sg17
S'HC'
sg18
I0
sg19
F1.1000000238418579
sg20
S'2HB'
sS'b'
F0
sg21
I12
sg22
S''
sba(ichempy
Atom
(dp45
g6
S'GLN'
sg7
I8
sg8
F0.44290000200271606
sg9
I0
sg10
S''
sg11
S'1'
sg12
I1
sS'q'
F1
sg13
I0
sg14
(lp46
F2.5169999599456787
aF-1.9110000133514404
aF-3.3540000915527344
asg16
S'H'
sg17
S'H'
sg18
I0
sg19
F1.1000000238418579
sg20
S'2HE2'
sS'b'
F0
sg21
I13
sg22
S''
sba(ichempy
Atom
(dp47
g6
S'GLN'
sg7
I9
sg8
F0.033100001513957977
sg9
I0
sg10
S''
sg11
S'1'
sg12
I1
sS'q'
F1
sg13
I0
sg14
(lp48
F4.1220002174377441
aF-1.2489999532699585
aF-0.49099999666213989
asg16
S'H'
sg17
S'HC'
sg18
I0
sg19
F1.1000000238418579
sg20
S'2HG'
sS'b'
F0
sg21
I14
sg22
S''
sba(ichempy
Atom
(dp49
g6
S'GLN'
sg7
I10
sg8
F0.19959999620914459
sg9
I0
sg10
S''
sg11
S'1'
sg12
I1
sS'q'
F1
sg13
I0
sg14
(lp50
F-0.29399999976158142
aF0.30199998617172241
aF0.8410000205039978
asg16
S'H'
sg17
S'H'
sg18
I0
sg19
F1.1000000238418579
sg20
S'2HT'
sS'b'
F0
sg21
I15
sg22
S''
sba(ichempy
Atom
(dp51
g6
S'GLN'
sg7
I11
sg8
F0.004999999888241291
sg9
I0
sg10
S''
sg11
S'1'
sg12
I1
sS'q'
F1
sg13
I0
sg14
(lp52
F1.7389999628067017
aF-1.8159999847412109
aF-1.2230000495910645
asg16
S'H'
sg17
S'HC'
sg18
I0
sg19
F1.1000000238418579
sg20
S'3HB'
sS'b'
F0
sg21
I16
sg22
S''
sba(ichempy
Atom
(dp53
g6
S'GLN'
sg7
I12
sg8
F0.033100001513957977
sg9
I0
sg10
S''
sg11
S'1'
sg12
I1
sS'q'
F1
sg13
I0
sg14
(lp54
F4.0570001602172852
aF0.24400000274181366
aF-1.3949999809265137
asg16
S'H'
sg17
S'HC'
sg18
I0
sg19
F1.1000000238418579
sg20
S'3HG'
sS'b'
F0
sg21
I17
sg22
S''
sba(ichempy
Atom
(dp55
g6
S'GLN'
sg7
I13
sg8
F0.19959999620914459
sg9
I0
sg10
S''
sg11
S'1'
sg12
I1
sS'q'
F1
sg13
I0
sg14
(lp56
F-0.29399999976158142
aF0.30199998617172241
aF-0.8410000205039978
asg16
S'H'
sg17
S'H'
sg18
I0
sg19
F1.1000000238418579
sg20
S'3HT'
sS'b'
F0
sg21
I18
sg22
S''
sba(ichempy
Atom
(dp57
g6
S'GLN'
sg7
I14
sg8
F0.10149999707937241
sg9
I0
sg10
S''
sg11
S'1'
sg12
I1
sS'q'
F1
sg13
I0
sg14
(lp58
F1.9390000104904175
aF-0.49500000476837158
aF0.92299997806549072
asg16
S'H'
sg17
S'HP'
sg18
I0
sg19
F1.1000000238418579
sg20
S'HA'
sS'b'
F0
sg21
I19
sg22
S''
sbasS'molecule'
p59
(ichempy
Molecule
(dp60
bsg21
NsS'bond'
p61
(lp62
(ichempy
Bond
(dp63
S'order'
p64
I1
sg21
(lp65
I0
aI1
asba(ichempy
Bond
(dp66
g64
I1
sg21
(lp67
I0
aI10
asba(ichempy
Bond
(dp68
g64
I1
sg21
(lp69
I0
aI14
asba(ichempy
Bond
(dp70
g64
I1
sg21
(lp71
I0
aI17
asba(ichempy
Bond
(dp72
g64
I1
sg21
(lp73
I1
aI2
asba(ichempy
Bond
(dp74
g64
I1
sg21
(lp75
I1
aI7
asba(ichempy
Bond
(dp76
g64
I1
sg21
(lp77
I1
aI18
asba(ichempy
Bond
(dp78
g64
I1
sg21
(lp79
I3
aI2
asba(ichempy
Bond
(dp80
g64
I1
sg21
(lp81
I4
aI3
asba(ichempy
Bond
(dp82
g64
I1
sg21
(lp83
I5
aI4
asba(ichempy
Bond
(dp84
g64
I2
sg21
(lp85
I6
aI4
asba(ichempy
Bond
(dp86
g64
I2
sg21
(lp87
I7
aI8
asba(ichempy
Bond
(dp88
g64
I1
sg21
(lp89
I9
aI5
asba(ichempy
Bond
(dp90
g64
I1
sg21
(lp91
I11
aI2
asba(ichempy
Bond
(dp92
g64
I1
sg21
(lp93
I12
aI5
asba(ichempy
Bond
(dp94
g64
I1
sg21
(lp95
I13
aI3
asba(ichempy
Bond
(dp96
g64
I1
sg21
(lp97
I15
aI2
asba(ichempy
Bond
(dp98
g64
I1
sg21
(lp99
I16
aI3
asbasb.