(ichempy.models
Indexed
p1
(dp2
S'atom'
p3
(lp4
(ichempy
Atom
(dp5
S'resn'
p6
S'HIP'
sS'id'
p7
I16
sS'partial_charge'
p8
F0.25600001215934753
sS'formal_charge'
p9
I0
sS'segi'
p10
S''
sS'resi'
p11
S'1'
sS'resi_number'
p12
I1
sS'q'
F1
sS'hetatm'
p13
I0
sS'coord'
p14
(lp15
F-2.1889998912811279
aF0.91200000047683716
aF8.8579998016357422
asS'symbol'
p16
S'N'
sS'text_type'
p17
S'N3'
sS'flags'
p18
I0
sS'vdw'
p19
F1.7999999523162842
sS'name'
p20
S'N'
sS'b'
F0
sS'index'
p21
I1
sS'chain'
p22
S''
sba(ichempy
Atom
(dp23
g6
S'HIP'
sg7
I1
sg8
F0.058100000023841858
sg9
I0
sg10
S''
sg11
S'1'
sg12
I1
sS'q'
F1
sg13
I0
sg14
(lp24
F-0.73299998044967651
aF1.0260000228881836
aF8.8579998016357422
asg16
S'C'
sg17
S'CT'
sg18
I0
sg19
F1.7999999523162842
sg20
S'CA'
sS'b'
F0
sg21
I2
sg22
S''
sba(ichempy
Atom
(dp25
g6
S'HIP'
sg7
I2
sg8
F0.048399999737739563
sg9
I0
sg10
S''
sg11
S'1'
sg12
I1
sS'q'
F1
sg13
I0
sg14
(lp26
F-0.19099999964237213
aF0.24899999797344208
aF7.6129999160766602
asg16
S'C'
sg17
S'CT'
sg18
I0
sg19
F1.7999999523162842
sg20
S'CB'
sS'b'
F0
sg21
I3
sg22
S''
sba(ichempy
Atom
(dp27
g6
S'HIP'
sg7
I5
sg8
F-0.023600000888109207
sg9
I0
sg10
S''
sg11
S'1'
sg12
I1
sS'q'
F1
sg13
I0
sg14
(lp28
F0.74099999666213989
aF-0.9309999942779541
aF7.8810000419616699
asg16
S'C'
sg17
S'CC'
sg18
I0
sg19
F1.7999999523162842
sg20
S'CG'
sS'b'
F0
sg21
I4
sg22
S''
sba(ichempy
Atom
(dp29
g6
S'HIP'
sg7
I3
sg8
F-0.14329999685287476
sg9
I0
sg10
S''
sg11
S'1'
sg12
I1
sS'q'
F1
sg13
I0
sg14
(lp30
F0.30700001120567322
aF-2.2539999485015869
aF8.0860004425048828
asg16
S'C'
sg17
S'CW'
sg18
I0
sg19
F1.7999999523162842
sg20
S'CD2'
sS'b'
F0
sg21
I5
sg22
S''
sba(ichempy
Atom
(dp31
g6
S'HIP'
sg7
I17
sg8
F-0.15099999308586121
sg9
I0
sg10
S''
sg11
S'1'
sg12
I1
sS'q'
F1
sg13
I0
sg14
(lp32
F2.124000072479248
aF-0.87599998712539673
aF7.9720001220703125
asg16
S'N'
sg17
S'NA'
sg18
I0
sg19
F1.7999999523162842
sg20
S'ND1'
sS'b'
F0
sg21
I6
sg22
S''
sba(ichempy
Atom
(dp33
g6
S'HIP'
sg7
I4
sg8
F-0.0010999999940395355
sg9
I0
sg10
S''
sg11
S'1'
sg12
I1
sS'q'
F1
sg13
I0
sg14
(lp34
F2.4319999217987061
aF-2.1809999942779541
aF8.2349996566772461
asg16
S'C'
sg17
S'CR'
sg18
I0
sg19
F1.7999999523162842
sg20
S'CE1'
sS'b'
F0
sg21
I7
sg22
S''
sba(ichempy
Atom
(dp35
g6
S'HIP'
sg7
I18
sg8
F-0.17389999330043793
sg9
I0
sg10
S''
sg11
S'1'
sg12
I1
sS'q'
F1
sg13
I0
sg14
(lp36
F1.4019999504089355
aF-3.0850000381469727
aF8.3149995803833008
asg16
S'N'
sg17
S'NA'
sg18
I0
sg19
F1.7999999523162842
sg20
S'NE2'
sS'b'
F0
sg21
I8
sg22
S''
sba(ichempy
Atom
(dp37
g6
S'HIP'
sg7
I0
sg8
F0.72140002250671387
sg9
I0
sg10
S''
sg11
S'1'
sg12
I1
sS'q'
F1
sg13
I0
sg14
(lp38
F-0.30399999022483826
aF2.4739999771118164
aF8.8579998016357422
asg16
S'C'
sg17
S'C'
sg18
I0
sg19
F1.7999999523162842
sg20
S'C'
sS'b'
F0
sg21
I9
sg22
S''
sba(ichempy
Atom
(dp39
g6
S'HIP'
sg7
I19
sg8
F-0.60130000114440918
sg9
I0
sg10
S''
sg11
S'1'
sg12
I1
sS'q'
F1
sg13
I0
sg14
(lp40
F-1.1260000467300415
aF3.4030001163482666
aF8.8579998016357422
asg16
S'O'
sg17
S'O'
sg18
I0
sg19
F1.5
sg20
S'O'
sS'b'
F0
sg21
I10
sg22
S''
sba(ichempy
Atom
(dp41
g6
S'HIP'
sg7
I6
sg8
F0.38209998607635498
sg9
I0
sg10
S''
sg11
S'1'
sg12
I1
sS'q'
F1
sg13
I0
sg14
(lp42
F2.7420001029968262
aF-0.054000001400709152
aF7.9330000877380371
asg16
S'H'
sg17
S'H'
sg18
I0
sg19
F1.1000000238418579
sg20
S'1HD'
sS'b'
F0
sg21
I11
sg22
S''
sba(ichempy
Atom
(dp43
g6
S'HIP'
sg7
I7
sg8
F0.26449999213218689
sg9
I0
sg10
S''
sg11
S'1'
sg12
I1
sS'q'
F1
sg13
I0
sg14
(lp44
F3.4679999351501465
aF-2.4869999885559082
aF8.3839998245239258
asg16
S'H'
sg17
S'H5'
sg18
I0
sg19
F1.1000000238418579
sg20
S'1HE'
sS'b'
F0
sg21
I12
sg22
S''
sba(ichempy
Atom
(dp45
g6
S'HIP'
sg7
I8
sg8
F0.1703999936580658
sg9
I0
sg10
S''
sg11
S'1'
sg12
I1
sS'q'
F1
sg13
I0
sg14
(lp46
F-2.4549999237060547
aF-0.082999996840953827
aF8.8579998016357422
asg16
S'H'
sg17
S'H'
sg18
I0
sg19
F1.1000000238418579
sg20
S'1HT'
sS'b'
F0
sg21
I13
sg22
S''
sba(ichempy
Atom
(dp47
g6
S'HIP'
sg7
I9
sg8
F0.053100001066923141
sg9
I0
sg10
S''
sg11
S'1'
sg12
I1
sS'q'
F1
sg13
I0
sg14
(lp48
F0.32699999213218689
aF0.94300001859664917
aF6.9200000762939453
asg16
S'H'
sg17
S'HC'
sg18
I0
sg19
F1.1000000238418579
sg20
S'2HB'
sS'b'
F0
sg21
I14
sg22
S''
sba(ichempy
Atom
(dp49
g6
S'HIP'
sg7
I10
sg8
F0.24950000643730164
sg9
I0
sg10
S''
sg11
S'1'
sg12
I1
sS'q'
F1
sg13
I0
sg14
(lp50
F-0.73500001430511475
aF-2.562000036239624
aF8.0729999542236328
asg16
S'H'
sg17
S'H4'
sg18
I0
sg19
F1.1000000238418579
sg20
S'2HD'
sS'b'
F0
sg21
I15
sg22
S''
sba(ichempy
Atom
(dp51
g6
S'HIP'
sg7
I11
sg8
F0.3921000063419342
sg9
I0
sg10
S''
sg11
S'1'
sg12
I1
sS'q'
F1
sg13
I0
sg14
(lp52
F1.4340000152587891
aF-4.0949997901916504
aF8.5089998245239258
asg16
S'H'
sg17
S'H'
sg18
I0
sg19
F1.1000000238418579
sg20
S'2HE'
sS'b'
F0
sg21
I16
sg22
S''
sba(ichempy
Atom
(dp53
g6
S'HIP'
sg7
I12
sg8
F0.1703999936580658
sg9
I0
sg10
S''
sg11
S'1'
sg12
I1
sS'q'
F1
sg13
I0
sg14
(lp54
F-2.5699999332427979
aF1.3689999580383301
aF9.6979999542236328
asg16
S'H'
sg17
S'H'
sg18
I0
sg19
F1.1000000238418579
sg20
S'2HT'
sS'b'
F0
sg21
I17
sg22
S''
sba(ichempy
Atom
(dp55
g6
S'HIP'
sg7
I13
sg8
F0.053100001066923141
sg9
I0
sg10
S''
sg11
S'1'
sg12
I1
sS'q'
F1
sg13
I0
sg14
(lp56
F-1.0219999551773071
aF-0.11699999868869781
aF6.9739999771118164
asg16
S'H'
sg17
S'HC'
sg18
I0
sg19
F1.1000000238418579
sg20
S'3HB'
sS'b'
F0
sg21
I18
sg22
S''
sba(ichempy
Atom
(dp57
g6
S'HIP'
sg7
I14
sg8
F0.1703999936580658
sg9
I0
sg10
S''
sg11
S'1'
sg12
I1
sS'q'
F1
sg13
I0
sg14
(lp58
F-2.5699999332427979
aF1.3689999580383301
aF8.0170001983642578
asg16
S'H'
sg17
S'H'
sg18
I0
sg19
F1.1000000238418579
sg20
S'3HT'
sS'b'
F0
sg21
I19
sg22
S''
sba(ichempy
Atom
(dp59
g6
S'HIP'
sg7
I15
sg8
F0.1046999990940094
sg9
I0
sg10
S''
sg11
S'1'
sg12
I1
sS'q'
F1
sg13
I0
sg14
(lp60
F-0.37400001287460327
aF0.61900001764297485
aF9.819000244140625
asg16
S'H'
sg17
S'HP'
sg18
I0
sg19
F1.1000000238418579
sg20
S'HA'
sS'b'
F0
sg21
I20
sg22
S''
sbasS'molecule'
p61
(ichempy
Molecule
(dp62
bsg21
NsS'bond'
p63
(lp64
(ichempy
Bond
(dp65
S'order'
p66
I1
sg21
(lp67
I0
aI1
asba(ichempy
Bond
(dp68
g66
I1
sg21
(lp69
I0
aI12
asba(ichempy
Bond
(dp70
g66
I1
sg21
(lp71
I0
aI16
asba(ichempy
Bond
(dp72
g66
I1
sg21
(lp73
I0
aI18
asba(ichempy
Bond
(dp74
g66
I1
sg21
(lp75
I1
aI2
asba(ichempy
Bond
(dp76
g66
I1
sg21
(lp77
I1
aI8
asba(ichempy
Bond
(dp78
g66
I1
sg21
(lp79
I1
aI19
asba(ichempy
Bond
(dp80
g66
I1
sg21
(lp81
I3
aI2
asba(ichempy
Bond
(dp82
g66
I2
sg21
(lp83
I3
aI4
asba(ichempy
Bond
(dp84
g66
I1
sg21
(lp85
I4
aI7
asba(ichempy
Bond
(dp86
g66
I1
sg21
(lp87
I5
aI3
asba(ichempy
Bond
(dp88
g66
I2
sg21
(lp89
I6
aI5
asba(ichempy
Bond
(dp90
g66
I1
sg21
(lp91
I7
aI6
asba(ichempy
Bond
(dp92
g66
I2
sg21
(lp93
I8
aI9
asba(ichempy
Bond
(dp94
g66
I1
sg21
(lp95
I10
aI5
asba(ichempy
Bond
(dp96
g66
I1
sg21
(lp97
I11
aI6
asba(ichempy
Bond
(dp98
g66
I1
sg21
(lp99
I13
aI2
asba(ichempy
Bond
(dp100
g66
I1
sg21
(lp101
I14
aI4
asba(ichempy
Bond
(dp102
g66
I1
sg21
(lp103
I15
aI7
asba(ichempy
Bond
(dp104
g66
I1
sg21
(lp105
I17
aI2
asbasb.