(ichempy.models
Indexed
p1
(dp2
S'atom'
p3
(lp4
(ichempy
Atom
(dp5
S'resn'
p6
S'LYS'
sS'id'
p7
I21
sS'partial_charge'
p8
F0.0966000035405159
sS'formal_charge'
p9
I0
sS'segi'
p10
S''
sS'resi'
p11
S'1'
sS'resi_number'
p12
I1
sS'q'
F1
sS'hetatm'
p13
I0
sS'coord'
p14
(lp15
F0.10199999809265137
aF-0.14300000667572021
aF0
asS'symbol'
p16
S'N'
sS'text_type'
p17
S'N3'
sS'flags'
p18
I0
sS'vdw'
p19
F1.7999999523162842
sS'name'
p20
S'N'
sS'b'
F0
sS'index'
p21
I1
sS'chain'
p22
S''
sba(ichempy
Atom
(dp23
g6
S'LYS'
sg7
I1
sg8
F-0.001500000013038516
sg9
I0
sg10
S''
sg11
S'1'
sg12
I1
sS'q'
F1
sg13
I0
sg14
(lp24
F1.5579999685287476
aF-0.028999999165534973
aF0
asg16
S'C'
sg17
S'CT'
sg18
I0
sg19
F1.7999999523162842
sg20
S'CA'
sS'b'
F0
sg21
I2
sg22
S''
sba(ichempy
Atom
(dp25
g6
S'LYS'
sg7
I2
sg8
F0.021199999377131462
sg9
I0
sg10
S''
sg11
S'1'
sg12
I1
sS'q'
F1
sg13
I0
sg14
(lp26
F2.1349999904632568
aF-0.77999997138977051
aF-1.2309999465942383
asg16
S'C'
sg17
S'CT'
sg18
I0
sg19
F1.7999999523162842
sg20
S'CB'
sS'b'
F0
sg21
I3
sg22
S''
sba(ichempy
Atom
(dp27
g6
S'LYS'
sg7
I5
sg8
F-0.0048000002279877663
sg9
I0
sg10
S''
sg11
S'1'
sg12
I1
sS'q'
F1
sg13
I0
sg14
(lp28
F3.6840000152587891
aF-0.78100001811981201
aF-1.281000018119812
asg16
S'C'
sg17
S'CT'
sg18
I0
sg19
F1.7999999523162842
sg20
S'CG'
sS'b'
F0
sg21
I4
sg22
S''
sba(ichempy
Atom
(dp29
g6
S'LYS'
sg7
I3
sg8
F-0.06080000102519989
sg9
I0
sg10
S''
sg11
S'1'
sg12
I1
sS'q'
F1
sg13
I0
sg14
(lp30
F4.2880001068115234
aF-1.4550000429153442
aF-2.5160000324249268
asg16
S'C'
sg17
S'CT'
sg18
I0
sg19
F1.7999999523162842
sg20
S'CD'
sS'b'
F0
sg21
I5
sg22
S''
sba(ichempy
Atom
(dp31
g6
S'LYS'
sg7
I4
sg8
F-0.01810000091791153
sg9
I0
sg10
S''
sg11
S'1'
sg12
I1
sS'q'
F1
sg13
I0
sg14
(lp32
F5.815000057220459
aF-1.3200000524520874
aF-2.4700000286102295
asg16
S'C'
sg17
S'CT'
sg18
I0
sg19
F1.7999999523162842
sg20
S'CE'
sS'b'
F0
sg21
I6
sg22
S''
sba(ichempy
Atom
(dp33
g6
S'LYS'
sg7
I22
sg8
F-0.37639999389648438
sg9
I0
sg10
S''
sg11
S'1'
sg12
I1
sS'q'
F1
sg13
I0
sg14
(lp34
F6.4099998474121094
aF-2.1129999160766602
aF-3.559999942779541
asg16
S'N'
sg17
S'N3'
sg18
I0
sg19
F1.7999999523162842
sg20
S'NZ'
sS'b'
F0
sg21
I7
sg22
S''
sba(ichempy
Atom
(dp35
g6
S'LYS'
sg7
I0
sg8
F0.72140002250671387
sg9
I0
sg10
S''
sg11
S'1'
sg12
I1
sS'q'
F1
sg13
I0
sg14
(lp36
F1.9859999418258667
aF1.4190000295639038
aF0
asg16
S'C'
sg17
S'C'
sg18
I0
sg19
F1.7999999523162842
sg20
S'C'
sS'b'
F0
sg21
I8
sg22
S''
sba(ichempy
Atom
(dp37
g6
S'LYS'
sg7
I23
sg8
F-0.60130000114440918
sg9
I0
sg10
S''
sg11
S'1'
sg12
I1
sS'q'
F1
sg13
I0
sg14
(lp38
F1.1649999618530273
aF2.3480000495910645
aF0
asg16
S'O'
sg17
S'O'
sg18
I0
sg19
F1.5
sg20
S'O'
sS'b'
F0
sg21
I9
sg22
S''
sba(ichempy
Atom
(dp39
g6
S'LYS'
sg7
I6
sg8
F0.21649999916553497
sg9
I0
sg10
S''
sg11
S'1'
sg12
I1
sS'q'
F1
sg13
I0
sg14
(lp40
F-0.164000004529953
aF-1.1380000114440918
aF0
asg16
S'H'
sg17
S'H'
sg18
I0
sg19
F1.1000000238418579
sg20
S'1HT'
sS'b'
F0
sg21
I10
sg22
S''
sba(ichempy
Atom
(dp41
g6
S'LYS'
sg7
I7
sg8
F0.33820000290870667
sg9
I0
sg10
S''
sg11
S'1'
sg12
I1
sS'q'
F1
sg13
I0
sg14
(lp42
F5.8260002136230469
aF-2.0659999847412109
aF-4.4029998779296875
asg16
S'H'
sg17
S'H'
sg18
I0
sg19
F1.1000000238418579
sg20
S'1HZ'
sS'b'
F0
sg21
I11
sg22
S''
sba(ichempy
Atom
(dp43
g6
S'LYS'
sg7
I8
sg8
F0.028300000354647636
sg9
I0
sg10
S''
sg11
S'1'
sg12
I1
sS'q'
F1
sg13
I0
sg14
(lp44
F1.7289999723434448
aF-0.33399999141693115
aF-2.1630001068115234
asg16
S'H'
sg17
S'HC'
sg18
I0
sg19
F1.1000000238418579
sg20
S'2HB'
sS'b'
F0
sg21
I12
sg22
S''
sba(ichempy
Atom
(dp45
g6
S'LYS'
sg7
I9
sg8
F0.063299998641014099
sg9
I0
sg10
S''
sg11
S'1'
sg12
I1
sS'q'
F1
sg13
I0
sg14
(lp46
F3.8880000114440918
aF-0.98100000619888306
aF-3.4360001087188721
asg16
S'H'
sg17
S'HC'
sg18
I0
sg19
F1.1000000238418579
sg20
S'2HD'
sS'b'
F0
sg21
I13
sg22
S''
sba(ichempy
Atom
(dp47
g6
S'LYS'
sg7
I10
sg8
F0.11710000038146973
sg9
I0
sg10
S''
sg11
S'1'
sg12
I1
sS'q'
F1
sg13
I0
sg14
(lp48
F6.2189998626708984
aF-1.6660000085830688
aF-1.4960000514984131
asg16
S'H'
sg17
S'HP'
sg18
I0
sg19
F1.1000000238418579
sg20
S'2HE'
sS'b'
F0
sg21
I14
sg22
S''
sba(ichempy
Atom
(dp49
g6
S'LYS'
sg7
I11
sg8
F0.012099999934434891
sg9
I0
sg10
S''
sg11
S'1'
sg12
I1
sS'q'
F1
sg13
I0
sg14
(lp50
F4.0840001106262207
aF-1.25
aF-0.36100000143051147
asg16
S'H'
sg17
S'HC'
sg18
I0
sg19
F1.1000000238418579
sg20
S'2HG'
sS'b'
F0
sg21
I15
sg22
S''
sba(ichempy
Atom
(dp51
g6
S'LYS'
sg7
I12
sg8
F0.21649999916553497
sg9
I0
sg10
S''
sg11
S'1'
sg12
I1
sS'q'
F1
sg13
I0
sg14
(lp52
F-0.27900001406669617
aF0.31400001049041748
aF0.8410000205039978
asg16
S'H'
sg17
S'H'
sg18
I0
sg19
F1.1000000238418579
sg20
S'2HT'
sS'b'
F0
sg21
I16
sg22
S''
sba(ichempy
Atom
(dp53
g6
S'LYS'
sg7
I13
sg8
F0.33820000290870667
sg9
I0
sg10
S''
sg11
S'1'
sg12
I1
sS'q'
F1
sg13
I0
sg14
(lp54
F7.3289999961853027
aF-1.7450000047683716
aF-3.8299999237060547
asg16
S'H'
sg17
S'H'
sg18
I0
sg19
F1.1000000238418579
sg20
S'2HZ'
sS'b'
F0
sg21
I17
sg22
S''
sba(ichempy
Atom
(dp55
g6
S'LYS'
sg7
I14
sg8
F0.028300000354647636
sg9
I0
sg10
S''
sg11
S'1'
sg12
I1
sS'q'
F1
sg13
I0
sg14
(lp56
F1.7719999551773071
aF-1.8259999752044678
aF-1.2339999675750732
asg16
S'H'
sg17
S'HC'
sg18
I0
sg19
F1.1000000238418579
sg20
S'3HB'
sS'b'
F0
sg21
I18
sg22
S''
sba(ichempy
Atom
(dp57
g6
S'LYS'
sg7
I15
sg8
F0.063299998641014099
sg9
I0
sg10
S''
sg11
S'1'
sg12
I1
sS'q'
F1
sg13
I0
sg14
(lp58
F3.9760000705718994
aF-2.5179998874664307
aF-2.5529999732971191
asg16
S'H'
sg17
S'HC'
sg18
I0
sg19
F1.1000000238418579
sg20
S'3HD'
sS'b'
F0
sg21
I19
sg22
S''
sba(ichempy
Atom
(dp59
g6
S'LYS'
sg7
I16
sg8
F0.11710000038146973
sg9
I0
sg10
S''
sg11
S'1'
sg12
I1
sS'q'
F1
sg13
I0
sg14
(lp60
F6.1139998435974121
aF-0.25400000810623169
aF-2.5590000152587891
asg16
S'H'
sg17
S'HP'
sg18
I0
sg19
F1.1000000238418579
sg20
S'3HE'
sS'b'
F0
sg21
I20
sg22
S''
sba(ichempy
Atom
(dp61
g6
S'LYS'
sg7
I17
sg8
F0.012099999934434891
sg9
I0
sg10
S''
sg11
S'1'
sg12
I1
sS'q'
F1
sg13
I0
sg14
(lp62
F4.0669999122619629
aF0.25699999928474426
aF-1.2740000486373901
asg16
S'H'
sg17
S'HC'
sg18
I0
sg19
F1.1000000238418579
sg20
S'3HG'
sS'b'
F0
sg21
I21
sg22
S''
sba(ichempy
Atom
(dp63
g6
S'LYS'
sg7
I18
sg8
F0.21649999916553497
sg9
I0
sg10
S''
sg11
S'1'
sg12
I1
sS'q'
F1
sg13
I0
sg14
(lp64
F-0.27900001406669617
aF0.31400001049041748
aF-0.8410000205039978
asg16
S'H'
sg17
S'H'
sg18
I0
sg19
F1.1000000238418579
sg20
S'3HT'
sS'b'
F0
sg21
I22
sg22
S''
sba(ichempy
Atom
(dp65
g6
S'LYS'
sg7
I19
sg8
F0.33820000290870667
sg9
I0
sg10
S''
sg11
S'1'
sg12
I1
sS'q'
F1
sg13
I0
sg14
(lp66
F6.4873285293579102
aF-3.0588431358337402
aF-3.2143111228942871
asg16
S'H'
sg17
S'H'
sg18
I0
sg19
F1.1000000238418579
sg20
S'3HZ'
sS'b'
F0
sg21
I23
sg22
S''
sba(ichempy
Atom
(dp67
g6
S'LYS'
sg7
I20
sg8
F0.11800000071525574
sg9
I0
sg10
S''
sg11
S'1'
sg12
I1
sS'q'
F1
sg13
I0
sg14
(lp68
F1.9440000057220459
aF-0.49000000953674316
aF0.92799997329711914
asg16
S'H'
sg17
S'HP'
sg18
I0
sg19
F1.1000000238418579
sg20
S'HA'
sS'b'
F0
sg21
I24
sg22
S''
sbasS'molecule'
p69
(ichempy
Molecule
(dp70
bsg21
NsS'bond'
p71
(lp72
(ichempy
Bond
(dp73
S'order'
p74
I1
sg21
(lp75
I0
aI1
asba(ichempy
Bond
(dp76
g74
I1
sg21
(lp77
I0
aI9
asba(ichempy
Bond
(dp78
g74
I1
sg21
(lp79
I0
aI15
asba(ichempy
Bond
(dp80
g74
I1
sg21
(lp81
I0
aI21
asba(ichempy
Bond
(dp82
g74
I1
sg21
(lp83
I1
aI2
asba(ichempy
Bond
(dp84
g74
I1
sg21
(lp85
I1
aI7
asba(ichempy
Bond
(dp86
g74
I1
sg21
(lp87
I1
aI23
asba(ichempy
Bond
(dp88
g74
I1
sg21
(lp89
I3
aI2
asba(ichempy
Bond
(dp90
g74
I1
sg21
(lp91
I4
aI3
asba(ichempy
Bond
(dp92
g74
I1
sg21
(lp93
I5
aI4
asba(ichempy
Bond
(dp94
g74
I1
sg21
(lp95
I6
aI5
asba(ichempy
Bond
(dp96
g74
I1
sg21
(lp97
I6
aI22
asba(ichempy
Bond
(dp98
g74
I2
sg21
(lp99
I7
aI8
asba(ichempy
Bond
(dp100
g74
I1
sg21
(lp101
I10
aI6
asba(ichempy
Bond
(dp102
g74
I1
sg21
(lp103
I11
aI2
asba(ichempy
Bond
(dp104
g74
I1
sg21
(lp105
I12
aI4
asba(ichempy
Bond
(dp106
g74
I1
sg21
(lp107
I13
aI5
asba(ichempy
Bond
(dp108
g74
I1
sg21
(lp109
I14
aI3
asba(ichempy
Bond
(dp110
g74
I1
sg21
(lp111
I16
aI6
asba(ichempy
Bond
(dp112
g74
I1
sg21
(lp113
I17
aI2
asba(ichempy
Bond
(dp114
g74
I1
sg21
(lp115
I18
aI4
asba(ichempy
Bond
(dp116
g74
I1
sg21
(lp117
I19
aI5
asba(ichempy
Bond
(dp118
g74
I1
sg21
(lp119
I20
aI3
asbasb.