(ichempy.models
Indexed
p1
(dp2
S'atom'
p3
(lp4
(ichempy
Atom
(dp5
S'resn'
p6
S'MET'
sS'id'
p7
I16
sS'partial_charge'
p8
F0.15919999778270721
sS'formal_charge'
p9
I0
sS'segi'
p10
S''
sS'resi'
p11
S'1'
sS'resi_number'
p12
I1
sS'q'
F1
sS'hetatm'
p13
I0
sS'coord'
p14
(lp15
F0.071000002324581146
aF-0.21500000357627869
aF0
asS'symbol'
p16
S'N'
sS'text_type'
p17
S'N3'
sS'flags'
p18
I0
sS'vdw'
p19
F1.7999999523162842
sS'name'
p20
S'N'
sS'b'
F0
sS'index'
p21
I1
sS'chain'
p22
S''
sba(ichempy
Atom
(dp23
g6
S'MET'
sg7
I1
sg8
F0.022099999710917473
sg9
I0
sg10
S''
sg11
S'1'
sg12
I1
sS'q'
F1
sg13
I0
sg14
(lp24
F1.5190000534057617
aF-0.024000000208616257
aF0
asg16
S'C'
sg17
S'CT'
sg18
I0
sg19
F1.7999999523162842
sg20
S'CA'
sS'b'
F0
sg21
I2
sg22
S''
sba(ichempy
Atom
(dp25
g6
S'MET'
sg7
I2
sg8
F0.086499996483325958
sg9
I0
sg10
S''
sg11
S'1'
sg12
I1
sS'q'
F1
sg13
I0
sg14
(lp26
F2.1459999084472656
aF-0.74500000476837158
aF-1.2250000238418579
asg16
S'C'
sg17
S'CT'
sg18
I0
sg19
F1.7999999523162842
sg20
S'CB'
sS'b'
F0
sg21
I3
sg22
S''
sba(ichempy
Atom
(dp27
g6
S'MET'
sg7
I4
sg8
F0.033399999141693115
sg9
I0
sg10
S''
sg11
S'1'
sg12
I1
sS'q'
F1
sg13
I0
sg14
(lp28
F1.9730000495910645
aF-2.2780001163482666
aF-1.2660000324249268
asg16
S'C'
sg17
S'CT'
sg18
I0
sg19
F1.7999999523162842
sg20
S'CG'
sS'b'
F0
sg21
I4
sg22
S''
sba(ichempy
Atom
(dp29
g6
S'MET'
sg7
I18
sg8
F-0.27739998698234558
sg9
I0
sg10
S''
sg11
S'1'
sg12
I1
sS'q'
F1
sg13
I0
sg14
(lp30
F2.9960000514984131
aF-2.9730000495910645
aF-2.5750000476837158
asg16
S'S'
sg17
S'S'
sg18
I0
sg19
F1.8999999761581421
sg20
S'SD'
sS'b'
F0
sg21
I5
sg22
S''
sba(ichempy
Atom
(dp31
g6
S'MET'
sg7
I3
sg8
F-0.034099999815225601
sg9
I0
sg10
S''
sg11
S'1'
sg12
I1
sS'q'
F1
sg13
I0
sg14
(lp32
F2.2880001068115234
aF-4.625
aF-2.6170001029968262
asg16
S'C'
sg17
S'CT'
sg18
I0
sg19
F1.7999999523162842
sg20
S'CE'
sS'b'
F0
sg21
I6
sg22
S''
sba(ichempy
Atom
(dp33
g6
S'MET'
sg7
I0
sg8
F0.61229997873306274
sg9
I0
sg10
S''
sg11
S'1'
sg12
I1
sS'q'
F1
sg13
I0
sg14
(lp34
F1.8710000514984131
aF1.4440000057220459
aF0
asg16
S'C'
sg17
S'C'
sg18
I0
sg19
F1.7999999523162842
sg20
S'C'
sS'b'
F0
sg21
I7
sg22
S''
sba(ichempy
Atom
(dp35
g6
S'MET'
sg7
I17
sg8
F-0.57130002975463867
sg9
I0
sg10
S''
sg11
S'1'
sg12
I1
sS'q'
F1
sg13
I0
sg14
(lp36
F1.0019999742507935
aF2.3280000686645508
aF0
asg16
S'O'
sg17
S'O'
sg18
I0
sg19
F1.5
sg20
S'O'
sS'b'
F0
sg21
I8
sg22
S''
sba(ichempy
Atom
(dp37
g6
S'MET'
sg7
I5
sg8
F0.059700001031160355
sg9
I0
sg10
S''
sg11
S'1'
sg12
I1
sS'q'
F1
sg13
I0
sg14
(lp38
F2.3369998931884766
aF-5.1030001640319824
aF-1.621999979019165
asg16
S'H'
sg17
S'H1'
sg18
I0
sg19
F1.1000000238418579
sg20
S'1HE'
sS'b'
F0
sg21
I9
sg22
S''
sba(ichempy
Atom
(dp39
g6
S'MET'
sg7
I6
sg8
F0.19840000569820404
sg9
I0
sg10
S''
sg11
S'1'
sg12
I1
sS'q'
F1
sg13
I0
sg14
(lp40
F-0.14300000667572021
aF-1.2220000028610229
aF0
asg16
S'H'
sg17
S'H'
sg18
I0
sg19
F1.1000000238418579
sg20
S'1HT'
sS'b'
F0
sg21
I10
sg22
S''
sba(ichempy
Atom
(dp41
g6
S'MET'
sg7
I7
sg8
F0.012500000186264515
sg9
I0
sg10
S''
sg11
S'1'
sg12
I1
sS'q'
F1
sg13
I0
sg14
(lp42
F3.2309999465942383
aF-0.52799999713897705
aF-1.2619999647140503
asg16
S'H'
sg17
S'HC'
sg18
I0
sg19
F1.1000000238418579
sg20
S'2HB'
sS'b'
F0
sg21
I11
sg22
S''
sba(ichempy
Atom
(dp43
g6
S'MET'
sg7
I8
sg8
F0.059700001031160355
sg9
I0
sg10
S''
sg11
S'1'
sg12
I1
sS'q'
F1
sg13
I0
sg14
(lp44
F1.2289999723434448
aF-4.5819997787475586
aF-2.9300000667572021
asg16
S'H'
sg17
S'H1'
sg18
I0
sg19
F1.1000000238418579
sg20
S'2HE'
sS'b'
F0
sg21
I12
sg22
S''
sba(ichempy
Atom
(dp45
g6
S'MET'
sg7
I9
sg8
F0.029200000688433647
sg9
I0
sg10
S''
sg11
S'1'
sg12
I1
sS'q'
F1
sg13
I0
sg14
(lp46
F0.91299998760223389
aF-2.5360000133514404
aF-1.4529999494552612
asg16
S'H'
sg17
S'H1'
sg18
I0
sg19
F1.1000000238418579
sg20
S'2HG'
sS'b'
F0
sg21
I13
sg22
S''
sba(ichempy
Atom
(dp47
g6
S'MET'
sg7
I10
sg8
F0.19840000569820404
sg9
I0
sg10
S''
sg11
S'1'
sg12
I1
sS'q'
F1
sg13
I0
sg14
(lp48
F-0.33300000429153442
aF0.22200000286102295
aF0.8410000205039978
asg16
S'H'
sg17
S'H'
sg18
I0
sg19
F1.1000000238418579
sg20
S'2HT'
sS'b'
F0
sg21
I14
sg22
S''
sba(ichempy
Atom
(dp49
g6
S'MET'
sg7
I11
sg8
F0.012500000186264515
sg9
I0
sg10
S''
sg11
S'1'
sg12
I1
sS'q'
F1
sg13
I0
sg14
(lp50
F1.7389999628067017
aF-0.31600001454353333
aF-2.1630001068115234
asg16
S'H'
sg17
S'HC'
sg18
I0
sg19
F1.1000000238418579
sg20
S'3HB'
sS'b'
F0
sg21
I15
sg22
S''
sba(ichempy
Atom
(dp51
g6
S'MET'
sg7
I12
sg8
F0.059700001031160355
sg9
I0
sg10
S''
sg11
S'1'
sg12
I1
sS'q'
F1
sg13
I0
sg14
(lp52
F2.8329999446868896
aF-5.2620000839233398
aF-3.3350000381469727
asg16
S'H'
sg17
S'H1'
sg18
I0
sg19
F1.1000000238418579
sg20
S'3HE'
sS'b'
F0
sg21
I16
sg22
S''
sba(ichempy
Atom
(dp53
g6
S'MET'
sg7
I13
sg8
F0.029200000688433647
sg9
I0
sg10
S''
sg11
S'1'
sg12
I1
sS'q'
F1
sg13
I0
sg14
(lp54
F2.247999906539917
aF-2.744999885559082
aF-0.30199998617172241
asg16
S'H'
sg17
S'H1'
sg18
I0
sg19
F1.1000000238418579
sg20
S'3HG'
sS'b'
F0
sg21
I17
sg22
S''
sba(ichempy
Atom
(dp55
g6
S'MET'
sg7
I14
sg8
F0.19840000569820404
sg9
I0
sg10
S''
sg11
S'1'
sg12
I1
sS'q'
F1
sg13
I0
sg14
(lp56
F-0.33300000429153442
aF0.22200000286102295
aF-0.8410000205039978
asg16
S'H'
sg17
S'H'
sg18
I0
sg19
F1.1000000238418579
sg20
S'3HT'
sS'b'
F0
sg21
I18
sg22
S''
sba(ichempy
Atom
(dp57
g6
S'MET'
sg7
I15
sg8
F0.11159999668598175
sg9
I0
sg10
S''
sg11
S'1'
sg12
I1
sS'q'
F1
sg13
I0
sg14
(lp58
F1.9320000410079956
aF-0.45699998736381531
aF0.93000000715255737
asg16
S'H'
sg17
S'HP'
sg18
I0
sg19
F1.1000000238418579
sg20
S'HA'
sS'b'
F0
sg21
I19
sg22
S''
sbasS'molecule'
p59
(ichempy
Molecule
(dp60
bsg21
NsS'bond'
p61
(lp62
(ichempy
Bond
(dp63
S'order'
p64
I1
sg21
(lp65
I0
aI1
asba(ichempy
Bond
(dp66
g64
I1
sg21
(lp67
I0
aI9
asba(ichempy
Bond
(dp68
g64
I1
sg21
(lp69
I0
aI13
asba(ichempy
Bond
(dp70
g64
I1
sg21
(lp71
I0
aI17
asba(ichempy
Bond
(dp72
g64
I1
sg21
(lp73
I1
aI2
asba(ichempy
Bond
(dp74
g64
I1
sg21
(lp75
I1
aI6
asba(ichempy
Bond
(dp76
g64
I1
sg21
(lp77
I1
aI18
asba(ichempy
Bond
(dp78
g64
I1
sg21
(lp79
I3
aI2
asba(ichempy
Bond
(dp80
g64
I1
sg21
(lp81
I4
aI3
asba(ichempy
Bond
(dp82
g64
I1
sg21
(lp83
I5
aI4
asba(ichempy
Bond
(dp84
g64
I2
sg21
(lp85
I6
aI7
asba(ichempy
Bond
(dp86
g64
I1
sg21
(lp87
I8
aI5
asba(ichempy
Bond
(dp88
g64
I1
sg21
(lp89
I10
aI2
asba(ichempy
Bond
(dp90
g64
I1
sg21
(lp91
I11
aI5
asba(ichempy
Bond
(dp92
g64
I1
sg21
(lp93
I12
aI3
asba(ichempy
Bond
(dp94
g64
I1
sg21
(lp95
I14
aI2
asba(ichempy
Bond
(dp96
g64
I1
sg21
(lp97
I15
aI5
asba(ichempy
Bond
(dp98
g64
I1
sg21
(lp99
I16
aI3
asbasb.