(ichempy.models
Indexed
p1
(dp2
S'atom'
p3
(lp4
(ichempy
Atom
(dp5
S'resn'
p6
S'THR'
sS'id'
p7
I13
sS'partial_charge'
p8
F0.18119999766349792
sS'formal_charge'
p9
I0
sS'segi'
p10
S''
sS'resi'
p11
S'1'
sS'resi_number'
p12
I1
sS'q'
F1
sS'hetatm'
p13
I0
sS'coord'
p14
(lp15
F0.079999998211860657
aF-0.082999996840953827
aF0
asS'symbol'
p16
S'N'
sS'text_type'
p17
S'N3'
sS'flags'
p18
I0
sS'vdw'
p19
F1.7999999523162842
sS'name'
p20
S'N'
sS'b'
F0
sS'index'
p21
I1
sS'chain'
p22
S''
sba(ichempy
Atom
(dp23
g6
S'THR'
sg7
I1
sg8
F0.0034000000450760126
sg9
I0
sg10
S''
sg11
S'1'
sg12
I1
sS'q'
F1
sg13
I0
sg14
(lp24
F1.5390000343322754
aF-0.032999999821186066
aF0
asg16
S'C'
sg17
S'CT'
sg18
I0
sg19
F1.7999999523162842
sg20
S'CA'
sS'b'
F0
sg21
I2
sg22
S''
sba(ichempy
Atom
(dp25
g6
S'THR'
sg7
I2
sg8
F0.45140001177787781
sg9
I0
sg10
S''
sg11
S'1'
sg12
I1
sS'q'
F1
sg13
I0
sg14
(lp26
F2.1159999370574951
aF-0.81800001859664917
aF-1.2259999513626099
asg16
S'C'
sg17
S'CT'
sg18
I0
sg19
F1.7999999523162842
sg20
S'CB'
sS'b'
F0
sg21
I3
sg22
S''
sba(ichempy
Atom
(dp27
g6
S'THR'
sg7
I3
sg8
F-0.25540000200271606
sg9
I0
sg10
S''
sg11
S'1'
sg12
I1
sS'q'
F1
sg13
I0
sg14
(lp28
F3.6540000438690186
aF-0.84200000762939453
aF-1.3609999418258667
asg16
S'C'
sg17
S'CT'
sg18
I0
sg19
F1.7999999523162842
sg20
S'CG2'
sS'b'
F0
sg21
I4
sg22
S''
sba(ichempy
Atom
(dp29
g6
S'THR'
sg7
I15
sg8
F-0.67640000581741333
sg9
I0
sg10
S''
sg11
S'1'
sg12
I1
sS'q'
F1
sg13
I0
sg14
(lp30
F1.7430000305175781
aF-2.187999963760376
aF-1.1619999408721924
asg16
S'O'
sg17
S'OH'
sg18
I0
sg19
F1.5
sg20
S'OG1'
sS'b'
F0
sg21
I5
sg22
S''
sba(ichempy
Atom
(dp31
g6
S'THR'
sg7
I0
sg8
F0.61629998683929443
sg9
I0
sg10
S''
sg11
S'1'
sg12
I1
sS'q'
F1
sg13
I0
sg14
(lp32
F2.0320000648498535
aF1.3940000534057617
aF0
asg16
S'C'
sg17
S'C'
sg18
I0
sg19
F1.7999999523162842
sg20
S'C'
sS'b'
F0
sg21
I6
sg22
S''
sba(ichempy
Atom
(dp33
g6
S'THR'
sg7
I14
sg8
F-0.57220000028610229
sg9
I0
sg10
S''
sg11
S'1'
sg12
I1
sS'q'
F1
sg13
I0
sg14
(lp34
F1.2680000066757202
aF2.3389999866485596
aF0
asg16
S'O'
sg17
S'O'
sg18
I0
sg19
F1.5
sg20
S'O'
sS'b'
F0
sg21
I7
sg22
S''
sba(ichempy
Atom
(dp35
g6
S'THR'
sg7
I4
sg8
F0.40700000524520874
sg9
I0
sg10
S''
sg11
S'1'
sg12
I1
sS'q'
F1
sg13
I0
sg14
(lp36
F2.0659999847412109
aF-2.5920000076293945
aF-1.9730000495910645
asg16
S'H'
sg17
S'HO'
sg18
I0
sg19
F1.1000000238418579
sg20
S'1HG'
sS'b'
F0
sg21
I8
sg22
S''
sba(ichempy
Atom
(dp37
g6
S'THR'
sg7
I5
sg8
F0.062700003385543823
sg9
I0
sg10
S''
sg11
S'1'
sg12
I1
sS'q'
F1
sg13
I0
sg14
(lp38
F3.9860000610351562
aF-1.4329999685287476
aF-2.2349998950958252
asg16
S'H'
sg17
S'HC'
sg18
I0
sg19
F1.1000000238418579
sg20
S'1HG2'
sS'b'
F0
sg21
I9
sg22
S''
sba(ichempy
Atom
(dp39
g6
S'THR'
sg7
I6
sg8
F0.19339999556541443
sg9
I0
sg10
S''
sg11
S'1'
sg12
I1
sS'q'
F1
sg13
I0
sg14
(lp40
F-0.23000000417232513
aF-1.065000057220459
aF0
asg16
S'H'
sg17
S'H'
sg18
I0
sg19
F1.1000000238418579
sg20
S'1HT'
sS'b'
F0
sg21
I10
sg22
S''
sba(ichempy
Atom
(dp41
g6
S'THR'
sg7
I7
sg8
F0.062700003385543823
sg9
I0
sg10
S''
sg11
S'1'
sg12
I1
sS'q'
F1
sg13
I0
sg14
(lp42
F4.0830001831054688
aF0.1679999977350235
aF-1.5019999742507935
asg16
S'H'
sg17
S'HC'
sg18
I0
sg19
F1.1000000238418579
sg20
S'2HG2'
sS'b'
F0
sg21
I11
sg22
S''
sba(ichempy
Atom
(dp43
g6
S'THR'
sg7
I8
sg8
F0.19339999556541443
sg9
I0
sg10
S''
sg11
S'1'
sg12
I1
sS'q'
F1
sg13
I0
sg14
(lp44
F-0.2800000011920929
aF0.39100000262260437
aF0.8410000205039978
asg16
S'H'
sg17
S'H'
sg18
I0
sg19
F1.1000000238418579
sg20
S'2HT'
sS'b'
F0
sg21
I12
sg22
S''
sba(ichempy
Atom
(dp45
g6
S'THR'
sg7
I9
sg8
F0.062700003385543823
sg9
I0
sg10
S''
sg11
S'1'
sg12
I1
sS'q'
F1
sg13
I0
sg14
(lp46
F4.1380000114440918
aF-1.2790000438690186
aF-0.46700000762939453
asg16
S'H'
sg17
S'HC'
sg18
I0
sg19
F1.1000000238418579
sg20
S'3HG2'
sS'b'
F0
sg21
I13
sg22
S''
sba(ichempy
Atom
(dp47
g6
S'THR'
sg7
I10
sg8
F0.19339999556541443
sg9
I0
sg10
S''
sg11
S'1'
sg12
I1
sS'q'
F1
sg13
I0
sg14
(lp48
F-0.2800000011920929
aF0.39100000262260437
aF-0.8410000205039978
asg16
S'H'
sg17
S'H'
sg18
I0
sg19
F1.1000000238418579
sg20
S'3HT'
sS'b'
F0
sg21
I14
sg22
S''
sba(ichempy
Atom
(dp49
g6
S'THR'
sg7
I11
sg8
F0.10869999974966049
sg9
I0
sg10
S''
sg11
S'1'
sg12
I1
sS'q'
F1
sg13
I0
sg14
(lp50
F1.9040000438690186
aF-0.50800001621246338
aF0.92900002002716064
asg16
S'H'
sg17
S'HP'
sg18
I0
sg19
F1.1000000238418579
sg20
S'HA'
sS'b'
F0
sg21
I15
sg22
S''
sba(ichempy
Atom
(dp51
g6
S'THR'
sg7
I12
sg8
F-0.03229999914765358
sg9
I0
sg10
S''
sg11
S'1'
sg12
I1
sS'q'
F1
sg13
I0
sg14
(lp52
F1.6909999847412109
aF-0.37799999117851257
aF-2.1540000438690186
asg16
S'H'
sg17
S'H1'
sg18
I0
sg19
F1.1000000238418579
sg20
S'HB'
sS'b'
F0
sg21
I16
sg22
S''
sbasS'molecule'
p53
(ichempy
Molecule
(dp54
bsg21
NsS'bond'
p55
(lp56
(ichempy
Bond
(dp57
S'order'
p58
I1
sg21
(lp59
I0
aI1
asba(ichempy
Bond
(dp60
g58
I1
sg21
(lp61
I0
aI9
asba(ichempy
Bond
(dp62
g58
I1
sg21
(lp63
I0
aI11
asba(ichempy
Bond
(dp64
g58
I1
sg21
(lp65
I0
aI13
asba(ichempy
Bond
(dp66
g58
I1
sg21
(lp67
I1
aI2
asba(ichempy
Bond
(dp68
g58
I1
sg21
(lp69
I1
aI5
asba(ichempy
Bond
(dp70
g58
I1
sg21
(lp71
I1
aI14
asba(ichempy
Bond
(dp72
g58
I1
sg21
(lp73
I3
aI2
asba(ichempy
Bond
(dp74
g58
I1
sg21
(lp75
I4
aI2
asba(ichempy
Bond
(dp76
g58
I2
sg21
(lp77
I5
aI6
asba(ichempy
Bond
(dp78
g58
I1
sg21
(lp79
I7
aI4
asba(ichempy
Bond
(dp80
g58
I1
sg21
(lp81
I8
aI3
asba(ichempy
Bond
(dp82
g58
I1
sg21
(lp83
I10
aI3
asba(ichempy
Bond
(dp84
g58
I1
sg21
(lp85
I12
aI3
asba(ichempy
Bond
(dp86
g58
I1
sg21
(lp87
I15
aI2
asbasb.