(ichempy.models
Indexed
p1
(dp2
S'atom'
p3
(lp4
(ichempy
Atom
(dp5
S'resn'
p6
S'TRP'
sS'id'
p7
I23
sS'partial_charge'
p8
F0.19130000472068787
sS'formal_charge'
p9
I0
sS'segi'
p10
S''
sS'resi'
p11
S'1'
sS'resi_number'
p12
I1
sS'q'
F1
sS'hetatm'
p13
I0
sS'coord'
p14
(lp15
F0.38299998641014099
aF8.1090002059936523
aF0.18999999761581421
asS'symbol'
p16
S'N'
sS'text_type'
p17
S'N3'
sS'flags'
p18
I0
sS'vdw'
p19
F1.7999999523162842
sS'name'
p20
S'N'
sS'b'
F0
sS'index'
p21
I1
sS'chain'
p22
S''
sba(ichempy
Atom
(dp23
g6
S'TRP'
sg7
I1
sg8
F0.042100001126527786
sg9
I0
sg10
S''
sg11
S'1'
sg12
I1
sS'q'
F1
sg13
I0
sg14
(lp24
F1.8389999866485596
aF8.2200002670288086
aF0.18799999356269836
asg16
S'C'
sg17
S'CT'
sg18
I0
sg19
F1.7999999523162842
sg20
S'CA'
sS'b'
F0
sg21
I2
sg22
S''
sba(ichempy
Atom
(dp25
g6
S'TRP'
sg7
I2
sg8
F0.05429999902844429
sg9
I0
sg10
S''
sg11
S'1'
sg12
I1
sS'q'
F1
sg13
I0
sg14
(lp26
F2.4030001163482666
aF7.4749999046325684
aF-1.0540000200271606
asg16
S'C'
sg17
S'CT'
sg18
I0
sg19
F1.7999999523162842
sg20
S'CB'
sS'b'
F0
sg21
I3
sg22
S''
sba(ichempy
Atom
(dp27
g6
S'TRP'
sg7
I7
sg8
F-0.16539999842643738
sg9
I0
sg10
S''
sg11
S'1'
sg12
I1
sS'q'
F1
sg13
I0
sg14
(lp28
F2.1949999332427979
aF5.9569997787475586
aF-1.0410000085830688
asg16
S'C'
sg17
S'C*'
sg18
I0
sg19
F1.7999999523162842
sg20
S'CG'
sS'b'
F0
sg21
I4
sg22
S''
sba(ichempy
Atom
(dp29
g6
S'TRP'
sg7
I3
sg8
F-0.17880000174045563
sg9
I0
sg10
S''
sg11
S'1'
sg12
I1
sS'q'
F1
sg13
I0
sg14
(lp30
F1.1480000019073486
aF5.2659997940063477
aF-1.6859999895095825
asg16
S'C'
sg17
S'CW'
sg18
I0
sg19
F1.7999999523162842
sg20
S'CD1'
sS'b'
F0
sg21
I5
sg22
S''
sba(ichempy
Atom
(dp31
g6
S'TRP'
sg7
I4
sg8
F0.11320000141859055
sg9
I0
sg10
S''
sg11
S'1'
sg12
I1
sS'q'
F1
sg13
I0
sg14
(lp32
F2.9059998989105225
aF5.0019998550415039
aF-0.34599998593330383
asg16
S'C'
sg17
S'CB'
sg18
I0
sg19
F1.7999999523162842
sg20
S'CD2'
sS'b'
F0
sg21
I6
sg22
S''
sba(ichempy
Atom
(dp33
g6
S'TRP'
sg7
I5
sg8
F0.1574999988079071
sg9
I0
sg10
S''
sg11
S'1'
sg12
I1
sS'q'
F1
sg13
I0
sg14
(lp34
F2.2909998893737793
aF3.746999979019165
aF-0.57800000905990601
asg16
S'C'
sg17
S'CN'
sg18
I0
sg19
F1.7999999523162842
sg20
S'CE2'
sS'b'
F0
sg21
I7
sg22
S''
sba(ichempy
Atom
(dp35
g6
S'TRP'
sg7
I6
sg8
F-0.226500004529953
sg9
I0
sg10
S''
sg11
S'1'
sg12
I1
sS'q'
F1
sg13
I0
sg14
(lp36
F4.0370001792907715
aF5.1059999465942383
aF0.50499999523162842
asg16
S'C'
sg17
S'CA'
sg18
I0
sg19
F1.7999999523162842
sg20
S'CE3'
sS'b'
F0
sg21
I8
sg22
S''
sba(ichempy
Atom
(dp37
g6
S'TRP'
sg7
I24
sg8
F-0.34439998865127563
sg9
I0
sg10
S''
sg11
S'1'
sg12
I1
sS'q'
F1
sg13
I0
sg14
(lp38
F1.1929999589920044
aF3.8849999904632568
aF-1.4129999876022339
asg16
S'N'
sg17
S'NA'
sg18
I0
sg19
F1.7999999523162842
sg20
S'NE1'
sS'b'
F0
sg21
I9
sg22
S''
sba(ichempy
Atom
(dp39
g6
S'TRP'
sg7
I9
sg8
F-0.27099999785423279
sg9
I0
sg10
S''
sg11
S'1'
sg12
I1
sS'q'
F1
sg13
I0
sg14
(lp40
F2.809999942779541
aF2.5829999446868896
aF0.029999999329447746
asg16
S'C'
sg17
S'CA'
sg18
I0
sg19
F1.7999999523162842
sg20
S'CZ2'
sS'b'
F0
sg21
I10
sg22
S''
sba(ichempy
Atom
(dp41
g6
S'TRP'
sg7
I10
sg8
F-0.20340000092983246
sg9
I0
sg10
S''
sg11
S'1'
sg12
I1
sS'q'
F1
sg13
I0
sg14
(lp42
F4.5359997749328613
aF3.9419999122619629
aF1.0900000333786011
asg16
S'C'
sg17
S'CA'
sg18
I0
sg19
F1.7999999523162842
sg20
S'CZ3'
sS'b'
F0
sg21
I11
sg22
S''
sba(ichempy
Atom
(dp43
g6
S'TRP'
sg7
I8
sg8
F-0.1080000028014183
sg9
I0
sg10
S''
sg11
S'1'
sg12
I1
sS'q'
F1
sg13
I0
sg14
(lp44
F3.9330000877380371
aF2.6979999542236328
aF0.85500001907348633
asg16
S'C'
sg17
S'CA'
sg18
I0
sg19
F1.7999999523162842
sg20
S'CH2'
sS'b'
F0
sg21
I12
sg22
S''
sba(ichempy
Atom
(dp45
g6
S'TRP'
sg7
I0
sg8
F0.61229997873306274
sg9
I0
sg10
S''
sg11
S'1'
sg12
I1
sS'q'
F1
sg13
I0
sg14
(lp46
F2.2720000743865967
aF9.6660003662109375
aF0.15700000524520874
asg16
S'C'
sg17
S'C'
sg18
I0
sg19
F1.7999999523162842
sg20
S'C'
sS'b'
F0
sg21
I13
sg22
S''
sba(ichempy
Atom
(dp47
g6
S'TRP'
sg7
I25
sg8
F-0.57130002975463867
sg9
I0
sg10
S''
sg11
S'1'
sg12
I1
sS'q'
F1
sg13
I0
sg14
(lp48
F1.4589999914169312
aF10.58899974822998
aF0.13699999451637268
asg16
S'O'
sg17
S'O'
sg18
I0
sg19
F1.5
sg20
S'O'
sS'b'
F0
sg21
I14
sg22
S''
sba(ichempy
Atom
(dp49
g6
S'TRP'
sg7
I11
sg8
F0.21950000524520874
sg9
I0
sg10
S''
sg11
S'1'
sg12
I1
sS'q'
F1
sg13
I0
sg14
(lp50
F0.38100001215934753
aF5.749000072479248
aF-2.2769999504089355
asg16
S'H'
sg17
S'H4'
sg18
I0
sg19
F1.1000000238418579
sg20
S'1HD'
sS'b'
F0
sg21
I15
sg22
S''
sba(ichempy
Atom
(dp51
g6
S'TRP'
sg7
I12
sg8
F0.34119999408721924
sg9
I0
sg10
S''
sg11
S'1'
sg12
I1
sS'q'
F1
sg13
I0
sg14
(lp52
F0.53799998760223389
aF3.1559998989105225
aF-1.715999960899353
asg16
S'H'
sg17
S'H'
sg18
I0
sg19
F1.1000000238418579
sg20
S'1HE'
sS'b'
F0
sg21
I16
sg22
S''
sba(ichempy
Atom
(dp53
g6
S'TRP'
sg7
I13
sg8
F0.18880000710487366
sg9
I0
sg10
S''
sg11
S'1'
sg12
I1
sS'q'
F1
sg13
I0
sg14
(lp54
F0.11400000005960464
aF7.1149997711181641
aF0.210999995470047
asg16
S'H'
sg17
S'H'
sg18
I0
sg19
F1.1000000238418579
sg20
S'1HT'
sS'b'
F0
sg21
I17
sg22
S''
sba(ichempy
Atom
(dp55
g6
S'TRP'
sg7
I14
sg8
F0.022199999541044235
sg9
I0
sg10
S''
sg11
S'1'
sg12
I1
sS'q'
F1
sg13
I0
sg14
(lp56
F3.4900000095367432
aF7.6620001792907715
aF-1.1510000228881836
asg16
S'H'
sg17
S'HC'
sg18
I0
sg19
F1.1000000238418579
sg20
S'2HB'
sS'b'
F0
sg21
I18
sg22
S''
sba(ichempy
Atom
(dp57
g6
S'TRP'
sg7
I15
sg8
F0.14110000431537628
sg9
I0
sg10
S''
sg11
S'1'
sg12
I1
sS'q'
F1
sg13
I0
sg14
(lp58
F4.3439998626708984
aF1.812999963760376
aF1.3179999589920044
asg16
S'H'
sg17
S'HA'
sg18
I0
sg19
F1.1000000238418579
sg20
S'2HH'
sS'b'
F0
sg21
I19
sg22
S''
sba(ichempy
Atom
(dp59
g6
S'TRP'
sg7
I16
sg8
F0.18880000710487366
sg9
I0
sg10
S''
sg11
S'1'
sg12
I1
sS'q'
F1
sg13
I0
sg14
(lp60
F0.0040000001899898052
aF8.5850000381469727
aF1.0210000276565552
asg16
S'H'
sg17
S'H'
sg18
I0
sg19
F1.1000000238418579
sg20
S'2HT'
sS'b'
F0
sg21
I20
sg22
S''
sba(ichempy
Atom
(dp61
g6
S'TRP'
sg7
I17
sg8
F0.15889999270439148
sg9
I0
sg10
S''
sg11
S'1'
sg12
I1
sS'q'
F1
sg13
I0
sg14
(lp62
F2.3440001010894775
aF1.625
aF-0.14200000464916229
asg16
S'H'
sg17
S'HA'
sg18
I0
sg19
F1.1000000238418579
sg20
S'2HZ'
sS'b'
F0
sg21
I21
sg22
S''
sba(ichempy
Atom
(dp63
g6
S'TRP'
sg7
I18
sg8
F0.022199999541044235
sg9
I0
sg10
S''
sg11
S'1'
sg12
I1
sS'q'
F1
sg13
I0
sg14
(lp64
F1.968999981880188
aF7.8979997634887695
aF-1.9819999933242798
asg16
S'H'
sg17
S'HC'
sg18
I0
sg19
F1.1000000238418579
sg20
S'3HB'
sS'b'
F0
sg21
I22
sg22
S''
sba(ichempy
Atom
(dp65
g6
S'TRP'
sg7
I19
sg8
F0.16459999978542328
sg9
I0
sg10
S''
sg11
S'1'
sg12
I1
sS'q'
F1
sg13
I0
sg14
(lp66
F4.5029997825622559
aF6.0619997978210449
aF0.69800001382827759
asg16
S'H'
sg17
S'HA'
sg18
I0
sg19
F1.1000000238418579
sg20
S'3HE'
sS'b'
F0
sg21
I23
sg22
S''
sba(ichempy
Atom
(dp67
g6
S'TRP'
sg7
I20
sg8
F0.18880000710487366
sg9
I0
sg10
S''
sg11
S'1'
sg12
I1
sS'q'
F1
sg13
I0
sg14
(lp68
F0.0040000001899898052
aF8.5489997863769531
aF-0.6600000262260437
asg16
S'H'
sg17
S'H'
sg18
I0
sg19
F1.1000000238418579
sg20
S'3HT'
sS'b'
F0
sg21
I24
sg22
S''
sba(ichempy
Atom
(dp69
g6
S'TRP'
sg7
I21
sg8
F0.14579999446868896
sg9
I0
sg10
S''
sg11
S'1'
sg12
I1
sS'q'
F1
sg13
I0
sg14
(lp70
F5.4010000228881836
aF4.0019998550415039
aF1.7339999675750732
asg16
S'H'
sg17
S'HA'
sg18
I0
sg19
F1.1000000238418579
sg20
S'3HZ'
sS'b'
F0
sg21
I25
sg22
S''
sba(ichempy
Atom
(dp71
g6
S'TRP'
sg7
I22
sg8
F0.11620000004768372
sg9
I0
sg10
S''
sg11
S'1'
sg12
I1
sS'q'
F1
sg13
I0
sg14
(lp72
F2.2379999160766602
aF7.7709999084472656
aF1.1169999837875366
asg16
S'H'
sg17
S'HP'
sg18
I0
sg19
F1.1000000238418579
sg20
S'HA'
sS'b'
F0
sg21
I26
sg22
S''
sbasS'molecule'
p73
(ichempy
Molecule
(dp74
bsg21
NsS'bond'
p75
(lp76
(ichempy
Bond
(dp77
S'order'
p78
I1
sg21
(lp79
I0
aI1
asba(ichempy
Bond
(dp80
g78
I1
sg21
(lp81
I0
aI16
asba(ichempy
Bond
(dp82
g78
I1
sg21
(lp83
I0
aI19
asba(ichempy
Bond
(dp84
g78
I1
sg21
(lp85
I0
aI23
asba(ichempy
Bond
(dp86
g78
I1
sg21
(lp87
I1
aI2
asba(ichempy
Bond
(dp88
g78
I1
sg21
(lp89
I1
aI12
asba(ichempy
Bond
(dp90
g78
I1
sg21
(lp91
I1
aI25
asba(ichempy
Bond
(dp92
g78
I1
sg21
(lp93
I3
aI2
asba(ichempy
Bond
(dp94
g78
I1
sg21
(lp95
I3
aI5
asba(ichempy
Bond
(dp96
g78
I2
sg21
(lp97
I4
aI3
asba(ichempy
Bond
(dp98
g78
I1
sg21
(lp99
I5
aI7
asba(ichempy
Bond
(dp100
g78
I2
sg21
(lp101
I6
aI5
asba(ichempy
Bond
(dp102
g78
I1
sg21
(lp103
I6
aI8
asba(ichempy
Bond
(dp104
g78
I2
sg21
(lp105
I7
aI10
asba(ichempy
Bond
(dp106
g78
I1
sg21
(lp107
I8
aI4
asba(ichempy
Bond
(dp108
g78
I1
sg21
(lp109
I9
aI6
asba(ichempy
Bond
(dp110
g78
I1
sg21
(lp111
I10
aI11
asba(ichempy
Bond
(dp112
g78
I2
sg21
(lp113
I11
aI9
asba(ichempy
Bond
(dp114
g78
I2
sg21
(lp115
I12
aI13
asba(ichempy
Bond
(dp116
g78
I1
sg21
(lp117
I14
aI4
asba(ichempy
Bond
(dp118
g78
I1
sg21
(lp119
I15
aI8
asba(ichempy
Bond
(dp120
g78
I1
sg21
(lp121
I17
aI2
asba(ichempy
Bond
(dp122
g78
I1
sg21
(lp123
I18
aI11
asba(ichempy
Bond
(dp124
g78
I1
sg21
(lp125
I20
aI9
asba(ichempy
Bond
(dp126
g78
I1
sg21
(lp127
I21
aI2
asba(ichempy
Bond
(dp128
g78
I1
sg21
(lp129
I22
aI7
asba(ichempy
Bond
(dp130
g78
I1
sg21
(lp131
I24
aI10
asbasb.