(ichempy.models
Indexed
p1
(dp2
S'atom'
p3
(lp4
(ichempy
Atom
(dp5
S'resn'
p6
S'PRO'
sS'id'
p7
I28
sS'partial_charge'
p8
F-0.25479999184608459
sS'formal_charge'
p9
I0
sS'segi'
p10
S''
sS'resi'
p11
S'2'
sS'resi_number'
p12
I2
sS'q'
F1
sS'hetatm'
p13
I0
sS'coord'
p14
(lp15
F1.4900000095367432
aF2.0409998893737793
aF-2.0859999656677246
asS'symbol'
p16
S'N'
sS'text_type'
p17
S'N'
sS'flags'
p18
I0
sS'vdw'
p19
F1.7999999523162842
sS'name'
p20
S'N'
sS'b'
F0
sS'index'
p21
I17
sS'chain'
p22
S''
sba(ichempy
Atom
(dp23
g6
S'PRO'
sg7
I17
sg8
F-0.026599999517202377
sg9
I0
sg10
S''
sg11
S'2'
sg12
I2
sS'q'
F1
sg13
I0
sg14
(lp24
F2
aF3.0439999103546143
aF-3.0090000629425049
asg16
S'C'
sg17
S'CT'
sg18
I0
sg19
F1.7999999523162842
sg20
S'CA'
sS'b'
F0
sg21
I18
sg22
S''
sba(ichempy
Atom
(dp25
g6
S'PRO'
sg7
I18
sg8
F-0.0070000002160668373
sg9
I0
sg10
S''
sg11
S'2'
sg12
I2
sS'q'
F1
sg13
I0
sg14
(lp26
F1.0900000333786011
aF2.8420000076293945
aF-4.2300000190734863
asg16
S'C'
sg17
S'CT'
sg18
I0
sg19
F1.7999999523162842
sg20
S'CB'
sS'b'
F0
sg21
I19
sg22
S''
sba(ichempy
Atom
(dp27
g6
S'PRO'
sg7
I20
sg8
F0.018899999558925629
sg9
I0
sg10
S''
sg11
S'2'
sg12
I2
sS'q'
F1
sg13
I0
sg14
(lp28
F-0.22699999809265137
aF2.3380000591278076
aF-3.6210000514984131
asg16
S'C'
sg17
S'CT'
sg18
I0
sg19
F1.7999999523162842
sg20
S'CG'
sS'b'
F0
sg21
I20
sg22
S''
sba(ichempy
Atom
(dp29
g6
S'PRO'
sg7
I19
sg8
F0.019200000911951065
sg9
I0
sg10
S''
sg11
S'2'
sg12
I2
sS'q'
F1
sg13
I0
sg14
(lp30
F0.2370000034570694
aF1.4329999685287476
aF-2.4769999980926514
asg16
S'C'
sg17
S'CT'
sg18
I0
sg19
F1.7999999523162842
sg20
S'CD'
sS'b'
F0
sg21
I21
sg22
S''
sba(ichempy
Atom
(dp31
g6
S'PRO'
sg7
I16
sg8
F0.58960002660751343
sg9
I0
sg10
S''
sg11
S'2'
sg12
I2
sS'q'
F1
sg13
I0
sg14
(lp32
F1.9049999713897705
aF4.4600000381469727
aF-2.4159998893737793
asg16
S'C'
sg17
S'C'
sg18
I0
sg19
F1.7999999523162842
sg20
S'C'
sS'b'
F0
sg21
I22
sg22
S''
sba(ichempy
Atom
(dp33
g6
S'PRO'
sg7
I29
sg8
F-0.57480001449584961
sg9
I0
sg10
S''
sg11
S'2'
sg12
I2
sS'q'
F1
sg13
I0
sg14
(lp34
F1.4479999542236328
aF4.6339998245239258
aF-1.2860000133514404
asg16
S'O'
sg17
S'O'
sg18
I0
sg19
F1.5
sg20
S'O'
sS'b'
F0
sg21
I23
sg22
S''
sba(ichempy
Atom
(dp35
g6
S'PRO'
sg7
I21
sg8
F0.025299999862909317
sg9
I0
sg10
S''
sg11
S'2'
sg12
I2
sS'q'
F1
sg13
I0
sg14
(lp36
F1.5149999856948853
aF2.0610001087188721
aF-4.8639998435974121
asg16
S'H'
sg17
S'HC'
sg18
I0
sg19
F1.1000000238418579
sg20
S'2HB'
sS'b'
F0
sg21
I24
sg22
S''
sba(ichempy
Atom
(dp37
g6
S'PRO'
sg7
I22
sg8
F0.039099998772144318
sg9
I0
sg10
S''
sg11
S'2'
sg12
I2
sS'q'
F1
sg13
I0
sg14
(lp38
F0.41999998688697815
aF0.41600000858306885
aF-2.8320000171661377
asg16
S'H'
sg17
S'H1'
sg18
I0
sg19
F1.1000000238418579
sg20
S'2HD'
sS'b'
F0
sg21
I25
sg22
S''
sba(ichempy
Atom
(dp39
g6
S'PRO'
sg7
I23
sg8
F0.021299999207258224
sg9
I0
sg10
S''
sg11
S'2'
sg12
I2
sS'q'
F1
sg13
I0
sg14
(lp40
F-0.84600001573562622
aF1.8029999732971191
aF-4.3449997901916504
asg16
S'H'
sg17
S'HC'
sg18
I0
sg19
F1.1000000238418579
sg20
S'2HG'
sS'b'
F0
sg21
I26
sg22
S''
sba(ichempy
Atom
(dp41
g6
S'PRO'
sg7
I24
sg8
F0.025299999862909317
sg9
I0
sg10
S''
sg11
S'2'
sg12
I2
sS'q'
F1
sg13
I0
sg14
(lp42
F0.96299999952316284
aF3.752000093460083
aF-4.8210000991821289
asg16
S'H'
sg17
S'HC'
sg18
I0
sg19
F1.1000000238418579
sg20
S'3HB'
sS'b'
F0
sg21
I27
sg22
S''
sba(ichempy
Atom
(dp43
g6
S'PRO'
sg7
I25
sg8
F0.039099998772144318
sg9
I0
sg10
S''
sg11
S'2'
sg12
I2
sS'q'
F1
sg13
I0
sg14
(lp44
F-0.47200000286102295
aF1.4220000505447388
aF-1.6460000276565552
asg16
S'H'
sg17
S'H1'
sg18
I0
sg19
F1.1000000238418579
sg20
S'3HD'
sS'b'
F0
sg21
I28
sg22
S''
sba(ichempy
Atom
(dp45
g6
S'PRO'
sg7
I26
sg8
F0.021299999207258224
sg9
I0
sg10
S''
sg11
S'2'
sg12
I2
sS'q'
F1
sg13
I0
sg14
(lp46
F-0.78799998760223389
aF3.1809999942779541
aF-3.2130000591278076
asg16
S'H'
sg17
S'HC'
sg18
I0
sg19
F1.1000000238418579
sg20
S'3HG'
sS'b'
F0
sg21
I29
sg22
S''
sba(ichempy
Atom
(dp47
g6
S'PRO'
sg7
I27
sg8
F0.064099997282028198
sg9
I0
sg10
S''
sg11
S'2'
sg12
I2
sS'q'
F1
sg13
I0
sg14
(lp48
F3.0429999828338623
aF2.8380000591278076
aF-3.2609999179840088
asg16
S'H'
sg17
S'H1'
sg18
I0
sg19
F1.1000000238418579
sg20
S'HA'
sS'b'
F0
sg21
I30
sg22
S''
sbasS'molecule'
p49
(ichempy
Molecule
(dp50
bsg21
NsS'bond'
p51
(lp52
(ichempy
Bond
(dp53
S'order'
p54
I1
sg21
(lp55
I0
aI1
asba(ichempy
Bond
(dp56
g54
I1
sg21
(lp57
I0
aI4
asba(ichempy
Bond
(dp58
g54
I1
sg21
(lp59
I1
aI2
asba(ichempy
Bond
(dp60
g54
I1
sg21
(lp61
I1
aI5
asba(ichempy
Bond
(dp62
g54
I1
sg21
(lp63
I1
aI13
asba(ichempy
Bond
(dp64
g54
I1
sg21
(lp65
I2
aI3
asba(ichempy
Bond
(dp66
g54
I1
sg21
(lp67
I3
aI4
asba(ichempy
Bond
(dp68
g54
I2
sg21
(lp69
I5
aI6
asba(ichempy
Bond
(dp70
g54
I1
sg21
(lp71
I7
aI2
asba(ichempy
Bond
(dp72
g54
I1
sg21
(lp73
I8
aI4
asba(ichempy
Bond
(dp74
g54
I1
sg21
(lp75
I9
aI3
asba(ichempy
Bond
(dp76
g54
I1
sg21
(lp77
I10
aI2
asba(ichempy
Bond
(dp78
g54
I1
sg21
(lp79
I11
aI4
asba(ichempy
Bond
(dp80
g54
I1
sg21
(lp81
I12
aI3
asbasb.