(ichempy.models
Indexed
p1
(dp2
S'atom'
p3
(lp4
(ichempy
Atom
(dp5
S'resn'
p6
S'SER'
sS'id'
p7
I21
sS'partial_charge'
p8
F-0.41569998860359192
sS'formal_charge'
p9
I0
sS'segi'
p10
S''
sS'resi'
p11
S'2'
sS'resi_number'
p12
I2
sS'q'
F1
sS'hetatm'
p13
I0
sS'coord'
p14
(lp15
F3.3210000991821289
aF1.5490000247955322
aF0
asS'symbol'
p16
S'N'
sS'text_type'
p17
S'N'
sS'flags'
p18
I0
sS'vdw'
p19
F1.7999999523162842
sS'name'
p20
S'N'
sS'b'
F0
sS'index'
p21
I14
sS'chain'
p22
S''
sba(ichempy
Atom
(dp23
g6
S'SER'
sg7
I14
sg8
F-0.024900000542402267
sg9
I0
sg10
S''
sg11
S'2'
sg12
I2
sS'q'
F1
sg13
I0
sg14
(lp24
F3.9509999752044678
aF2.8659999370574951
aF0
asg16
S'C'
sg17
S'CT'
sg18
I0
sg19
F1.7999999523162842
sg20
S'CA'
sS'b'
F0
sg21
I15
sg22
S''
sba(ichempy
Atom
(dp25
g6
S'SER'
sg7
I15
sg8
F0.21170000731945038
sg9
I0
sg10
S''
sg11
S'2'
sg12
I2
sS'q'
F1
sg13
I0
sg14
(lp26
F3.4479999542236328
aF3.7179999351501465
aF1.1920000314712524
asg16
S'C'
sg17
S'CT'
sg18
I0
sg19
F1.7999999523162842
sg20
S'CB'
sS'b'
F0
sg21
I16
sg22
S''
sba(ichempy
Atom
(dp27
g6
S'SER'
sg7
I23
sg8
F-0.65460002422332764
sg9
I0
sg10
S''
sg11
S'2'
sg12
I2
sS'q'
F1
sg13
I0
sg14
(lp28
F3.9130001068115234
aF3.2349998950958252
aF2.4570000171661377
asg16
S'O'
sg17
S'OH'
sg18
I0
sg19
F1.5
sg20
S'OG'
sS'b'
F0
sg21
I17
sg22
S''
sba(ichempy
Atom
(dp29
g6
S'SER'
sg7
I13
sg8
F0.59729999303817749
sg9
I0
sg10
S''
sg11
S'2'
sg12
I2
sS'q'
F1
sg13
I0
sg14
(lp30
F5.4569997787475586
aF2.744999885559082
aF0
asg16
S'C'
sg17
S'C'
sg18
I0
sg19
F1.7999999523162842
sg20
S'C'
sS'b'
F0
sg21
I18
sg22
S''
sba(ichempy
Atom
(dp31
g6
S'SER'
sg7
I22
sg8
F-0.56790000200271606
sg9
I0
sg10
S''
sg11
S'2'
sg12
I2
sS'q'
F1
sg13
I0
sg14
(lp32
F6.0229997634887695
aF1.6519999504089355
aF0
asg16
S'O'
sg17
S'O'
sg18
I0
sg19
F1.5
sg20
S'O'
sS'b'
F0
sg21
I19
sg22
S''
sba(ichempy
Atom
(dp33
g6
S'SER'
sg7
I16
sg8
F0.035199999809265137
sg9
I0
sg10
S''
sg11
S'2'
sg12
I2
sS'q'
F1
sg13
I0
sg14
(lp34
F2.3429999351501465
aF3.7780001163482666
aF1.2029999494552612
asg16
S'H'
sg17
S'H1'
sg18
I0
sg19
F1.1000000238418579
sg20
S'2HB'
sS'b'
F0
sg21
I20
sg22
S''
sba(ichempy
Atom
(dp35
g6
S'SER'
sg7
I17
sg8
F0.035199999809265137
sg9
I0
sg10
S''
sg11
S'2'
sg12
I2
sS'q'
F1
sg13
I0
sg14
(lp36
F3.7890000343322754
aF4.7649998664855957
aF1.0720000267028809
asg16
S'H'
sg17
S'H1'
sg18
I0
sg19
F1.1000000238418579
sg20
S'3HB'
sS'b'
F0
sg21
I21
sg22
S''
sba(ichempy
Atom
(dp37
g6
S'SER'
sg7
I18
sg8
F0.2718999981880188
sg9
I0
sg10
S''
sg11
S'2'
sg12
I2
sS'q'
F1
sg13
I0
sg14
(lp38
F3.8989999294281006
aF0.63700002431869507
aF0
asg16
S'H'
sg17
S'H'
sg18
I0
sg19
F1.1000000238418579
sg20
S'H'
sS'b'
F0
sg21
I22
sg22
S''
sba(ichempy
Atom
(dp39
g6
S'SER'
sg7
I19
sg8
F0.084299996495246887
sg9
I0
sg10
S''
sg11
S'2'
sg12
I2
sS'q'
F1
sg13
I0
sg14
(lp40
F3.6710000038146973
aF3.378000020980835
aF-0.93900001049041748
asg16
S'H'
sg17
S'H1'
sg18
I0
sg19
F1.1000000238418579
sg20
S'HA'
sS'b'
F0
sg21
I23
sg22
S''
sba(ichempy
Atom
(dp41
g6
S'SER'
sg7
I20
sg8
F0.42750000953674316
sg9
I0
sg10
S''
sg11
S'2'
sg12
I2
sS'q'
F1
sg13
I0
sg14
(lp42
F3.5490000247955322
aF2.3550000190734863
aF2.5799999237060547
asg16
S'H'
sg17
S'HO'
sg18
I0
sg19
F1.1000000238418579
sg20
S'HG'
sS'b'
F0
sg21
I24
sg22
S''
sbasS'molecule'
p43
(ichempy
Molecule
(dp44
bsg21
NsS'bond'
p45
(lp46
(ichempy
Bond
(dp47
S'order'
p48
I1
sg21
(lp49
I0
aI1
asba(ichempy
Bond
(dp50
g48
I1
sg21
(lp51
I0
aI8
asba(ichempy
Bond
(dp52
g48
I1
sg21
(lp53
I1
aI2
asba(ichempy
Bond
(dp54
g48
I1
sg21
(lp55
I1
aI4
asba(ichempy
Bond
(dp56
g48
I1
sg21
(lp57
I1
aI9
asba(ichempy
Bond
(dp58
g48
I1
sg21
(lp59
I3
aI2
asba(ichempy
Bond
(dp60
g48
I2
sg21
(lp61
I4
aI5
asba(ichempy
Bond
(dp62
g48
I1
sg21
(lp63
I6
aI2
asba(ichempy
Bond
(dp64
g48
I1
sg21
(lp65
I7
aI2
asba(ichempy
Bond
(dp66
g48
I1
sg21
(lp67
I10
aI3
asbasb.