(ichempy.models
Indexed
p1
(dp2
S'atom'
p3
(lp4
(ichempy
Atom
(dp5
S'resn'
p6
S'THR'
sS'id'
p7
I27
sS'partial_charge'
p8
F-0.41569998860359192
sS'formal_charge'
p9
I0
sS'segi'
p10
S''
sS'resi'
p11
S'2'
sS'resi_number'
p12
I2
sS'q'
F1
sS'hetatm'
p13
I0
sS'coord'
p14
(lp15
F3.3429999351501465
aF1.5540000200271606
aF0
asS'symbol'
p16
S'N'
sS'text_type'
p17
S'N'
sS'flags'
p18
I0
sS'vdw'
p19
F1.7999999523162842
sS'name'
p20
S'N'
sS'b'
F0
sS'index'
p21
I17
sS'chain'
p22
S''
sba(ichempy
Atom
(dp23
g6
S'THR'
sg7
I17
sg8
F-0.038899999111890793
sg9
I0
sg10
S''
sg11
S'2'
sg12
I2
sS'q'
F1
sg13
I0
sg14
(lp24
F3.9609999656677246
aF2.875999927520752
aF0
asg16
S'C'
sg17
S'CT'
sg18
I0
sg19
F1.7999999523162842
sg20
S'CA'
sS'b'
F0
sg21
I18
sg22
S''
sba(ichempy
Atom
(dp25
g6
S'THR'
sg7
I18
sg8
F0.36539998650550842
sg9
I0
sg10
S''
sg11
S'2'
sg12
I2
sS'q'
F1
sg13
I0
sg14
(lp26
F3.4649999141693115
aF3.7149999141693115
aF1.2259999513626099
asg16
S'C'
sg17
S'CT'
sg18
I0
sg19
F1.7999999523162842
sg20
S'CB'
sS'b'
F0
sg21
I19
sg22
S''
sba(ichempy
Atom
(dp27
g6
S'THR'
sg7
I19
sg8
F-0.24379999935626984
sg9
I0
sg10
S''
sg11
S'2'
sg12
I2
sS'q'
F1
sg13
I0
sg14
(lp28
F4.0460000038146973
aF5.1389999389648438
aF1.3609999418258667
asg16
S'C'
sg17
S'CT'
sg18
I0
sg19
F1.7999999523162842
sg20
S'CG2'
sS'b'
F0
sg21
I20
sg22
S''
sba(ichempy
Atom
(dp29
g6
S'THR'
sg7
I29
sg8
F-0.67610001564025879
sg9
I0
sg10
S''
sg11
S'2'
sg12
I2
sS'q'
F1
sg13
I0
sg14
(lp30
F2.0580000877380371
aF3.9089999198913574
aF1.1619999408721924
asg16
S'O'
sg17
S'OH'
sg18
I0
sg19
F1.5
sg20
S'OG1'
sS'b'
F0
sg21
I21
sg22
S''
sba(ichempy
Atom
(dp31
g6
S'THR'
sg7
I16
sg8
F0.59729999303817749
sg9
I0
sg10
S''
sg11
S'2'
sg12
I2
sS'q'
F1
sg13
I0
sg14
(lp32
F5.4670000076293945
aF2.7699999809265137
aF0
asg16
S'C'
sg17
S'C'
sg18
I0
sg19
F1.7999999523162842
sg20
S'C'
sS'b'
F0
sg21
I22
sg22
S''
sba(ichempy
Atom
(dp33
g6
S'THR'
sg7
I28
sg8
F-0.56790000200271606
sg9
I0
sg10
S''
sg11
S'2'
sg12
I2
sS'q'
F1
sg13
I0
sg14
(lp34
F6.0359997749328613
aF1.6970000267028809
aF0
asg16
S'O'
sg17
S'O'
sg18
I0
sg19
F1.5
sg20
S'O'
sS'b'
F0
sg21
I23
sg22
S''
sba(ichempy
Atom
(dp35
g6
S'THR'
sg7
I20
sg8
F0.41019999980926514
sg9
I0
sg10
S''
sg11
S'2'
sg12
I2
sS'q'
F1
sg13
I0
sg14
(lp36
F1.8140000104904175
aF4.3639998435974121
aF1.9730000495910645
asg16
S'H'
sg17
S'HO'
sg18
I0
sg19
F1.1000000238418579
sg20
S'1HG'
sS'b'
F0
sg21
I24
sg22
S''
sba(ichempy
Atom
(dp37
g6
S'THR'
sg7
I21
sg8
F0.06419999897480011
sg9
I0
sg10
S''
sg11
S'2'
sg12
I2
sS'q'
F1
sg13
I0
sg14
(lp38
F3.6329998970031738
aF5.6760001182556152
aF2.2349998950958252
asg16
S'H'
sg17
S'HC'
sg18
I0
sg19
F1.1000000238418579
sg20
S'1HG2'
sS'b'
F0
sg21
I25
sg22
S''
sba(ichempy
Atom
(dp39
g6
S'THR'
sg7
I22
sg8
F0.06419999897480011
sg9
I0
sg10
S''
sg11
S'2'
sg12
I2
sS'q'
F1
sg13
I0
sg14
(lp40
F5.1430001258850098
aF5.1370000839233398
aF1.5019999742507935
asg16
S'H'
sg17
S'HC'
sg18
I0
sg19
F1.1000000238418579
sg20
S'2HG2'
sS'b'
F0
sg21
I26
sg22
S''
sba(ichempy
Atom
(dp41
g6
S'THR'
sg7
I23
sg8
F0.06419999897480011
sg9
I0
sg10
S''
sg11
S'2'
sg12
I2
sS'q'
F1
sg13
I0
sg14
(lp42
F3.8340001106262207
aF5.755000114440918
aF0.46700000762939453
asg16
S'H'
sg17
S'HC'
sg18
I0
sg19
F1.1000000238418579
sg20
S'3HG2'
sS'b'
F0
sg21
I27
sg22
S''
sba(ichempy
Atom
(dp43
g6
S'THR'
sg7
I24
sg8
F0.2718999981880188
sg9
I0
sg10
S''
sg11
S'2'
sg12
I2
sS'q'
F1
sg13
I0
sg14
(lp44
F3.9300000667572021
aF0.6470000147819519
aF0
asg16
S'H'
sg17
S'H'
sg18
I0
sg19
F1.1000000238418579
sg20
S'H'
sS'b'
F0
sg21
I28
sg22
S''
sba(ichempy
Atom
(dp45
g6
S'THR'
sg7
I25
sg8
F0.10069999843835831
sg9
I0
sg10
S''
sg11
S'2'
sg12
I2
sS'q'
F1
sg13
I0
sg14
(lp46
F3.6670000553131104
aF3.3980000019073486
aF-0.92900002002716064
asg16
S'H'
sg17
S'H1'
sg18
I0
sg19
F1.1000000238418579
sg20
S'HA'
sS'b'
F0
sg21
I29
sg22
S''
sba(ichempy
Atom
(dp47
g6
S'THR'
sg7
I26
sg8
F0.0043000001460313797
sg9
I0
sg10
S''
sg11
S'2'
sg12
I2
sS'q'
F1
sg13
I0
sg14
(lp48
F3.7030000686645508
aF3.1510000228881836
aF2.1540000438690186
asg16
S'H'
sg17
S'H1'
sg18
I0
sg19
F1.1000000238418579
sg20
S'HB'
sS'b'
F0
sg21
I30
sg22
S''
sbasS'molecule'
p49
(ichempy
Molecule
(dp50
bsg21
NsS'bond'
p51
(lp52
(ichempy
Bond
(dp53
S'order'
p54
I1
sg21
(lp55
I0
aI1
asba(ichempy
Bond
(dp56
g54
I1
sg21
(lp57
I0
aI11
asba(ichempy
Bond
(dp58
g54
I1
sg21
(lp59
I1
aI2
asba(ichempy
Bond
(dp60
g54
I1
sg21
(lp61
I1
aI5
asba(ichempy
Bond
(dp62
g54
I1
sg21
(lp63
I1
aI12
asba(ichempy
Bond
(dp64
g54
I1
sg21
(lp65
I3
aI2
asba(ichempy
Bond
(dp66
g54
I1
sg21
(lp67
I4
aI2
asba(ichempy
Bond
(dp68
g54
I2
sg21
(lp69
I5
aI6
asba(ichempy
Bond
(dp70
g54
I1
sg21
(lp71
I7
aI4
asba(ichempy
Bond
(dp72
g54
I1
sg21
(lp73
I8
aI3
asba(ichempy
Bond
(dp74
g54
I1
sg21
(lp75
I9
aI3
asba(ichempy
Bond
(dp76
g54
I1
sg21
(lp77
I10
aI3
asba(ichempy
Bond
(dp78
g54
I1
sg21
(lp79
I13
aI2
asbasb.