(ichempy.models
Indexed
p1
(dp2
S'atom'
p3
(lp4
(ichempy
Atom
(dp5
S'resn'
p6
S'TRP'
sS'id'
p7
I47
sS'partial_charge'
p8
F-0.41569998860359192
sS'formal_charge'
p9
I0
sS'segi'
p10
S''
sS'resi'
p11
S'2'
sS'resi_number'
p12
I2
sS'q'
F1
sS'hetatm'
p13
I0
sS'coord'
p14
(lp15
F3.5739998817443848
aF9.880000114440918
aF0.15199999511241913
asS'symbol'
p16
S'N'
sS'text_type'
p17
S'N'
sS'flags'
p18
I0
sS'vdw'
p19
F1.7999999523162842
sS'name'
p20
S'N'
sS'b'
F0
sS'index'
p21
I27
sS'chain'
p22
S''
sba(ichempy
Atom
(dp23
g6
S'TRP'
sg7
I27
sg8
F-0.027499999850988388
sg9
I0
sg10
S''
sg11
S'2'
sg12
I2
sS'q'
F1
sg13
I0
sg14
(lp24
F4.1360001564025879
aF11.22700023651123
aF0.12300000339746475
asg16
S'C'
sg17
S'CT'
sg18
I0
sg19
F1.7999999523162842
sg20
S'CA'
sS'b'
F0
sg21
I28
sg22
S''
sba(ichempy
Atom
(dp25
g6
S'TRP'
sg7
I28
sg8
F-0.004999999888241291
sg9
I0
sg10
S''
sg11
S'2'
sg12
I2
sS'q'
F1
sg13
I0
sg14
(lp26
F3.6319999694824219
aF12.015000343322754
aF1.3639999628067017
asg16
S'C'
sg17
S'CT'
sg18
I0
sg19
F1.7999999523162842
sg20
S'CB'
sS'b'
F0
sg21
I29
sg22
S''
sba(ichempy
Atom
(dp27
g6
S'TRP'
sg7
I33
sg8
F-0.14149999618530273
sg9
I0
sg10
S''
sg11
S'2'
sg12
I2
sS'q'
F1
sg13
I0
sg14
(lp28
F2.125999927520752
aF12.293999671936035
aF1.378000020980835
asg16
S'C'
sg17
S'C*'
sg18
I0
sg19
F1.7999999523162842
sg20
S'CG'
sS'b'
F0
sg21
I30
sg22
S''
sba(ichempy
Atom
(dp29
g6
S'TRP'
sg7
I29
sg8
F-0.16380000114440918
sg9
I0
sg10
S''
sg11
S'2'
sg12
I2
sS'q'
F1
sg13
I0
sg14
(lp30
F1.1540000438690186
aF11.527999877929688
aF2.0539999008178711
asg16
S'C'
sg17
S'CW'
sg18
I0
sg19
F1.7999999523162842
sg20
S'CD1'
sS'b'
F0
sg21
I31
sg22
S''
sba(ichempy
Atom
(dp31
g6
S'TRP'
sg7
I30
sg8
F0.12430000305175781
sg9
I0
sg10
S''
sg11
S'2'
sg12
I2
sS'q'
F1
sg13
I0
sg14
(lp32
F1.4290000200271606
aF13.260000228881836
aF0.68199998140335083
asg16
S'C'
sg17
S'CB'
sg18
I0
sg19
F1.7999999523162842
sg20
S'CD2'
sS'b'
F0
sg21
I32
sg22
S''
sba(ichempy
Atom
(dp33
g6
S'TRP'
sg7
I31
sg8
F0.1379999965429306
sg9
I0
sg10
S''
sg11
S'2'
sg12
I2
sS'q'
F1
sg13
I0
sg14
(lp34
F0.048999998718500137
aF13.074000358581543
aF0.94499999284744263
asg16
S'C'
sg17
S'CN'
sg18
I0
sg19
F1.7999999523162842
sg20
S'CE2'
sS'b'
F0
sg21
I33
sg22
S''
sba(ichempy
Atom
(dp35
g6
S'TRP'
sg7
I32
sg8
F-0.23870000243186951
sg9
I0
sg10
S''
sg11
S'2'
sg12
I2
sS'q'
F1
sg13
I0
sg14
(lp36
F1.8650000095367432
aF14.288000106811523
aF-0.19300000369548798
asg16
S'C'
sg17
S'CA'
sg18
I0
sg19
F1.7999999523162842
sg20
S'CE3'
sS'b'
F0
sg21
I34
sg22
S''
sba(ichempy
Atom
(dp37
g6
S'TRP'
sg7
I48
sg8
F-0.34180000424385071
sg9
I0
sg10
S''
sg11
S'2'
sg12
I2
sS'q'
F1
sg13
I0
sg14
(lp38
F-0.14800000190734863
aF12
aF1.7999999523162842
asg16
S'N'
sg17
S'NA'
sg18
I0
sg19
F1.7999999523162842
sg20
S'NE1'
sS'b'
F0
sg21
I35
sg22
S''
sba(ichempy
Atom
(dp39
g6
S'TRP'
sg7
I35
sg8
F-0.26010000705718994
sg9
I0
sg10
S''
sg11
S'2'
sg12
I2
sS'q'
F1
sg13
I0
sg14
(lp40
F-0.90499997138977051
aF13.923000335693359
aF0.34299999475479126
asg16
S'C'
sg17
S'CA'
sg18
I0
sg19
F1.7999999523162842
sg20
S'CZ2'
sS'b'
F0
sg21
I36
sg22
S''
sba(ichempy
Atom
(dp41
g6
S'TRP'
sg7
I36
sg8
F-0.19720000028610229
sg9
I0
sg10
S''
sg11
S'2'
sg12
I2
sS'q'
F1
sg13
I0
sg14
(lp42
F0.90399998426437378
aF15.118000030517578
aF-0.76999998092651367
asg16
S'C'
sg17
S'CA'
sg18
I0
sg19
F1.7999999523162842
sg20
S'CZ3'
sS'b'
F0
sg21
I37
sg22
S''
sba(ichempy
Atom
(dp43
g6
S'TRP'
sg7
I34
sg8
F-0.11339999735355377
sg9
I0
sg10
S''
sg11
S'2'
sg12
I2
sS'q'
F1
sg13
I0
sg14
(lp44
F-0.460999995470047
aF14.940999984741211
aF-0.50499999523162842
asg16
S'C'
sg17
S'CA'
sg18
I0
sg19
F1.7999999523162842
sg20
S'CH2'
sS'b'
F0
sg21
I38
sg22
S''
sba(ichempy
Atom
(dp45
g6
S'TRP'
sg7
I26
sg8
F0.59729999303817749
sg9
I0
sg10
S''
sg11
S'2'
sg12
I2
sS'q'
F1
sg13
I0
sg14
(lp46
F5.6459999084472656
aF11.184000015258789
aF0.12399999797344208
asg16
S'C'
sg17
S'C'
sg18
I0
sg19
F1.7999999523162842
sg20
S'C'
sS'b'
F0
sg21
I39
sg22
S''
sba(ichempy
Atom
(dp47
g6
S'TRP'
sg7
I49
sg8
F-0.56790000200271606
sg9
I0
sg10
S''
sg11
S'2'
sg12
I2
sS'q'
F1
sg13
I0
sg14
(lp48
F6.2670001983642578
aF10.123000144958496
aF0.14699999988079071
asg16
S'O'
sg17
S'O'
sg18
I0
sg19
F1.5
sg20
S'O'
sS'b'
F0
sg21
I40
sg22
S''
sba(ichempy
Atom
(dp49
g6
S'TRP'
sg7
I37
sg8
F0.2062000036239624
sg9
I0
sg10
S''
sg11
S'2'
sg12
I2
sS'q'
F1
sg13
I0
sg14
(lp50
F1.3830000162124634
aF10.656000137329102
aF2.6530001163482666
asg16
S'H'
sg17
S'H4'
sg18
I0
sg19
F1.1000000238418579
sg20
S'1HD'
sS'b'
F0
sg21
I41
sg22
S''
sba(ichempy
Atom
(dp51
g6
S'TRP'
sg7
I38
sg8
F0.34119999408721924
sg9
I0
sg10
S''
sg11
S'2'
sg12
I2
sS'q'
F1
sg13
I0
sg14
(lp52
F-1.0399999618530273
aF11.612000465393066
aF2.127000093460083
asg16
S'H'
sg17
S'H'
sg18
I0
sg19
F1.1000000238418579
sg20
S'1HE'
sS'b'
F0
sg21
I42
sg22
S''
sba(ichempy
Atom
(dp53
g6
S'TRP'
sg7
I39
sg8
F0.033900000154972076
sg9
I0
sg10
S''
sg11
S'2'
sg12
I2
sS'q'
F1
sg13
I0
sg14
(lp54
F4.1519999504089355
aF12.98900032043457
aF1.4359999895095825
asg16
S'H'
sg17
S'HC'
sg18
I0
sg19
F1.1000000238418579
sg20
S'2HB'
sS'b'
F0
sg21
I43
sg22
S''
sba(ichempy
Atom
(dp55
g6
S'TRP'
sg7
I40
sg8
F0.14169999957084656
sg9
I0
sg10
S''
sg11
S'2'
sg12
I2
sS'q'
F1
sg13
I0
sg14
(lp56
F-1.1809999942779541
aF15.60200023651123
aF-0.96299999952316284
asg16
S'H'
sg17
S'HA'
sg18
I0
sg19
F1.1000000238418579
sg20
S'2HH'
sS'b'
F0
sg21
I44
sg22
S''
sba(ichempy
Atom
(dp57
g6
S'TRP'
sg7
I41
sg8
F0.15719999372959137
sg9
I0
sg10
S''
sg11
S'2'
sg12
I2
sS'q'
F1
sg13
I0
sg14
(lp58
F-1.9579999446868896
aF13.784999847412109
aF0.53899997472763062
asg16
S'H'
sg17
S'HA'
sg18
I0
sg19
F1.1000000238418579
sg20
S'2HZ'
sS'b'
F0
sg21
I45
sg22
S''
sba(ichempy
Atom
(dp59
g6
S'TRP'
sg7
I42
sg8
F0.033900000154972076
sg9
I0
sg10
S''
sg11
S'2'
sg12
I2
sS'q'
F1
sg13
I0
sg14
(lp60
F3.9159998893737793
aF11.484000205993652
aF2.2939999103546143
asg16
S'H'
sg17
S'HC'
sg18
I0
sg19
F1.1000000238418579
sg20
S'3HB'
sS'b'
F0
sg21
I46
sg22
S''
sba(ichempy
Atom
(dp61
g6
S'TRP'
sg7
I43
sg8
F0.17000000178813934
sg9
I0
sg10
S''
sg11
S'2'
sg12
I2
sS'q'
F1
sg13
I0
sg14
(lp62
F2.9149999618530273
aF14.427000045776367
aF-0.40900000929832458
asg16
S'H'
sg17
S'HA'
sg18
I0
sg19
F1.1000000238418579
sg20
S'3HE'
sS'b'
F0
sg21
I47
sg22
S''
sba(ichempy
Atom
(dp63
g6
S'TRP'
sg7
I44
sg8
F0.14470000565052032
sg9
I0
sg10
S''
sg11
S'2'
sg12
I2
sS'q'
F1
sg13
I0
sg14
(lp64
F1.2200000286102295
aF15.91100025177002
aF-1.4329999685287476
asg16
S'H'
sg17
S'HA'
sg18
I0
sg19
F1.1000000238418579
sg20
S'3HZ'
sS'b'
F0
sg21
I48
sg22
S''
sba(ichempy
Atom
(dp65
g6
S'TRP'
sg7
I45
sg8
F0.2718999981880188
sg9
I0
sg10
S''
sg11
S'2'
sg12
I2
sS'q'
F1
sg13
I0
sg14
(lp66
F4.1529998779296875
aF9.0649995803833008
aF0.17000000178813934
asg16
S'H'
sg17
S'H'
sg18
I0
sg19
F1.1000000238418579
sg20
S'H'
sS'b'
F0
sg21
I49
sg22
S''
sba(ichempy
Atom
(dp67
g6
S'TRP'
sg7
I46
sg8
F0.11230000108480453
sg9
I0
sg10
S''
sg11
S'2'
sg12
I2
sS'q'
F1
sg13
I0
sg14
(lp68
F3.8169999122619629
aF11.732999801635742
aF-0.80800002813339233
asg16
S'H'
sg17
S'H1'
sg18
I0
sg19
F1.1000000238418579
sg20
S'HA'
sS'b'
F0
sg21
I50
sg22
S''
sbasS'molecule'
p69
(ichempy
Molecule
(dp70
bsg21
NsS'bond'
p71
(lp72
(ichempy
Bond
(dp73
S'order'
p74
I1
sg21
(lp75
I0
aI1
asba(ichempy
Bond
(dp76
g74
I1
sg21
(lp77
I0
aI22
asba(ichempy
Bond
(dp78
g74
I1
sg21
(lp79
I1
aI2
asba(ichempy
Bond
(dp80
g74
I1
sg21
(lp81
I1
aI12
asba(ichempy
Bond
(dp82
g74
I1
sg21
(lp83
I1
aI23
asba(ichempy
Bond
(dp84
g74
I1
sg21
(lp85
I3
aI2
asba(ichempy
Bond
(dp86
g74
I1
sg21
(lp87
I3
aI5
asba(ichempy
Bond
(dp88
g74
I2
sg21
(lp89
I4
aI3
asba(ichempy
Bond
(dp90
g74
I1
sg21
(lp91
I5
aI7
asba(ichempy
Bond
(dp92
g74
I2
sg21
(lp93
I6
aI5
asba(ichempy
Bond
(dp94
g74
I1
sg21
(lp95
I6
aI8
asba(ichempy
Bond
(dp96
g74
I2
sg21
(lp97
I7
aI10
asba(ichempy
Bond
(dp98
g74
I1
sg21
(lp99
I8
aI4
asba(ichempy
Bond
(dp100
g74
I1
sg21
(lp101
I9
aI6
asba(ichempy
Bond
(dp102
g74
I1
sg21
(lp103
I10
aI11
asba(ichempy
Bond
(dp104
g74
I2
sg21
(lp105
I11
aI9
asba(ichempy
Bond
(dp106
g74
I2
sg21
(lp107
I12
aI13
asba(ichempy
Bond
(dp108
g74
I1
sg21
(lp109
I14
aI4
asba(ichempy
Bond
(dp110
g74
I1
sg21
(lp111
I15
aI8
asba(ichempy
Bond
(dp112
g74
I1
sg21
(lp113
I16
aI2
asba(ichempy
Bond
(dp114
g74
I1
sg21
(lp115
I17
aI11
asba(ichempy
Bond
(dp116
g74
I1
sg21
(lp117
I18
aI9
asba(ichempy
Bond
(dp118
g74
I1
sg21
(lp119
I19
aI2
asba(ichempy
Bond
(dp120
g74
I1
sg21
(lp121
I20
aI7
asba(ichempy
Bond
(dp122
g74
I1
sg21
(lp123
I21
aI10
asbasb.