(ichempy.models
Indexed
p1
(dp2
S'atom'
p3
(lp4
(ichempy
Atom
(dp5
S'resn'
p6
S'ACE'
sS'id'
p7
I1
sS'partial_charge'
p8
F-0.36620000004768372
sS'formal_charge'
p9
I0
sS'segi'
p10
S''
sS'resi'
p11
S'1'
sS'resi_number'
p12
I1
sS'q'
F1
sS'hetatm'
p13
I0
sS'coord'
p14
(lp15
F-3.8110001087188721
aF-0.50199997425079346
aF0.47099998593330383
asS'symbol'
p16
S'C'
sS'text_type'
p17
S'CT'
sS'flags'
p18
I0
sS'vdw'
p19
F1.7999999523162842
sS'name'
p20
S'CH3'
sS'b'
F0
sS'index'
p21
I1
sS'chain'
p22
S''
sba(ichempy
Atom
(dp23
g6
S'ACE'
sg7
I0
sg8
F0.59719997644424438
sg9
I0
sg10
S''
sg11
S'1'
sg12
I1
sS'q'
F1
sg13
I0
sg14
(lp24
F-2.3540000915527344
aF-0.40999999642372131
aF0.071999996900558472
asg16
S'C'
sg17
S'C'
sg18
I0
sg19
F1.7999999523162842
sg20
S'C'
sS'b'
F0
sg21
I2
sg22
S''
sba(ichempy
Atom
(dp25
g6
S'ACE'
sg7
I5
sg8
F-0.56790000200271606
sg9
I0
sg10
S''
sg11
S'1'
sg12
I1
sS'q'
F1
sg13
I0
sg14
(lp26
F-1.7430000305175781
aF-1.4029999971389771
aF-0.3449999988079071
asg16
S'O'
sg17
S'O'
sg18
I0
sg19
F1.5
sg20
S'O'
sS'b'
F0
sg21
I3
sg22
S''
sba(ichempy
Atom
(dp27
g6
S'ACE'
sg7
I2
sg8
F0.11230000108480453
sg9
I0
sg10
S''
sg11
S'1'
sg12
I1
sS'q'
F1
sg13
I0
sg14
(lp28
F-3.9309999942779541
aF-1.2170000076293945
aF1.2719999551773071
asg16
S'H'
sg17
S'HC'
sg18
I0
sg19
F1.1000000238418579
sg20
S'1HH3'
sS'b'
F0
sg21
I4
sg22
S''
sba(ichempy
Atom
(dp29
g6
S'ACE'
sg7
I3
sg8
F0.11230000108480453
sg9
I0
sg10
S''
sg11
S'1'
sg12
I1
sS'q'
F1
sg13
I0
sg14
(lp30
F-4.1640000343322754
aF0.46200001239776611
aF0.80699998140335083
asg16
S'H'
sg17
S'HC'
sg18
I0
sg19
F1.1000000238418579
sg20
S'2HH3'
sS'b'
F0
sg21
I5
sg22
S''
sba(ichempy
Atom
(dp31
g6
S'ACE'
sg7
I4
sg8
F0.11230000108480453
sg9
I0
sg10
S''
sg11
S'1'
sg12
I1
sS'q'
F1
sg13
I0
sg14
(lp32
F-4.4060001373291016
aF-0.81800001859664917
aF-0.37299999594688416
asg16
S'H'
sg17
S'HC'
sg18
I0
sg19
F1.1000000238418579
sg20
S'3HH3'
sS'b'
F0
sg21
I6
sg22
S''
sbasS'molecule'
p33
(ichempy
Molecule
(dp34
bsg21
NsS'bond'
p35
(lp36
(ichempy
Bond
(dp37
S'order'
p38
I1
sg21
(lp39
I0
aI1
asba(ichempy
Bond
(dp40
g38
I1
sg21
(lp41
I0
aI3
asba(ichempy
Bond
(dp42
g38
I1
sg21
(lp43
I0
aI4
asba(ichempy
Bond
(dp44
g38
I1
sg21
(lp45
I0
aI5
asba(ichempy
Bond
(dp46
g38
I2
sg21
(lp47
I1
aI2
asbasb.