(ichempy.models
Indexed
p1
(dp2
S'atom'
p3
(lp4
(ichempy
Atom
(dp5
S'resn'
p6
S'ASP'
sS'id'
p7
I22
sS'partial_charge'
p8
F-0.5163000226020813
sS'formal_charge'
p9
I0
sS'segi'
p10
S''
sS'resi'
p11
S'2'
sS'resi_number'
p12
I2
sS'q'
F1
sS'hetatm'
p13
I0
sS'coord'
p14
(lp15
F5.0390000343322754
aF1.996999979019165
aF1.281999945640564
asS'symbol'
p16
S'N'
sS'text_type'
p17
S'N'
sS'flags'
p18
I0
sS'vdw'
p19
F1.7999999523162842
sS'name'
p20
S'N'
sS'b'
F0
sS'index'
p21
I15
sS'chain'
p22
S''
sba(ichempy
Atom
(dp23
g6
S'ASP'
sg7
I15
sg8
F0.038100000470876694
sg9
I0
sg10
S''
sg11
S'2'
sg12
I2
sS'q'
F1
sg13
I0
sg14
(lp24
F5.5980000495910645
aF3.3459999561309814
aF1.281999945640564
asg16
S'C'
sg17
S'CT'
sg18
I0
sg19
F1.7999999523162842
sg20
S'CA'
sS'b'
F0
sg21
I16
sg22
S''
sba(ichempy
Atom
(dp25
g6
S'ASP'
sg7
I16
sg8
F-0.030300000682473183
sg9
I0
sg10
S''
sg11
S'2'
sg12
I2
sS'q'
F1
sg13
I0
sg14
(lp26
F5.0630002021789551
aF4.1589999198913574
aF2.4939999580383301
asg16
S'C'
sg17
S'CT'
sg18
I0
sg19
F1.7999999523162842
sg20
S'CB'
sS'b'
F0
sg21
I17
sg22
S''
sba(ichempy
Atom
(dp27
g6
S'ASP'
sg7
I17
sg8
F0.7993999719619751
sg9
I0
sg10
S''
sg11
S'2'
sg12
I2
sS'q'
F1
sg13
I0
sg14
(lp28
F5.5250000953674316
aF5.6220002174377441
aF2.5639998912811279
asg16
S'C'
sg17
S'C'
sg18
I0
sg19
F1.7999999523162842
sg20
S'CG'
sS'b'
F0
sg21
I18
sg22
S''
sba(ichempy
Atom
(dp29
g6
S'ASP'
sg7
I24
sg8
F-0.80140000581741333
sg9
I0
sg10
S''
sg11
S'2'
sg12
I2
sS'q'
F1
sg13
I0
sg14
(lp30
F5.6420001983642578
aF6.2740001678466797
aF1.5060000419616699
asg16
S'O'
sg17
S'O2'
sg18
I0
sg19
F1.5
sg20
S'OD1'
sS'b'
F0
sg21
I19
sg22
S''
sba(ichempy
Atom
(dp31
g6
S'ASP'
sg7
I25
sg8
F-0.80140000581741333
sg9
I0
sg10
S''
sg11
S'2'
sg12
I2
sS'q'
F1
sg13
I0
sg14
(lp32
F5.814000129699707
aF6.1040000915527344
aF3.6789999008178711
asg16
S'O'
sg17
S'O2'
sg18
I0
sg19
F1.5
sg20
S'OD2'
sS'b'
F0
sg21
I20
sg22
S''
sba(ichempy
Atom
(dp33
g6
S'ASP'
sg7
I14
sg8
F0.53659999370574951
sg9
I0
sg10
S''
sg11
S'2'
sg12
I2
sS'q'
F1
sg13
I0
sg14
(lp34
F7.1069998741149902
aF3.3069999217987061
aF1.281999945640564
asg16
S'C'
sg17
S'C'
sg18
I0
sg19
F1.7999999523162842
sg20
S'C'
sS'b'
F0
sg21
I21
sg22
S''
sba(ichempy
Atom
(dp35
g6
S'ASP'
sg7
I23
sg8
F-0.58190000057220459
sg9
I0
sg10
S''
sg11
S'2'
sg12
I2
sS'q'
F1
sg13
I0
sg14
(lp36
F7.7369999885559082
aF2.2379999160766602
aF1.281999945640564
asg16
S'O'
sg17
S'O'
sg18
I0
sg19
F1.5
sg20
S'O'
sS'b'
F0
sg21
I22
sg22
S''
sba(ichempy
Atom
(dp37
g6
S'ASP'
sg7
I18
sg8
F-0.012199999764561653
sg9
I0
sg10
S''
sg11
S'2'
sg12
I2
sS'q'
F1
sg13
I0
sg14
(lp38
F5.3579998016357422
aF3.6670000553131104
aF3.4389998912811279
asg16
S'H'
sg17
S'HC'
sg18
I0
sg19
F1.1000000238418579
sg20
S'2HB'
sS'b'
F0
sg21
I23
sg22
S''
sba(ichempy
Atom
(dp39
g6
S'ASP'
sg7
I19
sg8
F-0.012199999764561653
sg9
I0
sg10
S''
sg11
S'2'
sg12
I2
sS'q'
F1
sg13
I0
sg14
(lp40
F3.9609999656677246
aF4.1750001907348633
aF2.497999906539917
asg16
S'H'
sg17
S'HC'
sg18
I0
sg19
F1.1000000238418579
sg20
S'3HB'
sS'b'
F0
sg21
I24
sg22
S''
sba(ichempy
Atom
(dp41
g6
S'ASP'
sg7
I20
sg8
F0.29359999299049377
sg9
I0
sg10
S''
sg11
S'2'
sg12
I2
sS'q'
F1
sg13
I0
sg14
(lp42
F5.6659998893737793
aF1.1180000305175781
aF1.281999945640564
asg16
S'H'
sg17
S'H'
sg18
I0
sg19
F1.1000000238418579
sg20
S'H'
sS'b'
F0
sg21
I25
sg22
S''
sba(ichempy
Atom
(dp43
g6
S'ASP'
sg7
I21
sg8
F0.087999999523162842
sg9
I0
sg10
S''
sg11
S'2'
sg12
I2
sS'q'
F1
sg13
I0
sg14
(lp44
F5.2829999923706055
aF3.8510000705718994
aF0.34900000691413879
asg16
S'H'
sg17
S'H1'
sg18
I0
sg19
F1.1000000238418579
sg20
S'HA'
sS'b'
F0
sg21
I26
sg22
S''
sbasS'molecule'
p45
(ichempy
Molecule
(dp46
bsg21
NsS'bond'
p47
(lp48
(ichempy
Bond
(dp49
S'order'
p50
I1
sg21
(lp51
I0
aI1
asba(ichempy
Bond
(dp52
g50
I1
sg21
(lp53
I0
aI10
asba(ichempy
Bond
(dp54
g50
I1
sg21
(lp55
I1
aI2
asba(ichempy
Bond
(dp56
g50
I1
sg21
(lp57
I1
aI6
asba(ichempy
Bond
(dp58
g50
I1
sg21
(lp59
I1
aI11
asba(ichempy
Bond
(dp60
g50
I1
sg21
(lp61
I3
aI2
asba(ichempy
Bond
(dp62
g50
I2
sg21
(lp63
I4
aI3
asba(ichempy
Bond
(dp64
g50
I1
sg21
(lp65
I5
aI3
asba(ichempy
Bond
(dp66
g50
I2
sg21
(lp67
I6
aI7
asba(ichempy
Bond
(dp68
g50
I1
sg21
(lp69
I8
aI2
asba(ichempy
Bond
(dp70
g50
I1
sg21
(lp71
I9
aI2
asbasb.