(ichempy.models
Indexed
p1
(dp2
S'atom'
p3
(lp4
(ichempy
Atom
(dp5
S'resn'
p6
S'ALA'
sS'id'
p7
I30
sS'partial_charge'
p8
F-0.38209998607635498
sS'formal_charge'
p9
I0
sS'segi'
p10
S''
sS'resi'
p11
S'3'
sS'resi_number'
p12
I3
sS'q'
F1
sS'hetatm'
p13
I0
sS'coord'
p14
(lp15
F6.2589998245239258
aF3.6940000057220459
aF0
asS'symbol'
p16
S'N'
sS'text_type'
p17
S'N'
sS'flags'
p18
I0
sS'vdw'
p19
F1.7999999523162842
sS'name'
p20
S'N'
sS'b'
F0
sS'index'
p21
I23
sS'chain'
p22
S''
sba(ichempy
Atom
(dp23
g6
S'ALA'
sg7
I23
sg8
F-0.17470000684261322
sg9
I0
sg10
S''
sg11
S'3'
sg12
I3
sS'q'
F1
sg13
I0
sg14
(lp24
F7.7179999351501465
aF3.6789999008178711
aF0
asg16
S'C'
sg17
S'CT'
sg18
I0
sg19
F1.7999999523162842
sg20
S'CA'
sS'b'
F0
sg21
I24
sg22
S''
sba(ichempy
Atom
(dp25
g6
S'ALA'
sg7
I24
sg8
F-0.20929999649524689
sg9
I0
sg10
S''
sg11
S'3'
sg12
I3
sS'q'
F1
sg13
I0
sg14
(lp26
F8.175999641418457
aF2.8559999465942383
aF-1.2170000076293945
asg16
S'C'
sg17
S'CT'
sg18
I0
sg19
F1.7999999523162842
sg20
S'CB'
sS'b'
F0
sg21
I25
sg22
S''
sba(ichempy
Atom
(dp27
g6
S'ALA'
sg7
I32
sg8
F-0.80549997091293335
sg9
I0
sg10
S''
sg11
S'3'
sg12
I3
sS'q'
F1
sg13
I0
sg14
(lp28
F9.5410003662109375
aF5.179999828338623
aF0
asg16
S'O'
sg17
S'O2'
sg18
I0
sg19
F1.5
sg20
S'OXT'
sS'b'
F0
sg21
I26
sg22
S''
sba(ichempy
Atom
(dp29
g6
S'ALA'
sg7
I22
sg8
F0.77310001850128174
sg9
I0
sg10
S''
sg11
S'3'
sg12
I3
sS'q'
F1
sg13
I0
sg14
(lp30
F8.2740001678466797
aF5.0830001831054688
aF0
asg16
S'C'
sg17
S'C'
sg18
I0
sg19
F1.7999999523162842
sg20
S'C'
sS'b'
F0
sg21
I27
sg22
S''
sba(ichempy
Atom
(dp31
g6
S'ALA'
sg7
I31
sg8
F-0.80549997091293335
sg9
I0
sg10
S''
sg11
S'3'
sg12
I3
sS'q'
F1
sg13
I0
sg14
(lp32
F7.5209999084472656
aF6.1050000190734863
aF0.012000000104308128
asg16
S'O'
sg17
S'O2'
sg18
I0
sg19
F1.5
sg20
S'O'
sS'b'
F0
sg21
I28
sg22
S''
sba(ichempy
Atom
(dp33
g6
S'ALA'
sg7
I25
sg8
F0.076399996876716614
sg9
I0
sg10
S''
sg11
S'3'
sg12
I3
sS'q'
F1
sg13
I0
sg14
(lp34
F7.7909998893737793
aF1.8200000524520874
aF-1.1809999942779541
asg16
S'H'
sg17
S'HC'
sg18
I0
sg19
F1.1000000238418579
sg20
S'1HB'
sS'b'
F0
sg21
I29
sg22
S''
sba(ichempy
Atom
(dp35
g6
S'ALA'
sg7
I26
sg8
F0.076399996876716614
sg9
I0
sg10
S''
sg11
S'3'
sg12
I3
sS'q'
F1
sg13
I0
sg14
(lp36
F7.8289999961853027
aF3.2969999313354492
aF-2.1719999313354492
asg16
S'H'
sg17
S'HC'
sg18
I0
sg19
F1.1000000238418579
sg20
S'2HB'
sS'b'
F0
sg21
I30
sg22
S''
sba(ichempy
Atom
(dp37
g6
S'ALA'
sg7
I27
sg8
F0.076399996876716614
sg9
I0
sg10
S''
sg11
S'3'
sg12
I3
sS'q'
F1
sg13
I0
sg14
(lp38
F9.2779998779296875
aF2.7829999923706055
aF-1.2740000486373901
asg16
S'H'
sg17
S'HC'
sg18
I0
sg19
F1.1000000238418579
sg20
S'3HB'
sS'b'
F0
sg21
I31
sg22
S''
sba(ichempy
Atom
(dp39
g6
S'ALA'
sg7
I28
sg8
F0.26809999346733093
sg9
I0
sg10
S''
sg11
S'3'
sg12
I3
sS'q'
F1
sg13
I0
sg14
(lp40
F5.6960000991821289
aF4.6160001754760742
aF0
asg16
S'H'
sg17
S'H'
sg18
I0
sg19
F1.1000000238418579
sg20
S'H'
sS'b'
F0
sg21
I32
sg22
S''
sba(ichempy
Atom
(dp41
g6
S'ALA'
sg7
I29
sg8
F0.10670000314712524
sg9
I0
sg10
S''
sg11
S'3'
sg12
I3
sS'q'
F1
sg13
I0
sg14
(lp42
F8.0670003890991211
aF3.187999963760376
aF0.92799997329711914
asg16
S'H'
sg17
S'H1'
sg18
I0
sg19
F1.1000000238418579
sg20
S'HA'
sS'b'
F0
sg21
I33
sg22
S''
sbasS'molecule'
p43
(ichempy
Molecule
(dp44
bsg21
NsS'bond'
p45
(lp46
(ichempy
Bond
(dp47
S'order'
p48
I1
sg21
(lp49
I0
aI1
asba(ichempy
Bond
(dp50
g48
I1
sg21
(lp51
I0
aI9
asba(ichempy
Bond
(dp52
g48
I1
sg21
(lp53
I1
aI2
asba(ichempy
Bond
(dp54
g48
I1
sg21
(lp55
I1
aI4
asba(ichempy
Bond
(dp56
g48
I1
sg21
(lp57
I1
aI10
asba(ichempy
Bond
(dp58
g48
I1
sg21
(lp59
I4
aI3
asba(ichempy
Bond
(dp60
g48
I2
sg21
(lp61
I4
aI5
asba(ichempy
Bond
(dp62
g48
I1
sg21
(lp63
I6
aI2
asba(ichempy
Bond
(dp64
g48
I1
sg21
(lp65
I7
aI2
asba(ichempy
Bond
(dp66
g48
I1
sg21
(lp67
I8
aI2
asbasb.