(ichempy.models
Indexed
p1
(dp2
S'atom'
p3
(lp4
(ichempy
Atom
(dp5
S'resn'
p6
S'ASN'
sS'id'
p7
I40
sS'partial_charge'
p8
F-0.38209998607635498
sS'formal_charge'
p9
I0
sS'segi'
p10
S''
sS'resi'
p11
S'3'
sS'resi_number'
p12
I3
sS'q'
F1
sS'hetatm'
p13
I0
sS'coord'
p14
(lp15
F6.0269999504089355
aF4.0289998054504395
aF0
asS'symbol'
p16
S'N'
sS'text_type'
p17
S'N'
sS'flags'
p18
I0
sS'vdw'
p19
F1.7999999523162842
sS'name'
p20
S'N'
sS'b'
F0
sS'index'
p21
I31
sS'chain'
p22
S''
sba(ichempy
Atom
(dp23
g6
S'ASN'
sg7
I31
sg8
F-0.20800000429153442
sg9
I0
sg10
S''
sg11
S'3'
sg12
I3
sS'q'
F1
sg13
I0
sg14
(lp24
F7.4840002059936523
aF4.1160001754760742
aF0
asg16
S'C'
sg17
S'CT'
sg18
I0
sg19
F1.7999999523162842
sg20
S'CA'
sS'b'
F0
sg21
I32
sg22
S''
sba(ichempy
Atom
(dp25
g6
S'ASN'
sg7
I32
sg8
F-0.22990000247955322
sg9
I0
sg10
S''
sg11
S'3'
sg12
I3
sS'q'
F1
sg13
I0
sg14
(lp26
F8.0489997863769531
aF3.3580000400543213
aF-1.2369999885559082
asg16
S'C'
sg17
S'CT'
sg18
I0
sg19
F1.7999999523162842
sg20
S'CB'
sS'b'
F0
sg21
I33
sg22
S''
sba(ichempy
Atom
(dp27
g6
S'ASN'
sg7
I33
sg8
F0.71530002355575562
sg9
I0
sg10
S''
sg11
S'3'
sg12
I3
sS'q'
F1
sg13
I0
sg14
(lp28
F7.6659998893737793
aF1.8810000419616699
aF-1.3810000419616699
asg16
S'C'
sg17
S'C'
sg18
I0
sg19
F1.7999999523162842
sg20
S'CG'
sS'b'
F0
sg21
I34
sg22
S''
sba(ichempy
Atom
(dp29
g6
S'ASN'
sg7
I41
sg8
F-0.90839999914169312
sg9
I0
sg10
S''
sg11
S'3'
sg12
I3
sS'q'
F1
sg13
I0
sg14
(lp30
F8.2899999618530273
aF0.99500000476837158
aF-0.65299999713897705
asg16
S'N'
sg17
S'N'
sg18
I0
sg19
F1.7999999523162842
sg20
S'ND2'
sS'b'
F0
sg21
I35
sg22
S''
sba(ichempy
Atom
(dp31
g6
S'ASN'
sg7
I43
sg8
F-0.60100001096725464
sg9
I0
sg10
S''
sg11
S'3'
sg12
I3
sS'q'
F1
sg13
I0
sg14
(lp32
F6.7829999923706055
aF1.5080000162124634
aF-2.1389999389648438
asg16
S'O'
sg17
S'O'
sg18
I0
sg19
F1.5
sg20
S'OD1'
sS'b'
F0
sg21
I36
sg22
S''
sba(ichempy
Atom
(dp33
g6
S'ASN'
sg7
I44
sg8
F-0.81470000743865967
sg9
I0
sg10
S''
sg11
S'3'
sg12
I3
sS'q'
F1
sg13
I0
sg14
(lp34
F9.1969995498657227
aF5.7399997711181641
aF0
asg16
S'O'
sg17
S'O2'
sg18
I0
sg19
F1.5
sg20
S'OXT'
sS'b'
F0
sg21
I37
sg22
S''
sba(ichempy
Atom
(dp35
g6
S'ASN'
sg7
I30
sg8
F0.80500000715255737
sg9
I0
sg10
S''
sg11
S'3'
sg12
I3
sS'q'
F1
sg13
I0
sg14
(lp36
F7.9409999847412109
aF5.554999828338623
aF0
asg16
S'C'
sg17
S'C'
sg18
I0
sg19
F1.7999999523162842
sg20
S'C'
sS'b'
F0
sg21
I38
sg22
S''
sba(ichempy
Atom
(dp37
g6
S'ASN'
sg7
I42
sg8
F-0.81470000743865967
sg9
I0
sg10
S''
sg11
S'3'
sg12
I3
sS'q'
F1
sg13
I0
sg14
(lp38
F7.1180000305175781
aF6.5219998359680176
aF0
asg16
S'O'
sg17
S'O2'
sg18
I0
sg19
F1.5
sg20
S'O'
sS'b'
F0
sg21
I39
sg22
S''
sba(ichempy
Atom
(dp39
g6
S'ASN'
sg7
I34
sg8
F0.41499999165534973
sg9
I0
sg10
S''
sg11
S'3'
sg12
I3
sS'q'
F1
sg13
I0
sg14
(lp40
F7.8579998016357422
aF0.068999998271465302
aF-0.71100002527236938
asg16
S'H'
sg17
S'H'
sg18
I0
sg19
F1.1000000238418579
sg20
S'1HD2'
sS'b'
F0
sg21
I40
sg22
S''
sba(ichempy
Atom
(dp41
g6
S'ASN'
sg7
I35
sg8
F0.1023000031709671
sg9
I0
sg10
S''
sg11
S'3'
sg12
I3
sS'q'
F1
sg13
I0
sg14
(lp42
F9.1520004272460938
aF3.4340000152587891
aF-1.2649999856948853
asg16
S'H'
sg17
S'HC'
sg18
I0
sg19
F1.1000000238418579
sg20
S'2HB'
sS'b'
F0
sg21
I41
sg22
S''
sba(ichempy
Atom
(dp43
g6
S'ASN'
sg7
I36
sg8
F0.41499999165534973
sg9
I0
sg10
S''
sg11
S'3'
sg12
I3
sS'q'
F1
sg13
I0
sg14
(lp44
F8.9569997787475586
aF1.3470000028610229
aF0.034000001847743988
asg16
S'H'
sg17
S'H'
sg18
I0
sg19
F1.1000000238418579
sg20
S'2HD2'
sS'b'
F0
sg21
I42
sg22
S''
sba(ichempy
Atom
(dp45
g6
S'ASN'
sg7
I37
sg8
F0.1023000031709671
sg9
I0
sg10
S''
sg11
S'3'
sg12
I3
sS'q'
F1
sg13
I0
sg14
(lp46
F7.7160000801086426
aF3.8650000095367432
aF-2.1640000343322754
asg16
S'H'
sg17
S'HC'
sg18
I0
sg19
F1.1000000238418579
sg20
S'3HB'
sS'b'
F0
sg21
I43
sg22
S''
sba(ichempy
Atom
(dp47
g6
S'ASN'
sg7
I38
sg8
F0.26809999346733093
sg9
I0
sg10
S''
sg11
S'3'
sg12
I3
sS'q'
F1
sg13
I0
sg14
(lp48
F5.4010000228881836
aF4.9089999198913574
aF0
asg16
S'H'
sg17
S'H'
sg18
I0
sg19
F1.1000000238418579
sg20
S'H'
sS'b'
F0
sg21
I44
sg22
S''
sba(ichempy
Atom
(dp49
g6
S'ASN'
sg7
I39
sg8
F0.13580000400543213
sg9
I0
sg10
S''
sg11
S'3'
sg12
I3
sS'q'
F1
sg13
I0
sg14
(lp50
F7.8629999160766602
aF3.6519999504089355
aF0.93000000715255737
asg16
S'H'
sg17
S'H1'
sg18
I0
sg19
F1.1000000238418579
sg20
S'HA'
sS'b'
F0
sg21
I45
sg22
S''
sbasS'molecule'
p51
(ichempy
Molecule
(dp52
bsg21
NsS'bond'
p53
(lp54
(ichempy
Bond
(dp55
S'order'
p56
I1
sg21
(lp57
I0
aI1
asba(ichempy
Bond
(dp58
g56
I1
sg21
(lp59
I0
aI13
asba(ichempy
Bond
(dp60
g56
I1
sg21
(lp61
I1
aI2
asba(ichempy
Bond
(dp62
g56
I1
sg21
(lp63
I1
aI7
asba(ichempy
Bond
(dp64
g56
I1
sg21
(lp65
I1
aI14
asba(ichempy
Bond
(dp66
g56
I1
sg21
(lp67
I3
aI2
asba(ichempy
Bond
(dp68
g56
I1
sg21
(lp69
I4
aI3
asba(ichempy
Bond
(dp70
g56
I2
sg21
(lp71
I5
aI3
asba(ichempy
Bond
(dp72
g56
I1
sg21
(lp73
I7
aI6
asba(ichempy
Bond
(dp74
g56
I2
sg21
(lp75
I7
aI8
asba(ichempy
Bond
(dp76
g56
I1
sg21
(lp77
I9
aI4
asba(ichempy
Bond
(dp78
g56
I1
sg21
(lp79
I10
aI2
asba(ichempy
Bond
(dp80
g56
I1
sg21
(lp81
I11
aI4
asba(ichempy
Bond
(dp82
g56
I1
sg21
(lp83
I12
aI2
asbasb.