(ichempy.models
Indexed
p1
(dp2
S'atom'
p3
(lp4
(ichempy
Atom
(dp5
S'resn'
p6
S'GLU'
sS'id'
p7
I43
sS'partial_charge'
p8
F-0.51920002698898315
sS'formal_charge'
p9
I0
sS'segi'
p10
S''
sS'resi'
p11
S'3'
sS'resi_number'
p12
I3
sS'q'
F1
sS'hetatm'
p13
I0
sS'coord'
p14
(lp15
F7.4930000305175781
aF4.879000186920166
aF1.3420000076293945
asS'symbol'
p16
S'N'
sS'text_type'
p17
S'N'
sS'flags'
p18
I0
sS'vdw'
p19
F1.7999999523162842
sS'name'
p20
S'N'
sS'b'
F0
sS'index'
p21
I33
sS'chain'
p22
S''
sba(ichempy
Atom
(dp23
g6
S'GLU'
sg7
I33
sg8
F-0.20589999854564667
sg9
I0
sg10
S''
sg11
S'3'
sg12
I3
sS'q'
F1
sg13
I0
sg14
(lp24
F8.949000358581543
aF4.9939999580383301
aF1.3420000076293945
asg16
S'C'
sg17
S'CT'
sg18
I0
sg19
F1.7999999523162842
sg20
S'CA'
sS'b'
F0
sg21
I34
sg22
S''
sba(ichempy
Atom
(dp25
g6
S'GLU'
sg7
I34
sg8
F0.0071000000461935997
sg9
I0
sg10
S''
sg11
S'3'
sg12
I3
sS'q'
F1
sg13
I0
sg14
(lp26
F9.5340003967285156
aF4.255000114440918
aF0.10599999874830246
asg16
S'C'
sg17
S'CT'
sg18
I0
sg19
F1.7999999523162842
sg20
S'CB'
sS'b'
F0
sg21
I35
sg22
S''
sba(ichempy
Atom
(dp27
g6
S'GLU'
sg7
I36
sg8
F0.067500002682209015
sg9
I0
sg10
S''
sg11
S'3'
sg12
I3
sS'q'
F1
sg13
I0
sg14
(lp28
F11.093999862670898
aF4.249000072479248
aF-0.004999999888241291
asg16
S'C'
sg17
S'CT'
sg18
I0
sg19
F1.7999999523162842
sg20
S'CG'
sS'b'
F0
sg21
I36
sg22
S''
sba(ichempy
Atom
(dp29
g6
S'GLU'
sg7
I35
sg8
F0.81830000877380371
sg9
I0
sg10
S''
sg11
S'3'
sg12
I3
sS'q'
F1
sg13
I0
sg14
(lp30
F11.72700023651123
aF3.5959999561309814
aF-1.2209999561309814
asg16
S'C'
sg17
S'C'
sg18
I0
sg19
F1.7999999523162842
sg20
S'CD'
sS'b'
F0
sg21
I37
sg22
S''
sba(ichempy
Atom
(dp31
g6
S'GLU'
sg7
I45
sg8
F-0.82200002670288086
sg9
I0
sg10
S''
sg11
S'3'
sg12
I3
sS'q'
F1
sg13
I0
sg14
(lp32
F11.02400016784668
aF3.059999942779541
aF-2.0989999771118164
asg16
S'O'
sg17
S'O2'
sg18
I0
sg19
F1.5
sg20
S'OE1'
sS'b'
F0
sg21
I38
sg22
S''
sba(ichempy
Atom
(dp33
g6
S'GLU'
sg7
I46
sg8
F-0.82200002670288086
sg9
I0
sg10
S''
sg11
S'3'
sg12
I3
sS'q'
F1
sg13
I0
sg14
(lp34
F12.972000122070312
aF3.6449999809265137
aF-1.2929999828338623
asg16
S'O'
sg17
S'O2'
sg18
I0
sg19
F1.5
sg20
S'OE2'
sS'b'
F0
sg21
I39
sg22
S''
sba(ichempy
Atom
(dp35
g6
S'GLU'
sg7
I47
sg8
F-0.7929999828338623
sg9
I0
sg10
S''
sg11
S'3'
sg12
I3
sS'q'
F1
sg13
I0
sg14
(lp36
F10.630000114440918
aF6.6519999504089355
aF1.3420000076293945
asg16
S'O'
sg17
S'O2'
sg18
I0
sg19
F1.5
sg20
S'OXT'
sS'b'
F0
sg21
I40
sg22
S''
sba(ichempy
Atom
(dp37
g6
S'GLU'
sg7
I32
sg8
F0.74199998378753662
sg9
I0
sg10
S''
sg11
S'3'
sg12
I3
sS'q'
F1
sg13
I0
sg14
(lp38
F9.3769998550415039
aF6.4419999122619629
aF1.3420000076293945
asg16
S'C'
sg17
S'C'
sg18
I0
sg19
F1.7999999523162842
sg20
S'C'
sS'b'
F0
sg21
I41
sg22
S''
sba(ichempy
Atom
(dp39
g6
S'GLU'
sg7
I44
sg8
F-0.7929999828338623
sg9
I0
sg10
S''
sg11
S'3'
sg12
I3
sS'q'
F1
sg13
I0
sg14
(lp40
F8.5349998474121094
aF7.3930001258850098
aF1.3420000076293945
asg16
S'O'
sg17
S'O2'
sg18
I0
sg19
F1.5
sg20
S'O'
sS'b'
F0
sg21
I42
sg22
S''
sba(ichempy
Atom
(dp41
g6
S'GLU'
sg7
I37
sg8
F-0.007799999788403511
sg9
I0
sg10
S''
sg11
S'3'
sg12
I3
sS'q'
F1
sg13
I0
sg14
(lp42
F9.1180000305175781
aF4.6939997673034668
aF-0.82499998807907104
asg16
S'H'
sg17
S'HC'
sg18
I0
sg19
F1.1000000238418579
sg20
S'2HB'
sS'b'
F0
sg21
I43
sg22
S''
sba(ichempy
Atom
(dp43
g6
S'GLU'
sg7
I38
sg8
F-0.054800000041723251
sg9
I0
sg10
S''
sg11
S'3'
sg12
I3
sS'q'
F1
sg13
I0
sg14
(lp44
F11.553999900817871
aF3.7730000019073486
aF0.875
asg16
S'H'
sg17
S'HC'
sg18
I0
sg19
F1.1000000238418579
sg20
S'2HG'
sS'b'
F0
sg21
I44
sg22
S''
sba(ichempy
Atom
(dp45
g6
S'GLU'
sg7
I39
sg8
F-0.007799999788403511
sg9
I0
sg10
S''
sg11
S'3'
sg12
I3
sS'q'
F1
sg13
I0
sg14
(lp46
F9.1829996109008789
aF3.2060000896453857
aF0.093000002205371857
asg16
S'H'
sg17
S'HC'
sg18
I0
sg19
F1.1000000238418579
sg20
S'3HB'
sS'b'
F0
sg21
I45
sg22
S''
sba(ichempy
Atom
(dp47
g6
S'GLU'
sg7
I40
sg8
F-0.054800000041723251
sg9
I0
sg10
S''
sg11
S'3'
sg12
I3
sS'q'
F1
sg13
I0
sg14
(lp48
F11.496000289916992
aF5.2740001678466797
aF-0.035000000149011612
asg16
S'H'
sg17
S'HC'
sg18
I0
sg19
F1.1000000238418579
sg20
S'3HG'
sS'b'
F0
sg21
I46
sg22
S''
sba(ichempy
Atom
(dp49
g6
S'GLU'
sg7
I41
sg8
F0.30550000071525574
sg9
I0
sg10
S''
sg11
S'3'
sg12
I3
sS'q'
F1
sg13
I0
sg14
(lp50
F6.8509998321533203
aF5.7470002174377441
aF1.3420000076293945
asg16
S'H'
sg17
S'H'
sg18
I0
sg19
F1.1000000238418579
sg20
S'H'
sS'b'
F0
sg21
I47
sg22
S''
sba(ichempy
Atom
(dp51
g6
S'GLU'
sg7
I42
sg8
F0.13989999890327454
sg9
I0
sg10
S''
sg11
S'3'
sg12
I3
sS'q'
F1
sg13
I0
sg14
(lp52
F9.3400001525878906
aF4.5250000953674316
aF2.2630000114440918
asg16
S'H'
sg17
S'H1'
sg18
I0
sg19
F1.1000000238418579
sg20
S'HA'
sS'b'
F0
sg21
I48
sg22
S''
sbasS'molecule'
p53
(ichempy
Molecule
(dp54
bsg21
NsS'bond'
p55
(lp56
(ichempy
Bond
(dp57
S'order'
p58
I1
sg21
(lp59
I0
aI1
asba(ichempy
Bond
(dp60
g58
I1
sg21
(lp61
I0
aI14
asba(ichempy
Bond
(dp62
g58
I1
sg21
(lp63
I1
aI2
asba(ichempy
Bond
(dp64
g58
I1
sg21
(lp65
I1
aI8
asba(ichempy
Bond
(dp66
g58
I1
sg21
(lp67
I1
aI15
asba(ichempy
Bond
(dp68
g58
I1
sg21
(lp69
I3
aI2
asba(ichempy
Bond
(dp70
g58
I1
sg21
(lp71
I4
aI3
asba(ichempy
Bond
(dp72
g58
I2
sg21
(lp73
I5
aI4
asba(ichempy
Bond
(dp74
g58
I1
sg21
(lp75
I6
aI4
asba(ichempy
Bond
(dp76
g58
I1
sg21
(lp77
I8
aI7
asba(ichempy
Bond
(dp78
g58
I2
sg21
(lp79
I8
aI9
asba(ichempy
Bond
(dp80
g58
I1
sg21
(lp81
I10
aI2
asba(ichempy
Bond
(dp82
g58
I1
sg21
(lp83
I11
aI3
asba(ichempy
Bond
(dp84
g58
I1
sg21
(lp85
I12
aI2
asba(ichempy
Bond
(dp86
g58
I1
sg21
(lp87
I13
aI3
asbasb.