(ichempy.models
Indexed
p1
(dp2
S'atom'
p3
(lp4
(ichempy
Atom
(dp5
S'resn'
p6
S'HID'
sS'id'
p7
I49
sS'partial_charge'
p8
F-0.38209998607635498
sS'formal_charge'
p9
I0
sS'segi'
p10
S''
sS'resi'
p11
S'3'
sS'resi_number'
p12
I3
sS'q'
F1
sS'hetatm'
p13
I0
sS'coord'
p14
(lp15
F3.7799999713897705
aF4.9489998817443848
aF8.3409996032714844
asS'symbol'
p16
S'N'
sS'text_type'
p17
S'N'
sS'flags'
p18
I0
sS'vdw'
p19
F1.7999999523162842
sS'name'
p20
S'N'
sS'b'
F0
sS'index'
p21
I37
sS'chain'
p22
S''
sba(ichempy
Atom
(dp23
g6
S'HID'
sg7
I37
sg8
F-0.17389999330043793
sg9
I0
sg10
S''
sg11
S'3'
sg12
I3
sS'q'
F1
sg13
I0
sg14
(lp24
F5.2329998016357422
aF5.0069999694824219
aF8.2080001831054688
asg16
S'C'
sg17
S'CT'
sg18
I0
sg19
F1.7999999523162842
sg20
S'CA'
sS'b'
F0
sg21
I38
sg22
S''
sba(ichempy
Atom
(dp25
g6
S'HID'
sg7
I38
sg8
F-0.10459999740123749
sg9
I0
sg10
S''
sg11
S'3'
sg12
I3
sS'q'
F1
sg13
I0
sg14
(lp26
F5.6970000267028809
aF4.185999870300293
aF6.9640002250671387
asg16
S'C'
sg17
S'CT'
sg18
I0
sg19
F1.7999999523162842
sg20
S'CB'
sS'b'
F0
sg21
I39
sg22
S''
sba(ichempy
Atom
(dp27
g6
S'HID'
sg7
I41
sg8
F0.02930000051856041
sg9
I0
sg10
S''
sg11
S'3'
sg12
I3
sS'q'
F1
sg13
I0
sg14
(lp28
F6.6919999122619629
aF3.0580000877380371
aF7.2270002365112305
asg16
S'C'
sg17
S'CC'
sg18
I0
sg19
F1.7999999523162842
sg20
S'CG'
sS'b'
F0
sg21
I40
sg22
S''
sba(ichempy
Atom
(dp29
g6
S'HID'
sg7
I39
sg8
F0.10010000318288803
sg9
I0
sg10
S''
sg11
S'3'
sg12
I3
sS'q'
F1
sg13
I0
sg14
(lp30
F6.3280000686645508
aF1.7359999418258667
aF7.5300002098083496
asg16
S'C'
sg17
S'CV'
sg18
I0
sg19
F1.7999999523162842
sg20
S'CD2'
sS'b'
F0
sg21
I41
sg22
S''
sba(ichempy
Atom
(dp31
g6
S'HID'
sg7
I50
sg8
F-0.38920000195503235
sg9
I0
sg10
S''
sg11
S'3'
sg12
I3
sS'q'
F1
sg13
I0
sg14
(lp32
F8.069000244140625
aF3.1640000343322754
aF7.2220001220703125
asg16
S'N'
sg17
S'NA'
sg18
I0
sg19
F1.7999999523162842
sg20
S'ND1'
sS'b'
F0
sg21
I42
sg22
S''
sba(ichempy
Atom
(dp33
g6
S'HID'
sg7
I40
sg8
F0.19249999523162842
sg9
I0
sg10
S''
sg11
S'3'
sg12
I3
sS'q'
F1
sg13
I0
sg14
(lp34
F8.4219999313354492
aF1.8860000371932983
aF7.5370001792907715
asg16
S'C'
sg17
S'CR'
sg18
I0
sg19
F1.7999999523162842
sg20
S'CE1'
sS'b'
F0
sg21
I43
sg22
S''
sba(ichempy
Atom
(dp35
g6
S'HID'
sg7
I51
sg8
F-0.56290000677108765
sg9
I0
sg10
S''
sg11
S'3'
sg12
I3
sS'q'
F1
sg13
I0
sg14
(lp36
F7.4489998817443848
aF0.94300001859664917
aF7.7379999160766602
asg16
S'N'
sg17
S'NB'
sg18
I0
sg19
F1.7999999523162842
sg20
S'NE2'
sS'b'
F0
sg21
I44
sg22
S''
sba(ichempy
Atom
(dp37
g6
S'HID'
sg7
I53
sg8
F-0.80159997940063477
sg9
I0
sg10
S''
sg11
S'3'
sg12
I3
sS'q'
F1
sg13
I0
sg14
(lp38
F6.9689998626708984
aF6.5989999771118164
aF8.0380001068115234
asg16
S'O'
sg17
S'O2'
sg18
I0
sg19
F1.5
sg20
S'OXT'
sS'b'
F0
sg21
I45
sg22
S''
sba(ichempy
Atom
(dp39
g6
S'HID'
sg7
I36
sg8
F0.76150000095367432
sg9
I0
sg10
S''
sg11
S'3'
sg12
I3
sS'q'
F1
sg13
I0
sg14
(lp40
F5.7140002250671387
aF6.4380002021789551
aF8.1540002822875977
asg16
S'C'
sg17
S'C'
sg18
I0
sg19
F1.7999999523162842
sg20
S'C'
sS'b'
F0
sg21
I46
sg22
S''
sba(ichempy
Atom
(dp41
g6
S'HID'
sg7
I52
sg8
F-0.80159997940063477
sg9
I0
sg10
S''
sg11
S'3'
sg12
I3
sS'q'
F1
sg13
I0
sg14
(lp42
F4.9130001068115234
aF7.4200000762939453
aF8.2200002670288086
asg16
S'O'
sg17
S'O2'
sg18
I0
sg19
F1.5
sg20
S'O'
sS'b'
F0
sg21
I47
sg22
S''
sba(ichempy
Atom
(dp43
g6
S'HID'
sg7
I42
sg8
F0.37549999356269836
sg9
I0
sg10
S''
sg11
S'3'
sg12
I3
sS'q'
F1
sg13
I0
sg14
(lp44
F8.6579999923706055
aF3.9920001029968262
aF7.0799999237060547
asg16
S'H'
sg17
S'H'
sg18
I0
sg19
F1.1000000238418579
sg20
S'1HD'
sS'b'
F0
sg21
I48
sg22
S''
sba(ichempy
Atom
(dp45
g6
S'HID'
sg7
I43
sg8
F0.14180000126361847
sg9
I0
sg10
S''
sg11
S'3'
sg12
I3
sS'q'
F1
sg13
I0
sg14
(lp46
F9.4659996032714844
aF1.6200000047683716
aF7.6399998664855957
asg16
S'H'
sg17
S'H5'
sg18
I0
sg19
F1.1000000238418579
sg20
S'1HE'
sS'b'
F0
sg21
I49
sg22
S''
sba(ichempy
Atom
(dp47
g6
S'HID'
sg7
I44
sg8
F0.056499999016523361
sg9
I0
sg10
S''
sg11
S'3'
sg12
I3
sS'q'
F1
sg13
I0
sg14
(lp48
F6.1469998359680176
aF4.8540000915527344
aF6.2020001411437988
asg16
S'H'
sg17
S'HC'
sg18
I0
sg19
F1.1000000238418579
sg20
S'2HB'
sS'b'
F0
sg21
I50
sg22
S''
sba(ichempy
Atom
(dp49
g6
S'HID'
sg7
I45
sg8
F0.12409999966621399
sg9
I0
sg10
S''
sg11
S'3'
sg12
I3
sS'q'
F1
sg13
I0
sg14
(lp50
F5.3090000152587891
aF1.3830000162124634
aF7.5989999771118164
asg16
S'H'
sg17
S'H4'
sg18
I0
sg19
F1.1000000238418579
sg20
S'2HD'
sS'b'
F0
sg21
I51
sg22
S''
sba(ichempy
Atom
(dp51
g6
S'HID'
sg7
I46
sg8
F0.056499999016523361
sg9
I0
sg10
S''
sg11
S'3'
sg12
I3
sS'q'
F1
sg13
I0
sg14
(lp52
F4.8340001106262207
aF3.7569999694824219
aF6.4190001487731934
asg16
S'H'
sg17
S'HC'
sg18
I0
sg19
F1.1000000238418579
sg20
S'3HB'
sS'b'
F0
sg21
I52
sg22
S''
sba(ichempy
Atom
(dp53
g6
S'HID'
sg7
I47
sg8
F0.26809999346733093
sg9
I0
sg10
S''
sg11
S'3'
sg12
I3
sS'q'
F1
sg13
I0
sg14
(lp54
F3.1740000247955322
aF5.8410000801086426
aF8.3889999389648438
asg16
S'H'
sg17
S'H'
sg18
I0
sg19
F1.1000000238418579
sg20
S'H'
sS'b'
F0
sg21
I53
sg22
S''
sba(ichempy
Atom
(dp55
g6
S'HID'
sg7
I48
sg8
F0.10999999940395355
sg9
I0
sg10
S''
sg11
S'3'
sg12
I3
sS'q'
F1
sg13
I0
sg14
(lp56
F5.6469998359680176
aF4.6059999465942383
aF9.1490001678466797
asg16
S'H'
sg17
S'H1'
sg18
I0
sg19
F1.1000000238418579
sg20
S'HA'
sS'b'
F0
sg21
I54
sg22
S''
sbasS'molecule'
p57
(ichempy
Molecule
(dp58
bsg21
NsS'bond'
p59
(lp60
(ichempy
Bond
(dp61
S'order'
p62
I1
sg21
(lp63
I0
aI1
asba(ichempy
Bond
(dp64
g62
I1
sg21
(lp65
I0
aI16
asba(ichempy
Bond
(dp66
g62
I1
sg21
(lp67
I1
aI2
asba(ichempy
Bond
(dp68
g62
I1
sg21
(lp69
I1
aI9
asba(ichempy
Bond
(dp70
g62
I1
sg21
(lp71
I1
aI17
asba(ichempy
Bond
(dp72
g62
I1
sg21
(lp73
I3
aI2
asba(ichempy
Bond
(dp74
g62
I2
sg21
(lp75
I3
aI4
asba(ichempy
Bond
(dp76
g62
I1
sg21
(lp77
I4
aI7
asba(ichempy
Bond
(dp78
g62
I1
sg21
(lp79
I5
aI3
asba(ichempy
Bond
(dp80
g62
I1
sg21
(lp81
I6
aI5
asba(ichempy
Bond
(dp82
g62
I2
sg21
(lp83
I7
aI6
asba(ichempy
Bond
(dp84
g62
I1
sg21
(lp85
I9
aI8
asba(ichempy
Bond
(dp86
g62
I2
sg21
(lp87
I9
aI10
asba(ichempy
Bond
(dp88
g62
I1
sg21
(lp89
I11
aI5
asba(ichempy
Bond
(dp90
g62
I1
sg21
(lp91
I12
aI6
asba(ichempy
Bond
(dp92
g62
I1
sg21
(lp93
I13
aI2
asba(ichempy
Bond
(dp94
g62
I1
sg21
(lp95
I14
aI4
asba(ichempy
Bond
(dp96
g62
I1
sg21
(lp97
I15
aI2
asbasb.