(ichempy.models
Indexed
p1
(dp2
S'atom'
p3
(lp4
(ichempy
Atom
(dp5
S'resn'
p6
S'LEU'
sS'id'
p7
I57
sS'partial_charge'
p8
F-0.38209998607635498
sS'formal_charge'
p9
I0
sS'segi'
p10
S''
sS'resi'
p11
S'3'
sS'resi_number'
p12
I3
sS'q'
F1
sS'hetatm'
p13
I0
sS'coord'
p14
(lp15
F5.9590001106262207
aF4.0949997901916504
aF0
asS'symbol'
p16
S'N'
sS'text_type'
p17
S'N'
sS'flags'
p18
I0
sS'vdw'
p19
F1.7999999523162842
sS'name'
p20
S'N'
sS'b'
F0
sS'index'
p21
I41
sS'chain'
p22
S''
sba(ichempy
Atom
(dp23
g6
S'LEU'
sg7
I41
sg8
F-0.28470000624656677
sg9
I0
sg10
S''
sg11
S'3'
sg12
I3
sS'q'
F1
sg13
I0
sg14
(lp24
F7.4159998893737793
aF4.1989998817443848
aF0
asg16
S'C'
sg17
S'CT'
sg18
I0
sg19
F1.7999999523162842
sg20
S'CA'
sS'b'
F0
sg21
I42
sg22
S''
sba(ichempy
Atom
(dp25
g6
S'LEU'
sg7
I42
sg8
F-0.24690000712871552
sg9
I0
sg10
S''
sg11
S'3'
sg12
I3
sS'q'
F1
sg13
I0
sg14
(lp26
F8.0179996490478516
aF3.4360001087188721
aF-1.2139999866485596
asg16
S'C'
sg17
S'CT'
sg18
I0
sg19
F1.7999999523162842
sg20
S'CB'
sS'b'
F0
sg21
I43
sg22
S''
sba(ichempy
Atom
(dp27
g6
S'LEU'
sg7
I45
sg8
F0.37059998512268066
sg9
I0
sg10
S''
sg11
S'3'
sg12
I3
sS'q'
F1
sg13
I0
sg14
(lp28
F7.6970000267028809
aF1.9229999780654907
aF-1.3580000400543213
asg16
S'C'
sg17
S'CT'
sg18
I0
sg19
F1.7999999523162842
sg20
S'CG'
sS'b'
F0
sg21
I44
sg22
S''
sba(ichempy
Atom
(dp29
g6
S'LEU'
sg7
I43
sg8
F-0.41629999876022339
sg9
I0
sg10
S''
sg11
S'3'
sg12
I3
sS'q'
F1
sg13
I0
sg14
(lp30
F8.4680004119873047
aF1.3320000171661377
aF-2.5460000038146973
asg16
S'C'
sg17
S'CT'
sg18
I0
sg19
F1.7999999523162842
sg20
S'CD1'
sS'b'
F0
sg21
I45
sg22
S''
sba(ichempy
Atom
(dp31
g6
S'LEU'
sg7
I44
sg8
F-0.41629999876022339
sg9
I0
sg10
S''
sg11
S'3'
sg12
I3
sS'q'
F1
sg13
I0
sg14
(lp32
F8.0159997940063477
aF1.1239999532699585
aF-0.083999998867511749
asg16
S'C'
sg17
S'CT'
sg18
I0
sg19
F1.7999999523162842
sg20
S'CD2'
sS'b'
F0
sg21
I46
sg22
S''
sba(ichempy
Atom
(dp33
g6
S'LEU'
sg7
I59
sg8
F-0.81989997625350952
sg9
I0
sg10
S''
sg11
S'3'
sg12
I3
sS'q'
F1
sg13
I0
sg14
(lp34
F9.1090002059936523
aF5.8439998626708984
aF0.0010000000474974513
asg16
S'O'
sg17
S'O2'
sg18
I0
sg19
F1.5
sg20
S'OXT'
sS'b'
F0
sg21
I47
sg22
S''
sba(ichempy
Atom
(dp35
g6
S'LEU'
sg7
I40
sg8
F0.83259999752044678
sg9
I0
sg10
S''
sg11
S'3'
sg12
I3
sS'q'
F1
sg13
I0
sg14
(lp36
F7.8550000190734863
aF5.6440000534057617
aF0.0010000000474974513
asg16
S'C'
sg17
S'C'
sg18
I0
sg19
F1.7999999523162842
sg20
S'C'
sS'b'
F0
sg21
I48
sg22
S''
sba(ichempy
Atom
(dp37
g6
S'LEU'
sg7
I58
sg8
F-0.81989997625350952
sg9
I0
sg10
S''
sg11
S'3'
sg12
I3
sS'q'
F1
sg13
I0
sg14
(lp38
F7.0209999084472656
aF6.6009998321533203
aF0.0010000000474974513
asg16
S'O'
sg17
S'O2'
sg18
I0
sg19
F1.5
sg20
S'O'
sS'b'
F0
sg21
I49
sg22
S''
sba(ichempy
Atom
(dp39
g6
S'LEU'
sg7
I46
sg8
F0.10379999876022339
sg9
I0
sg10
S''
sg11
S'3'
sg12
I3
sS'q'
F1
sg13
I0
sg14
(lp40
F8.2309999465942383
aF1.8539999723434448
aF-3.4920001029968262
asg16
S'H'
sg17
S'HC'
sg18
I0
sg19
F1.1000000238418579
sg20
S'1HD1'
sS'b'
F0
sg21
I50
sg22
S''
sba(ichempy
Atom
(dp41
g6
S'LEU'
sg7
I47
sg8
F0.10379999876022339
sg9
I0
sg10
S''
sg11
S'3'
sg12
I3
sS'q'
F1
sg13
I0
sg14
(lp42
F9.069000244140625
aF1.2439999580383301
aF0.23399999737739563
asg16
S'H'
sg17
S'HC'
sg18
I0
sg19
F1.1000000238418579
sg20
S'1HD2'
sS'b'
F0
sg21
I51
sg22
S''
sba(ichempy
Atom
(dp43
g6
S'LEU'
sg7
I48
sg8
F0.097400002181529999
sg9
I0
sg10
S''
sg11
S'3'
sg12
I3
sS'q'
F1
sg13
I0
sg14
(lp44
F9.1180000305175781
aF3.5569999217987061
aF-1.1940000057220459
asg16
S'H'
sg17
S'HC'
sg18
I0
sg19
F1.1000000238418579
sg20
S'2HB'
sS'b'
F0
sg21
I52
sg22
S''
sba(ichempy
Atom
(dp45
g6
S'LEU'
sg7
I49
sg8
F0.10379999876022339
sg9
I0
sg10
S''
sg11
S'3'
sg12
I3
sS'q'
F1
sg13
I0
sg14
(lp46
F9.564000129699707
aF1.3899999856948853
aF-2.4059998989105225
asg16
S'H'
sg17
S'HC'
sg18
I0
sg19
F1.1000000238418579
sg20
S'2HD1'
sS'b'
F0
sg21
I53
sg22
S''
sba(ichempy
Atom
(dp47
g6
S'LEU'
sg7
I50
sg8
F0.10379999876022339
sg9
I0
sg10
S''
sg11
S'3'
sg12
I3
sS'q'
F1
sg13
I0
sg14
(lp48
F7.380000114440918
aF1.4470000267028809
aF0.76099997758865356
asg16
S'H'
sg17
S'HC'
sg18
I0
sg19
F1.1000000238418579
sg20
S'2HD2'
sS'b'
F0
sg21
I54
sg22
S''
sba(ichempy
Atom
(dp49
g6
S'LEU'
sg7
I51
sg8
F0.097400002181529999
sg9
I0
sg10
S''
sg11
S'3'
sg12
I3
sS'q'
F1
sg13
I0
sg14
(lp50
F7.6999998092651367
aF3.9449999332427979
aF-2.1459999084472656
asg16
S'H'
sg17
S'HC'
sg18
I0
sg19
F1.1000000238418579
sg20
S'3HB'
sS'b'
F0
sg21
I55
sg22
S''
sba(ichempy
Atom
(dp51
g6
S'LEU'
sg7
I52
sg8
F0.10379999876022339
sg9
I0
sg10
S''
sg11
S'3'
sg12
I3
sS'q'
F1
sg13
I0
sg14
(lp52
F8.2170000076293945
aF0.26600000262260437
aF-2.7049999237060547
asg16
S'H'
sg17
S'HC'
sg18
I0
sg19
F1.1000000238418579
sg20
S'3HD1'
sS'b'
F0
sg21
I56
sg22
S''
sba(ichempy
Atom
(dp53
g6
S'LEU'
sg7
I53
sg8
F0.10379999876022339
sg9
I0
sg10
S''
sg11
S'3'
sg12
I3
sS'q'
F1
sg13
I0
sg14
(lp54
F7.8260002136230469
aF0.043000001460313797
aF-0.21500000357627869
asg16
S'H'
sg17
S'HC'
sg18
I0
sg19
F1.1000000238418579
sg20
S'3HD2'
sS'b'
F0
sg21
I57
sg22
S''
sba(ichempy
Atom
(dp55
g6
S'LEU'
sg7
I54
sg8
F0.26809999346733093
sg9
I0
sg10
S''
sg11
S'3'
sg12
I3
sS'q'
F1
sg13
I0
sg14
(lp56
F5.3559999465942383
aF4.9239997863769531
aF0
asg16
S'H'
sg17
S'H'
sg18
I0
sg19
F1.1000000238418579
sg20
S'H'
sS'b'
F0
sg21
I58
sg22
S''
sba(ichempy
Atom
(dp57
g6
S'LEU'
sg7
I55
sg8
F0.13459999859333038
sg9
I0
sg10
S''
sg11
S'3'
sg12
I3
sS'q'
F1
sg13
I0
sg14
(lp58
F7.7979998588562012
aF3.7590000629425049
aF0.93999999761581421
asg16
S'H'
sg17
S'H1'
sg18
I0
sg19
F1.1000000238418579
sg20
S'HA'
sS'b'
F0
sg21
I59
sg22
S''
sba(ichempy
Atom
(dp59
g6
S'LEU'
sg7
I56
sg8
F-0.037399999797344208
sg9
I0
sg10
S''
sg11
S'3'
sg12
I3
sS'q'
F1
sg13
I0
sg14
(lp60
F6.6129999160766602
aF1.8190000057220459
aF-1.5700000524520874
asg16
S'H'
sg17
S'HC'
sg18
I0
sg19
F1.1000000238418579
sg20
S'HG'
sS'b'
F0
sg21
I60
sg22
S''
sbasS'molecule'
p61
(ichempy
Molecule
(dp62
bsg21
NsS'bond'
p63
(lp64
(ichempy
Bond
(dp65
S'order'
p66
I1
sg21
(lp67
I0
aI1
asba(ichempy
Bond
(dp68
g66
I1
sg21
(lp69
I0
aI17
asba(ichempy
Bond
(dp70
g66
I1
sg21
(lp71
I1
aI2
asba(ichempy
Bond
(dp72
g66
I1
sg21
(lp73
I1
aI7
asba(ichempy
Bond
(dp74
g66
I1
sg21
(lp75
I1
aI18
asba(ichempy
Bond
(dp76
g66
I1
sg21
(lp77
I3
aI2
asba(ichempy
Bond
(dp78
g66
I1
sg21
(lp79
I4
aI3
asba(ichempy
Bond
(dp80
g66
I1
sg21
(lp81
I5
aI3
asba(ichempy
Bond
(dp82
g66
I1
sg21
(lp83
I7
aI6
asba(ichempy
Bond
(dp84
g66
I2
sg21
(lp85
I7
aI8
asba(ichempy
Bond
(dp86
g66
I1
sg21
(lp87
I9
aI4
asba(ichempy
Bond
(dp88
g66
I1
sg21
(lp89
I10
aI5
asba(ichempy
Bond
(dp90
g66
I1
sg21
(lp91
I11
aI2
asba(ichempy
Bond
(dp92
g66
I1
sg21
(lp93
I12
aI4
asba(ichempy
Bond
(dp94
g66
I1
sg21
(lp95
I13
aI5
asba(ichempy
Bond
(dp96
g66
I1
sg21
(lp97
I14
aI2
asba(ichempy
Bond
(dp98
g66
I1
sg21
(lp99
I15
aI4
asba(ichempy
Bond
(dp100
g66
I1
sg21
(lp101
I16
aI5
asba(ichempy
Bond
(dp102
g66
I1
sg21
(lp103
I19
aI3
asbasb.