(ichempy.models
Indexed
p1
(dp2
S'atom'
p3
(lp4
(ichempy
Atom
(dp5
S'resn'
p6
S'LYS'
sS'id'
p7
I65
sS'partial_charge'
p8
F-0.34810000658035278
sS'formal_charge'
p9
I0
sS'segi'
p10
S''
sS'resi'
p11
S'3'
sS'resi_number'
p12
I3
sS'q'
F1
sS'hetatm'
p13
I0
sS'coord'
p14
(lp15
F5.9660000801086426
aF4.1170001029968262
aF0
asS'symbol'
p16
S'N'
sS'text_type'
p17
S'N'
sS'flags'
p18
I0
sS'vdw'
p19
F1.7999999523162842
sS'name'
p20
S'N'
sS'b'
F0
sS'index'
p21
I47
sS'chain'
p22
S''
sba(ichempy
Atom
(dp23
g6
S'LYS'
sg7
I47
sg8
F-0.29030001163482666
sg9
I0
sg10
S''
sg11
S'3'
sg12
I3
sS'q'
F1
sg13
I0
sg14
(lp24
F7.4219999313354492
aF4.2309999465942383
aF0
asg16
S'C'
sg17
S'CT'
sg18
I0
sg19
F1.7999999523162842
sg20
S'CA'
sS'b'
F0
sg21
I48
sg22
S''
sba(ichempy
Atom
(dp25
g6
S'LYS'
sg7
I48
sg8
F-0.053800001740455627
sg9
I0
sg10
S''
sg11
S'3'
sg12
I3
sS'q'
F1
sg13
I0
sg14
(lp26
F7.999000072479248
aF3.4800000190734863
aF-1.2309999465942383
asg16
S'C'
sg17
S'CT'
sg18
I0
sg19
F1.7999999523162842
sg20
S'CB'
sS'b'
F0
sg21
I49
sg22
S''
sba(ichempy
Atom
(dp27
g6
S'LYS'
sg7
I51
sg8
F0.022700000554323196
sg9
I0
sg10
S''
sg11
S'3'
sg12
I3
sS'q'
F1
sg13
I0
sg14
(lp28
F9.5480003356933594
aF3.4790000915527344
aF-1.281000018119812
asg16
S'C'
sg17
S'CT'
sg18
I0
sg19
F1.7999999523162842
sg20
S'CG'
sS'b'
F0
sg21
I50
sg22
S''
sba(ichempy
Atom
(dp29
g6
S'LYS'
sg7
I49
sg8
F-0.039200000464916229
sg9
I0
sg10
S''
sg11
S'3'
sg12
I3
sS'q'
F1
sg13
I0
sg14
(lp30
F10.151000022888184
aF2.8039999008178711
aF-2.5160000324249268
asg16
S'C'
sg17
S'CT'
sg18
I0
sg19
F1.7999999523162842
sg20
S'CD'
sS'b'
F0
sg21
I51
sg22
S''
sba(ichempy
Atom
(dp31
g6
S'LYS'
sg7
I50
sg8
F-0.017599999904632568
sg9
I0
sg10
S''
sg11
S'3'
sg12
I3
sS'q'
F1
sg13
I0
sg14
(lp32
F11.678999900817871
aF2.9389998912811279
aF-2.4700000286102295
asg16
S'C'
sg17
S'CT'
sg18
I0
sg19
F1.7999999523162842
sg20
S'CE'
sS'b'
F0
sg21
I52
sg22
S''
sba(ichempy
Atom
(dp33
g6
S'LYS'
sg7
I66
sg8
F-0.37409999966621399
sg9
I0
sg10
S''
sg11
S'3'
sg12
I3
sS'q'
F1
sg13
I0
sg14
(lp34
F12.27400016784668
aF2.1459999084472656
aF-3.5610001087188721
asg16
S'N'
sg17
S'N3'
sg18
I0
sg19
F1.7999999523162842
sg20
S'NZ'
sS'b'
F0
sg21
I53
sg22
S''
sba(ichempy
Atom
(dp35
g6
S'LYS'
sg7
I68
sg8
F-0.82520002126693726
sg9
I0
sg10
S''
sg11
S'3'
sg12
I3
sS'q'
F1
sg13
I0
sg14
(lp36
F9.1040000915527344
aF5.8880000114440918
aF0
asg16
S'O'
sg17
S'O2'
sg18
I0
sg19
F1.5
sg20
S'OXT'
sS'b'
F0
sg21
I54
sg22
S''
sba(ichempy
Atom
(dp37
g6
S'LYS'
sg7
I46
sg8
F0.84880000352859497
sg9
I0
sg10
S''
sg11
S'3'
sg12
I3
sS'q'
F1
sg13
I0
sg14
(lp38
F7.8509998321533203
aF5.6789999008178711
aF0
asg16
S'C'
sg17
S'C'
sg18
I0
sg19
F1.7999999523162842
sg20
S'C'
sS'b'
F0
sg21
I55
sg22
S''
sba(ichempy
Atom
(dp39
g6
S'LYS'
sg7
I67
sg8
F-0.82520002126693726
sg9
I0
sg10
S''
sg11
S'3'
sg12
I3
sS'q'
F1
sg13
I0
sg14
(lp40
F7.0100002288818359
aF6.630000114440918
aF0
asg16
S'O'
sg17
S'O2'
sg18
I0
sg19
F1.5
sg20
S'O'
sS'b'
F0
sg21
I56
sg22
S''
sba(ichempy
Atom
(dp41
g6
S'LYS'
sg7
I52
sg8
F0.33739998936653137
sg9
I0
sg10
S''
sg11
S'3'
sg12
I3
sS'q'
F1
sg13
I0
sg14
(lp42
F11.689000129699707
aF2.1930000782012939
aF-4.4029998779296875
asg16
S'H'
sg17
S'H'
sg18
I0
sg19
F1.1000000238418579
sg20
S'1HZ'
sS'b'
F0
sg21
I57
sg22
S''
sba(ichempy
Atom
(dp43
g6
S'LYS'
sg7
I53
sg8
F0.048200000077486038
sg9
I0
sg10
S''
sg11
S'3'
sg12
I3
sS'q'
F1
sg13
I0
sg14
(lp44
F7.5929999351501465
aF3.9260001182556152
aF-2.1630001068115234
asg16
S'H'
sg17
S'HC'
sg18
I0
sg19
F1.1000000238418579
sg20
S'2HB'
sS'b'
F0
sg21
I58
sg22
S''
sba(ichempy
Atom
(dp45
g6
S'LYS'
sg7
I54
sg8
F0.061099998652935028
sg9
I0
sg10
S''
sg11
S'3'
sg12
I3
sS'q'
F1
sg13
I0
sg14
(lp46
F9.7519998550415039
aF3.2790000438690186
aF-3.4360001087188721
asg16
S'H'
sg17
S'HC'
sg18
I0
sg19
F1.1000000238418579
sg20
S'2HD'
sS'b'
F0
sg21
I59
sg22
S''
sba(ichempy
Atom
(dp47
g6
S'LYS'
sg7
I55
sg8
F0.11209999769926071
sg9
I0
sg10
S''
sg11
S'3'
sg12
I3
sS'q'
F1
sg13
I0
sg14
(lp48
F12.083000183105469
aF2.5920000076293945
aF-1.4960000514984131
asg16
S'H'
sg17
S'HP'
sg18
I0
sg19
F1.1000000238418579
sg20
S'2HE'
sS'b'
F0
sg21
I60
sg22
S''
sba(ichempy
Atom
(dp49
g6
S'LYS'
sg7
I56
sg8
F0.013399999588727951
sg9
I0
sg10
S''
sg11
S'3'
sg12
I3
sS'q'
F1
sg13
I0
sg14
(lp50
F9.9479999542236328
aF3.0090000629425049
aF-0.36100000143051147
asg16
S'H'
sg17
S'HC'
sg18
I0
sg19
F1.1000000238418579
sg20
S'2HG'
sS'b'
F0
sg21
I61
sg22
S''
sba(ichempy
Atom
(dp51
g6
S'LYS'
sg7
I57
sg8
F0.33739998936653137
sg9
I0
sg10
S''
sg11
S'3'
sg12
I3
sS'q'
F1
sg13
I0
sg14
(lp52
F13.192999839782715
aF2.5130000114440918
aF-3.8299999237060547
asg16
S'H'
sg17
S'H'
sg18
I0
sg19
F1.1000000238418579
sg20
S'2HZ'
sS'b'
F0
sg21
I62
sg22
S''
sba(ichempy
Atom
(dp53
g6
S'LYS'
sg7
I58
sg8
F0.048200000077486038
sg9
I0
sg10
S''
sg11
S'3'
sg12
I3
sS'q'
F1
sg13
I0
sg14
(lp54
F7.6360001564025879
aF2.4340000152587891
aF-1.2339999675750732
asg16
S'H'
sg17
S'HC'
sg18
I0
sg19
F1.1000000238418579
sg20
S'3HB'
sS'b'
F0
sg21
I63
sg22
S''
sba(ichempy
Atom
(dp55
g6
S'LYS'
sg7
I59
sg8
F0.061099998652935028
sg9
I0
sg10
S''
sg11
S'3'
sg12
I3
sS'q'
F1
sg13
I0
sg14
(lp56
F9.8400001525878906
aF1.7419999837875366
aF-2.5529999732971191
asg16
S'H'
sg17
S'HC'
sg18
I0
sg19
F1.1000000238418579
sg20
S'3HD'
sS'b'
F0
sg21
I64
sg22
S''
sba(ichempy
Atom
(dp57
g6
S'LYS'
sg7
I60
sg8
F0.11209999769926071
sg9
I0
sg10
S''
sg11
S'3'
sg12
I3
sS'q'
F1
sg13
I0
sg14
(lp58
F11.977999687194824
aF4.005000114440918
aF-2.5580000877380371
asg16
S'H'
sg17
S'HP'
sg18
I0
sg19
F1.1000000238418579
sg20
S'3HE'
sS'b'
F0
sg21
I65
sg22
S''
sba(ichempy
Atom
(dp59
g6
S'LYS'
sg7
I61
sg8
F0.013399999588727951
sg9
I0
sg10
S''
sg11
S'3'
sg12
I3
sS'q'
F1
sg13
I0
sg14
(lp60
F9.930999755859375
aF4.5159997940063477
aF-1.2740000486373901
asg16
S'H'
sg17
S'HC'
sg18
I0
sg19
F1.1000000238418579
sg20
S'3HG'
sS'b'
F0
sg21
I66
sg22
S''
sba(ichempy
Atom
(dp61
g6
S'LYS'
sg7
I62
sg8
F0.33739998936653137
sg9
I0
sg10
S''
sg11
S'3'
sg12
I3
sS'q'
F1
sg13
I0
sg14
(lp62
F12.35181999206543
aF1.1996994018554688
aF-3.2166757583618164
asg16
S'H'
sg17
S'H'
sg18
I0
sg19
F1.1000000238418579
sg20
S'3HZ'
sS'b'
F0
sg21
I67
sg22
S''
sba(ichempy
Atom
(dp63
g6
S'LYS'
sg7
I63
sg8
F0.27639999985694885
sg9
I0
sg10
S''
sg11
S'3'
sg12
I3
sS'q'
F1
sg13
I0
sg14
(lp64
F5.3239998817443848
aF4.9850001335144043
aF0
asg16
S'H'
sg17
S'H'
sg18
I0
sg19
F1.1000000238418579
sg20
S'H'
sS'b'
F0
sg21
I68
sg22
S''
sba(ichempy
Atom
(dp65
g6
S'LYS'
sg7
I64
sg8
F0.14380000531673431
sg9
I0
sg10
S''
sg11
S'3'
sg12
I3
sS'q'
F1
sg13
I0
sg14
(lp66
F7.8080000877380371
aF3.7699999809265137
aF0.92799997329711914
asg16
S'H'
sg17
S'H1'
sg18
I0
sg19
F1.1000000238418579
sg20
S'HA'
sS'b'
F0
sg21
I69
sg22
S''
sbasS'molecule'
p67
(ichempy
Molecule
(dp68
bsg21
NsS'bond'
p69
(lp70
(ichempy
Bond
(dp71
S'order'
p72
I1
sg21
(lp73
I0
aI1
asba(ichempy
Bond
(dp74
g72
I1
sg21
(lp75
I0
aI21
asba(ichempy
Bond
(dp76
g72
I1
sg21
(lp77
I1
aI2
asba(ichempy
Bond
(dp78
g72
I1
sg21
(lp79
I1
aI8
asba(ichempy
Bond
(dp80
g72
I1
sg21
(lp81
I1
aI22
asba(ichempy
Bond
(dp82
g72
I1
sg21
(lp83
I3
aI2
asba(ichempy
Bond
(dp84
g72
I1
sg21
(lp85
I4
aI3
asba(ichempy
Bond
(dp86
g72
I1
sg21
(lp87
I5
aI4
asba(ichempy
Bond
(dp88
g72
I1
sg21
(lp89
I6
aI5
asba(ichempy
Bond
(dp90
g72
I1
sg21
(lp91
I6
aI20
asba(ichempy
Bond
(dp92
g72
I1
sg21
(lp93
I8
aI7
asba(ichempy
Bond
(dp94
g72
I2
sg21
(lp95
I8
aI9
asba(ichempy
Bond
(dp96
g72
I1
sg21
(lp97
I10
aI6
asba(ichempy
Bond
(dp98
g72
I1
sg21
(lp99
I11
aI2
asba(ichempy
Bond
(dp100
g72
I1
sg21
(lp101
I12
aI4
asba(ichempy
Bond
(dp102
g72
I1
sg21
(lp103
I13
aI5
asba(ichempy
Bond
(dp104
g72
I1
sg21
(lp105
I14
aI3
asba(ichempy
Bond
(dp106
g72
I1
sg21
(lp107
I15
aI6
asba(ichempy
Bond
(dp108
g72
I1
sg21
(lp109
I16
aI2
asba(ichempy
Bond
(dp110
g72
I1
sg21
(lp111
I17
aI4
asba(ichempy
Bond
(dp112
g72
I1
sg21
(lp113
I18
aI5
asba(ichempy
Bond
(dp114
g72
I1
sg21
(lp115
I19
aI3
asbasb.