(ichempy.models
Indexed
p1
(dp2
S'atom'
p3
(lp4
(ichempy
Atom
(dp5
S'resn'
p6
S'SER'
sS'id'
p7
I32
sS'partial_charge'
p8
F-0.38209998607635498
sS'formal_charge'
p9
I0
sS'segi'
p10
S''
sS'resi'
p11
S'3'
sS'resi_number'
p12
I3
sS'q'
F1
sS'hetatm'
p13
I0
sS'coord'
p14
(lp15
F6.1279997825622559
aF3.8810000419616699
aF0
asS'symbol'
p16
S'N'
sS'text_type'
p17
S'N'
sS'flags'
p18
I0
sS'vdw'
p19
F1.7999999523162842
sS'name'
p20
S'N'
sS'b'
F0
sS'index'
p21
I25
sS'chain'
p22
S''
sba(ichempy
Atom
(dp23
g6
S'SER'
sg7
I25
sg8
F-0.27219998836517334
sg9
I0
sg10
S''
sg11
S'3'
sg12
I3
sS'q'
F1
sg13
I0
sg14
(lp24
F7.5879998207092285
aF3.9170000553131104
aF0
asg16
S'C'
sg17
S'CT'
sg18
I0
sg19
F1.7999999523162842
sg20
S'CA'
sS'b'
F0
sg21
I26
sg22
S''
sba(ichempy
Atom
(dp25
g6
S'SER'
sg7
I26
sg8
F0.11230000108480453
sg9
I0
sg10
S''
sg11
S'3'
sg12
I3
sS'q'
F1
sg13
I0
sg14
(lp26
F8.1590003967285156
aF3.1080000400543213
aF-1.1920000314712524
asg16
S'C'
sg17
S'CT'
sg18
I0
sg19
F1.7999999523162842
sg20
S'CB'
sS'b'
F0
sg21
I27
sg22
S''
sba(ichempy
Atom
(dp27
g6
S'SER'
sg7
I34
sg8
F-0.65140002965927124
sg9
I0
sg10
S''
sg11
S'3'
sg12
I3
sS'q'
F1
sg13
I0
sg14
(lp28
F7.9089999198913574
aF3.7309999465942383
aF-2.4570000171661377
asg16
S'O'
sg17
S'OH'
sg18
I0
sg19
F1.5
sg20
S'OG'
sS'b'
F0
sg21
I28
sg22
S''
sba(ichempy
Atom
(dp29
g6
S'SER'
sg7
I35
sg8
F-0.81319999694824219
sg9
I0
sg10
S''
sg11
S'3'
sg12
I3
sS'q'
F1
sg13
I0
sg14
(lp30
F9.3570003509521484
aF5.4809999465942383
aF0
asg16
S'O'
sg17
S'O2'
sg18
I0
sg19
F1.5
sg20
S'OXT'
sS'b'
F0
sg21
I29
sg22
S''
sba(ichempy
Atom
(dp31
g6
S'SER'
sg7
I24
sg8
F0.81129997968673706
sg9
I0
sg10
S''
sg11
S'3'
sg12
I3
sS'q'
F1
sg13
I0
sg14
(lp32
F8.0950002670288086
aF5.3390002250671387
aF0
asg16
S'C'
sg17
S'C'
sg18
I0
sg19
F1.7999999523162842
sg20
S'C'
sS'b'
F0
sg21
I30
sg22
S''
sba(ichempy
Atom
(dp33
g6
S'SER'
sg7
I33
sg8
F-0.81319999694824219
sg9
I0
sg10
S''
sg11
S'3'
sg12
I3
sS'q'
F1
sg13
I0
sg14
(lp34
F7.3060002326965332
aF6.3340001106262207
aF0
asg16
S'O'
sg17
S'O2'
sg18
I0
sg19
F1.5
sg20
S'O'
sS'b'
F0
sg21
I31
sg22
S''
sba(ichempy
Atom
(dp35
g6
S'SER'
sg7
I27
sg8
F0.081299997866153717
sg9
I0
sg10
S''
sg11
S'3'
sg12
I3
sS'q'
F1
sg13
I0
sg14
(lp36
F7.7600002288818359
aF2.0759999752044678
aF-1.2029999494552612
asg16
S'H'
sg17
S'H1'
sg18
I0
sg19
F1.1000000238418579
sg20
S'2HB'
sS'b'
F0
sg21
I32
sg22
S''
sba(ichempy
Atom
(dp37
g6
S'SER'
sg7
I28
sg8
F0.081299997866153717
sg9
I0
sg10
S''
sg11
S'3'
sg12
I3
sS'q'
F1
sg13
I0
sg14
(lp38
F9.2539997100830078
aF2.9900000095367432
aF-1.0720000267028809
asg16
S'H'
sg17
S'H1'
sg18
I0
sg19
F1.1000000238418579
sg20
S'3HB'
sS'b'
F0
sg21
I33
sg22
S''
sba(ichempy
Atom
(dp39
g6
S'SER'
sg7
I29
sg8
F0.26809999346733093
sg9
I0
sg10
S''
sg11
S'3'
sg12
I3
sS'q'
F1
sg13
I0
sg14
(lp40
F5.5339999198913574
aF4.7829999923706055
aF0
asg16
S'H'
sg17
S'H'
sg18
I0
sg19
F1.1000000238418579
sg20
S'H'
sS'b'
F0
sg21
I34
sg22
S''
sba(ichempy
Atom
(dp41
g6
S'SER'
sg7
I30
sg8
F0.13040000200271606
sg9
I0
sg10
S''
sg11
S'3'
sg12
I3
sS'q'
F1
sg13
I0
sg14
(lp42
F7.940000057220459
aF3.4509999752044678
aF0.93900001049041748
asg16
S'H'
sg17
S'H1'
sg18
I0
sg19
F1.1000000238418579
sg20
S'HA'
sS'b'
F0
sg21
I35
sg22
S''
sba(ichempy
Atom
(dp43
g6
S'SER'
sg7
I31
sg8
F0.44740000367164612
sg9
I0
sg10
S''
sg11
S'3'
sg12
I3
sS'q'
F1
sg13
I0
sg14
(lp44
F6.9569997787475586
aF3.7590000629425049
aF-2.5799999237060547
asg16
S'H'
sg17
S'HO'
sg18
I0
sg19
F1.1000000238418579
sg20
S'HG'
sS'b'
F0
sg21
I36
sg22
S''
sbasS'molecule'
p45
(ichempy
Molecule
(dp46
bsg21
NsS'bond'
p47
(lp48
(ichempy
Bond
(dp49
S'order'
p50
I1
sg21
(lp51
I0
aI1
asba(ichempy
Bond
(dp52
g50
I1
sg21
(lp53
I0
aI9
asba(ichempy
Bond
(dp54
g50
I1
sg21
(lp55
I1
aI2
asba(ichempy
Bond
(dp56
g50
I1
sg21
(lp57
I1
aI5
asba(ichempy
Bond
(dp58
g50
I1
sg21
(lp59
I1
aI10
asba(ichempy
Bond
(dp60
g50
I1
sg21
(lp61
I3
aI2
asba(ichempy
Bond
(dp62
g50
I1
sg21
(lp63
I5
aI4
asba(ichempy
Bond
(dp64
g50
I2
sg21
(lp65
I5
aI6
asba(ichempy
Bond
(dp66
g50
I1
sg21
(lp67
I7
aI2
asba(ichempy
Bond
(dp68
g50
I1
sg21
(lp69
I8
aI2
asba(ichempy
Bond
(dp70
g50
I1
sg21
(lp71
I11
aI3
asbasb.