(ichempy.models
Indexed
p1
(dp2
S'atom'
p3
(lp4
(ichempy
Atom
(dp5
S'resn'
p6
S'THR'
sS'id'
p7
I41
sS'partial_charge'
p8
F-0.38209998607635498
sS'formal_charge'
p9
I0
sS'segi'
p10
S''
sS'resi'
p11
S'3'
sS'resi_number'
p12
I3
sS'q'
F1
sS'hetatm'
p13
I0
sS'coord'
p14
(lp15
F6.1279997825622559
aF3.9119999408721924
aF0
asS'symbol'
p16
S'N'
sS'text_type'
p17
S'N'
sS'flags'
p18
I0
sS'vdw'
p19
F1.7999999523162842
sS'name'
p20
S'N'
sS'b'
F0
sS'index'
p21
I31
sS'chain'
p22
S''
sba(ichempy
Atom
(dp23
g6
S'THR'
sg7
I31
sg8
F-0.24199999868869781
sg9
I0
sg10
S''
sg11
S'3'
sg12
I3
sS'q'
F1
sg13
I0
sg14
(lp24
F7.5869998931884766
aF3.9619998931884766
aF0
asg16
S'C'
sg17
S'CT'
sg18
I0
sg19
F1.7999999523162842
sg20
S'CA'
sS'b'
F0
sg21
I32
sg22
S''
sba(ichempy
Atom
(dp25
g6
S'THR'
sg7
I32
sg8
F0.30250000953674316
sg9
I0
sg10
S''
sg11
S'3'
sg12
I3
sS'q'
F1
sg13
I0
sg14
(lp26
F8.1639995574951172
aF3.1779999732971191
aF-1.2259999513626099
asg16
S'C'
sg17
S'CT'
sg18
I0
sg19
F1.7999999523162842
sg20
S'CB'
sS'b'
F0
sg21
I33
sg22
S''
sba(ichempy
Atom
(dp27
g6
S'THR'
sg7
I33
sg8
F-0.18529999256134033
sg9
I0
sg10
S''
sg11
S'3'
sg12
I3
sS'q'
F1
sg13
I0
sg14
(lp28
F9.7019996643066406
aF3.1530001163482666
aF-1.3609999418258667
asg16
S'C'
sg17
S'CT'
sg18
I0
sg19
F1.7999999523162842
sg20
S'CG2'
sS'b'
F0
sg21
I34
sg22
S''
sba(ichempy
Atom
(dp29
g6
S'THR'
sg7
I43
sg8
F-0.64960002899169922
sg9
I0
sg10
S''
sg11
S'3'
sg12
I3
sS'q'
F1
sg13
I0
sg14
(lp30
F7.7909998893737793
aF1.8079999685287476
aF-1.1619999408721924
asg16
S'O'
sg17
S'OH'
sg18
I0
sg19
F1.5
sg20
S'OG1'
sS'b'
F0
sg21
I35
sg22
S''
sba(ichempy
Atom
(dp31
g6
S'THR'
sg7
I44
sg8
F-0.80440002679824829
sg9
I0
sg10
S''
sg11
S'3'
sg12
I3
sS'q'
F1
sg13
I0
sg14
(lp32
F9.3400001525878906
aF5.5440001487731934
aF0
asg16
S'O'
sg17
S'O2'
sg18
I0
sg19
F1.5
sg20
S'OXT'
sS'b'
F0
sg21
I36
sg22
S''
sba(ichempy
Atom
(dp33
g6
S'THR'
sg7
I30
sg8
F0.78100001811981201
sg9
I0
sg10
S''
sg11
S'3'
sg12
I3
sS'q'
F1
sg13
I0
sg14
(lp34
F8.0799999237060547
aF5.3899998664855957
aF0
asg16
S'C'
sg17
S'C'
sg18
I0
sg19
F1.7999999523162842
sg20
S'C'
sS'b'
F0
sg21
I37
sg22
S''
sba(ichempy
Atom
(dp35
g6
S'THR'
sg7
I42
sg8
F-0.80440002679824829
sg9
I0
sg10
S''
sg11
S'3'
sg12
I3
sS'q'
F1
sg13
I0
sg14
(lp36
F7.2810001373291016
aF6.3769998550415039
aF0
asg16
S'O'
sg17
S'O2'
sg18
I0
sg19
F1.5
sg20
S'O'
sS'b'
F0
sg21
I38
sg22
S''
sba(ichempy
Atom
(dp37
g6
S'THR'
sg7
I34
sg8
F0.41190001368522644
sg9
I0
sg10
S''
sg11
S'3'
sg12
I3
sS'q'
F1
sg13
I0
sg14
(lp38
F8.1140003204345703
aF1.4040000438690186
aF-1.9730000495910645
asg16
S'H'
sg17
S'HO'
sg18
I0
sg19
F1.1000000238418579
sg20
S'1HG'
sS'b'
F0
sg21
I39
sg22
S''
sba(ichempy
Atom
(dp39
g6
S'THR'
sg7
I35
sg8
F0.058600001037120819
sg9
I0
sg10
S''
sg11
S'3'
sg12
I3
sS'q'
F1
sg13
I0
sg14
(lp40
F10.034000396728516
aF2.562999963760376
aF-2.2349998950958252
asg16
S'H'
sg17
S'HC'
sg18
I0
sg19
F1.1000000238418579
sg20
S'1HG2'
sS'b'
F0
sg21
I40
sg22
S''
sba(ichempy
Atom
(dp41
g6
S'THR'
sg7
I36
sg8
F0.058600001037120819
sg9
I0
sg10
S''
sg11
S'3'
sg12
I3
sS'q'
F1
sg13
I0
sg14
(lp42
F10.130000114440918
aF4.1630001068115234
aF-1.5019999742507935
asg16
S'H'
sg17
S'HC'
sg18
I0
sg19
F1.1000000238418579
sg20
S'2HG2'
sS'b'
F0
sg21
I41
sg22
S''
sba(ichempy
Atom
(dp43
g6
S'THR'
sg7
I37
sg8
F0.058600001037120819
sg9
I0
sg10
S''
sg11
S'3'
sg12
I3
sS'q'
F1
sg13
I0
sg14
(lp44
F10.185999870300293
aF2.7170000076293945
aF-0.46700000762939453
asg16
S'H'
sg17
S'HC'
sg18
I0
sg19
F1.1000000238418579
sg20
S'3HG2'
sS'b'
F0
sg21
I42
sg22
S''
sba(ichempy
Atom
(dp45
g6
S'THR'
sg7
I38
sg8
F0.26809999346733093
sg9
I0
sg10
S''
sg11
S'3'
sg12
I3
sS'q'
F1
sg13
I0
sg14
(lp46
F5.5250000953674316
aF4.8080000877380371
aF0
asg16
S'H'
sg17
S'H'
sg18
I0
sg19
F1.1000000238418579
sg20
S'H'
sS'b'
F0
sg21
I43
sg22
S''
sba(ichempy
Atom
(dp47
g6
S'THR'
sg7
I39
sg8
F0.12070000171661377
sg9
I0
sg10
S''
sg11
S'3'
sg12
I3
sS'q'
F1
sg13
I0
sg14
(lp48
F7.9520001411437988
aF3.4869999885559082
aF0.92900002002716064
asg16
S'H'
sg17
S'H1'
sg18
I0
sg19
F1.1000000238418579
sg20
S'HA'
sS'b'
F0
sg21
I44
sg22
S''
sba(ichempy
Atom
(dp49
g6
S'THR'
sg7
I40
sg8
F0.007799999788403511
sg9
I0
sg10
S''
sg11
S'3'
sg12
I3
sS'q'
F1
sg13
I0
sg14
(lp50
F7.7389998435974121
aF3.6180000305175781
aF-2.1540000438690186
asg16
S'H'
sg17
S'H1'
sg18
I0
sg19
F1.1000000238418579
sg20
S'HB'
sS'b'
F0
sg21
I45
sg22
S''
sbasS'molecule'
p51
(ichempy
Molecule
(dp52
bsg21
NsS'bond'
p53
(lp54
(ichempy
Bond
(dp55
S'order'
p56
I1
sg21
(lp57
I0
aI1
asba(ichempy
Bond
(dp58
g56
I1
sg21
(lp59
I0
aI12
asba(ichempy
Bond
(dp60
g56
I1
sg21
(lp61
I1
aI2
asba(ichempy
Bond
(dp62
g56
I1
sg21
(lp63
I1
aI6
asba(ichempy
Bond
(dp64
g56
I1
sg21
(lp65
I1
aI13
asba(ichempy
Bond
(dp66
g56
I1
sg21
(lp67
I3
aI2
asba(ichempy
Bond
(dp68
g56
I1
sg21
(lp69
I4
aI2
asba(ichempy
Bond
(dp70
g56
I1
sg21
(lp71
I6
aI5
asba(ichempy
Bond
(dp72
g56
I2
sg21
(lp73
I6
aI7
asba(ichempy
Bond
(dp74
g56
I1
sg21
(lp75
I8
aI4
asba(ichempy
Bond
(dp76
g56
I1
sg21
(lp77
I9
aI3
asba(ichempy
Bond
(dp78
g56
I1
sg21
(lp79
I10
aI3
asba(ichempy
Bond
(dp80
g56
I1
sg21
(lp81
I11
aI3
asba(ichempy
Bond
(dp82
g56
I1
sg21
(lp83
I14
aI2
asbasb.