(ichempy.models
Indexed
p1
(dp2
S'atom'
p3
(lp4
(ichempy
Atom
(dp5
S'resn'
p6
S'GLN'
sS'id'
p7
I32
sS'partial_charge'
p8
F-0.41569998860359192
sS'formal_charge'
p9
I0
sS'segi'
p10
S''
sS'resi'
p11
S'2'
sS'resi_number'
p12
I2
sS'q'
F1
sS'hetatm'
p13
I0
sS'coord'
p14
(lp15
F3.2660000324249268
aF1.6440000534057617
aF0
asS'symbol'
p16
S'N'
sS'text_type'
p17
S'N'
sS'flags'
p18
I0
sS'vdw'
p19
F1.7999999523162842
sS'name'
p20
S'N'
sS'b'
F0
sS'index'
p21
I20
sS'chain'
p22
S''
sba(ichempy
Atom
(dp23
g6
S'GLN'
sg7
I20
sg8
F-0.0031000000890344381
sg9
I0
sg10
S''
sg11
S'2'
sg12
I2
sS'q'
F1
sg13
I0
sg14
(lp24
F3.8180000782012939
aF2.994999885559082
aF0
asg16
S'C'
sg17
S'CT'
sg18
I0
sg19
F1.7999999523162842
sg20
S'CA'
sS'b'
F0
sg21
I21
sg22
S''
sba(ichempy
Atom
(dp25
g6
S'GLN'
sg7
I21
sg8
F-0.003599999938160181
sg9
I0
sg10
S''
sg11
S'2'
sg12
I2
sS'q'
F1
sg13
I0
sg14
(lp26
F3.2799999713897705
aF3.75
aF1.2359999418258667
asg16
S'C'
sg17
S'CT'
sg18
I0
sg19
F1.7999999523162842
sg20
S'CB'
sS'b'
F0
sg21
I22
sg22
S''
sba(ichempy
Atom
(dp27
g6
S'GLN'
sg7
I23
sg8
F-0.064499996602535248
sg9
I0
sg10
S''
sg11
S'2'
sg12
I2
sS'q'
F1
sg13
I0
sg14
(lp28
F3.7290000915527344
aF5.2410001754760742
aF1.3839999437332153
asg16
S'C'
sg17
S'CT'
sg18
I0
sg19
F1.7999999523162842
sg20
S'CG'
sS'b'
F0
sg21
I23
sg22
S''
sba(ichempy
Atom
(dp29
g6
S'GLN'
sg7
I22
sg8
F0.69510000944137573
sg9
I0
sg10
S''
sg11
S'2'
sg12
I2
sS'q'
F1
sg13
I0
sg14
(lp30
F3.2839999198913574
aF6.0359997749328613
aF2.6180000305175781
asg16
S'C'
sg17
S'C'
sg18
I0
sg19
F1.7999999523162842
sg20
S'CD'
sS'b'
F0
sg21
I24
sg22
S''
sba(ichempy
Atom
(dp31
g6
S'GLN'
sg7
I33
sg8
F-0.9406999945640564
sg9
I0
sg10
S''
sg11
S'2'
sg12
I2
sS'q'
F1
sg13
I0
sg14
(lp32
F2.5250000953674316
aF5.4710001945495605
aF3.5220000743865967
asg16
S'N'
sg17
S'N'
sg18
I0
sg19
F1.7999999523162842
sg20
S'NE2'
sS'b'
F0
sg21
I25
sg22
S''
sba(ichempy
Atom
(dp33
g6
S'GLN'
sg7
I35
sg8
F-0.60860002040863037
sg9
I0
sg10
S''
sg11
S'2'
sg12
I2
sS'q'
F1
sg13
I0
sg14
(lp34
F3.6459999084472656
aF7.190000057220459
aF2.7890000343322754
asg16
S'O'
sg17
S'O'
sg18
I0
sg19
F1.5
sg20
S'OE1'
sS'b'
F0
sg21
I26
sg22
S''
sba(ichempy
Atom
(dp35
g6
S'GLN'
sg7
I19
sg8
F0.59729999303817749
sg9
I0
sg10
S''
sg11
S'2'
sg12
I2
sS'q'
F1
sg13
I0
sg14
(lp36
F5.3280000686645508
aF2.9639999866485596
aF0
asg16
S'C'
sg17
S'C'
sg18
I0
sg19
F1.7999999523162842
sg20
S'C'
sS'b'
F0
sg21
I27
sg22
S''
sba(ichempy
Atom
(dp37
g6
S'GLN'
sg7
I34
sg8
F-0.56790000200271606
sg9
I0
sg10
S''
sg11
S'2'
sg12
I2
sS'q'
F1
sg13
I0
sg14
(lp38
F5.9569997787475586
aF1.9079999923706055
aF0
asg16
S'O'
sg17
S'O'
sg18
I0
sg19
F1.5
sg20
S'O'
sS'b'
F0
sg21
I28
sg22
S''
sba(ichempy
Atom
(dp39
g6
S'GLN'
sg7
I24
sg8
F0.42509999871253967
sg9
I0
sg10
S''
sg11
S'2'
sg12
I2
sS'q'
F1
sg13
I0
sg14
(lp40
F2.3280000686645508
aF6.0469999313354492
aF4.3420000076293945
asg16
S'H'
sg17
S'H'
sg18
I0
sg19
F1.1000000238418579
sg20
S'1HE2'
sS'b'
F0
sg21
I29
sg22
S''
sba(ichempy
Atom
(dp41
g6
S'GLN'
sg7
I25
sg8
F0.017100000753998756
sg9
I0
sg10
S''
sg11
S'2'
sg12
I2
sS'q'
F1
sg13
I0
sg14
(lp42
F3.5789999961853027
aF3.1919999122619629
aF2.1480000019073486
asg16
S'H'
sg17
S'HC'
sg18
I0
sg19
F1.1000000238418579
sg20
S'2HB'
sS'b'
F0
sg21
I30
sg22
S''
sba(ichempy
Atom
(dp43
g6
S'GLN'
sg7
I26
sg8
F0.42509999871253967
sg9
I0
sg10
S''
sg11
S'2'
sg12
I2
sS'q'
F1
sg13
I0
sg14
(lp44
F2.315000057220459
aF4.4850001335144043
aF3.3540000915527344
asg16
S'H'
sg17
S'H'
sg18
I0
sg19
F1.1000000238418579
sg20
S'2HE2'
sS'b'
F0
sg21
I31
sg22
S''
sba(ichempy
Atom
(dp45
g6
S'GLN'
sg7
I27
sg8
F0.035199999809265137
sg9
I0
sg10
S''
sg11
S'2'
sg12
I2
sS'q'
F1
sg13
I0
sg14
(lp46
F3.4270000457763672
aF5.8189997673034668
aF0.49099999666213989
asg16
S'H'
sg17
S'HC'
sg18
I0
sg19
F1.1000000238418579
sg20
S'2HG'
sS'b'
F0
sg21
I32
sg22
S''
sba(ichempy
Atom
(dp47
g6
S'GLN'
sg7
I28
sg8
F0.017100000753998756
sg9
I0
sg10
S''
sg11
S'2'
sg12
I2
sS'q'
F1
sg13
I0
sg14
(lp48
F2.1730000972747803
aF3.7149999141693115
aF1.2230000495910645
asg16
S'H'
sg17
S'HC'
sg18
I0
sg19
F1.1000000238418579
sg20
S'3HB'
sS'b'
F0
sg21
I33
sg22
S''
sba(ichempy
Atom
(dp49
g6
S'GLN'
sg7
I29
sg8
F0.035199999809265137
sg9
I0
sg10
S''
sg11
S'2'
sg12
I2
sS'q'
F1
sg13
I0
sg14
(lp50
F4.8319997787475586
aF5.310999870300293
aF1.3949999809265137
asg16
S'H'
sg17
S'HC'
sg18
I0
sg19
F1.1000000238418579
sg20
S'3HG'
sS'b'
F0
sg21
I34
sg22
S''
sba(ichempy
Atom
(dp51
g6
S'GLN'
sg7
I30
sg8
F0.2718999981880188
sg9
I0
sg10
S''
sg11
S'2'
sg12
I2
sS'q'
F1
sg13
I0
sg14
(lp52
F3.8280000686645508
aF0.86500000953674316
aF0
asg16
S'H'
sg17
S'H'
sg18
I0
sg19
F1.1000000238418579
sg20
S'H'
sS'b'
F0
sg21
I35
sg22
S''
sba(ichempy
Atom
(dp53
g6
S'GLN'
sg7
I31
sg8
F0.085000000894069672
sg9
I0
sg10
S''
sg11
S'2'
sg12
I2
sS'q'
F1
sg13
I0
sg14
(lp54
F3.4939999580383301
aF3.5109999179840088
aF-0.92299997806549072
asg16
S'H'
sg17
S'H1'
sg18
I0
sg19
F1.1000000238418579
sg20
S'HA'
sS'b'
F0
sg21
I36
sg22
S''
sbasS'molecule'
p55
(ichempy
Molecule
(dp56
bsg21
NsS'bond'
p57
(lp58
(ichempy
Bond
(dp59
S'order'
p60
I1
sg21
(lp61
I0
aI1
asba(ichempy
Bond
(dp62
g60
I1
sg21
(lp63
I0
aI15
asba(ichempy
Bond
(dp64
g60
I1
sg21
(lp65
I1
aI2
asba(ichempy
Bond
(dp66
g60
I1
sg21
(lp67
I1
aI7
asba(ichempy
Bond
(dp68
g60
I1
sg21
(lp69
I1
aI16
asba(ichempy
Bond
(dp70
g60
I1
sg21
(lp71
I3
aI2
asba(ichempy
Bond
(dp72
g60
I1
sg21
(lp73
I4
aI3
asba(ichempy
Bond
(dp74
g60
I1
sg21
(lp75
I5
aI4
asba(ichempy
Bond
(dp76
g60
I2
sg21
(lp77
I6
aI4
asba(ichempy
Bond
(dp78
g60
I2
sg21
(lp79
I7
aI8
asba(ichempy
Bond
(dp80
g60
I1
sg21
(lp81
I9
aI5
asba(ichempy
Bond
(dp82
g60
I1
sg21
(lp83
I10
aI2
asba(ichempy
Bond
(dp84
g60
I1
sg21
(lp85
I11
aI5
asba(ichempy
Bond
(dp86
g60
I1
sg21
(lp87
I12
aI3
asba(ichempy
Bond
(dp88
g60
I1
sg21
(lp89
I13
aI2
asba(ichempy
Bond
(dp90
g60
I1
sg21
(lp91
I14
aI3
asbasb.