(ichempy.models
Indexed
p1
(dp2
S'atom'
p3
(lp4
(ichempy
Atom
(dp5
S'resn'
p6
S'GLU'
sS'id'
p7
I28
sS'partial_charge'
p8
F-0.5163000226020813
sS'formal_charge'
p9
I0
sS'segi'
p10
S''
sS'resi'
p11
S'2'
sS'resi_number'
p12
I2
sS'q'
F1
sS'hetatm'
p13
I0
sS'coord'
p14
(lp15
F4.8159999847412109
aF2.3989999294281006
aF1.3420000076293945
asS'symbol'
p16
S'N'
sS'text_type'
p17
S'N'
sS'flags'
p18
I0
sS'vdw'
p19
F1.7999999523162842
sS'name'
p20
S'N'
sS'b'
F0
sS'index'
p21
I18
sS'chain'
p22
S''
sba(ichempy
Atom
(dp23
g6
S'GLU'
sg7
I18
sg8
F0.03970000147819519
sg9
I0
sg10
S''
sg11
S'2'
sg12
I2
sS'q'
F1
sg13
I0
sg14
(lp24
F5.375
aF3.747999906539917
aF1.3420000076293945
asg16
S'C'
sg17
S'CT'
sg18
I0
sg19
F1.7999999523162842
sg20
S'CA'
sS'b'
F0
sg21
I19
sg22
S''
sba(ichempy
Atom
(dp25
g6
S'GLU'
sg7
I19
sg8
F0.056000001728534698
sg9
I0
sg10
S''
sg11
S'2'
sg12
I2
sS'q'
F1
sg13
I0
sg14
(lp26
F4.8520002365112305
aF4.5329999923706055
aF2.5789999961853027
asg16
S'C'
sg17
S'CT'
sg18
I0
sg19
F1.7999999523162842
sg20
S'CB'
sS'b'
F0
sg21
I20
sg22
S''
sba(ichempy
Atom
(dp27
g6
S'GLU'
sg7
I21
sg8
F0.01360000018030405
sg9
I0
sg10
S''
sg11
S'2'
sg12
I2
sS'q'
F1
sg13
I0
sg14
(lp28
F5.3270001411437988
aF6.0180001258850098
aF2.690000057220459
asg16
S'C'
sg17
S'CT'
sg18
I0
sg19
F1.7999999523162842
sg20
S'CG'
sS'b'
F0
sg21
I21
sg22
S''
sba(ichempy
Atom
(dp29
g6
S'GLU'
sg7
I20
sg8
F0.80540001392364502
sg9
I0
sg10
S''
sg11
S'2'
sg12
I2
sS'q'
F1
sg13
I0
sg14
(lp30
F4.9029998779296875
aF6.8220000267028809
aF3.9049999713897705
asg16
S'C'
sg17
S'C'
sg18
I0
sg19
F1.7999999523162842
sg20
S'CD'
sS'b'
F0
sg21
I22
sg22
S''
sba(ichempy
Atom
(dp31
g6
S'GLU'
sg7
I30
sg8
F-0.81879997253417969
sg9
I0
sg10
S''
sg11
S'2'
sg12
I2
sS'q'
F1
sg13
I0
sg14
(lp32
F4.1750001907348633
aF6.320000171661377
aF4.7829999923706055
asg16
S'O'
sg17
S'O2'
sg18
I0
sg19
F1.5
sg20
S'OE1'
sS'b'
F0
sg21
I23
sg22
S''
sba(ichempy
Atom
(dp33
g6
S'GLU'
sg7
I31
sg8
F-0.81879997253417969
sg9
I0
sg10
S''
sg11
S'2'
sg12
I2
sS'q'
F1
sg13
I0
sg14
(lp34
F5.3330001831054688
aF7.9920001029968262
aF3.9769999980926514
asg16
S'O'
sg17
S'O2'
sg18
I0
sg19
F1.5
sg20
S'OE2'
sS'b'
F0
sg21
I24
sg22
S''
sba(ichempy
Atom
(dp35
g6
S'GLU'
sg7
I17
sg8
F0.53659999370574951
sg9
I0
sg10
S''
sg11
S'2'
sg12
I2
sS'q'
F1
sg13
I0
sg14
(lp36
F6.8839998245239258
aF3.7079999446868896
aF1.3420000076293945
asg16
S'C'
sg17
S'C'
sg18
I0
sg19
F1.7999999523162842
sg20
S'C'
sS'b'
F0
sg21
I25
sg22
S''
sba(ichempy
Atom
(dp37
g6
S'GLU'
sg7
I29
sg8
F-0.58190000057220459
sg9
I0
sg10
S''
sg11
S'2'
sg12
I2
sS'q'
F1
sg13
I0
sg14
(lp38
F7.5130000114440918
aF2.6400001049041748
aF1.3420000076293945
asg16
S'O'
sg17
S'O'
sg18
I0
sg19
F1.5
sg20
S'O'
sS'b'
F0
sg21
I26
sg22
S''
sba(ichempy
Atom
(dp39
g6
S'GLU'
sg7
I22
sg8
F-0.017300000414252281
sg9
I0
sg10
S''
sg11
S'2'
sg12
I2
sS'q'
F1
sg13
I0
sg14
(lp40
F5.1409997940063477
aF4.0019998550415039
aF3.5090000629425049
asg16
S'H'
sg17
S'HC'
sg18
I0
sg19
F1.1000000238418579
sg20
S'2HB'
sS'b'
F0
sg21
I27
sg22
S''
sba(ichempy
Atom
(dp41
g6
S'GLU'
sg7
I23
sg8
F-0.042500000447034836
sg9
I0
sg10
S''
sg11
S'2'
sg12
I2
sS'q'
F1
sg13
I0
sg14
(lp42
F5.0170001983642578
aF6.6030001640319824
aF1.8090000152587891
asg16
S'H'
sg17
S'HC'
sg18
I0
sg19
F1.1000000238418579
sg20
S'2HG'
sS'b'
F0
sg21
I28
sg22
S''
sba(ichempy
Atom
(dp43
g6
S'GLU'
sg7
I24
sg8
F-0.017300000414252281
sg9
I0
sg10
S''
sg11
S'2'
sg12
I2
sS'q'
F1
sg13
I0
sg14
(lp44
F3.744999885559082
aF4.5229997634887695
aF2.5920000076293945
asg16
S'H'
sg17
S'HC'
sg18
I0
sg19
F1.1000000238418579
sg20
S'3HB'
sS'b'
F0
sg21
I29
sg22
S''
sba(ichempy
Atom
(dp45
g6
S'GLU'
sg7
I25
sg8
F-0.042500000447034836
sg9
I0
sg10
S''
sg11
S'2'
sg12
I2
sS'q'
F1
sg13
I0
sg14
(lp46
F6.4270000457763672
aF6.0850000381469727
aF2.7190001010894775
asg16
S'H'
sg17
S'HC'
sg18
I0
sg19
F1.1000000238418579
sg20
S'3HG'
sS'b'
F0
sg21
I30
sg22
S''
sba(ichempy
Atom
(dp47
g6
S'GLU'
sg7
I26
sg8
F0.29359999299049377
sg9
I0
sg10
S''
sg11
S'2'
sg12
I2
sS'q'
F1
sg13
I0
sg14
(lp48
F5.4429998397827148
aF1.5199999809265137
aF1.3420000076293945
asg16
S'H'
sg17
S'H'
sg18
I0
sg19
F1.1000000238418579
sg20
S'H'
sS'b'
F0
sg21
I31
sg22
S''
sba(ichempy
Atom
(dp49
g6
S'GLU'
sg7
I27
sg8
F0.11050000041723251
sg9
I0
sg10
S''
sg11
S'2'
sg12
I2
sS'q'
F1
sg13
I0
sg14
(lp50
F5.0489997863769531
aF4.2659997940063477
aF0.42199999094009399
asg16
S'H'
sg17
S'H1'
sg18
I0
sg19
F1.1000000238418579
sg20
S'HA'
sS'b'
F0
sg21
I32
sg22
S''
sbasS'molecule'
p51
(ichempy
Molecule
(dp52
bsg21
NsS'bond'
p53
(lp54
(ichempy
Bond
(dp55
S'order'
p56
I1
sg21
(lp57
I0
aI1
asba(ichempy
Bond
(dp58
g56
I1
sg21
(lp59
I0
aI13
asba(ichempy
Bond
(dp60
g56
I1
sg21
(lp61
I1
aI2
asba(ichempy
Bond
(dp62
g56
I1
sg21
(lp63
I1
aI7
asba(ichempy
Bond
(dp64
g56
I1
sg21
(lp65
I1
aI14
asba(ichempy
Bond
(dp66
g56
I1
sg21
(lp67
I3
aI2
asba(ichempy
Bond
(dp68
g56
I1
sg21
(lp69
I4
aI3
asba(ichempy
Bond
(dp70
g56
I2
sg21
(lp71
I5
aI4
asba(ichempy
Bond
(dp72
g56
I1
sg21
(lp73
I6
aI4
asba(ichempy
Bond
(dp74
g56
I2
sg21
(lp75
I7
aI8
asba(ichempy
Bond
(dp76
g56
I1
sg21
(lp77
I9
aI2
asba(ichempy
Bond
(dp78
g56
I1
sg21
(lp79
I10
aI3
asba(ichempy
Bond
(dp80
g56
I1
sg21
(lp81
I11
aI2
asba(ichempy
Bond
(dp82
g56
I1
sg21
(lp83
I12
aI3
asbasb.