(ichempy.models
Indexed
p1
(dp2
S'atom'
p3
(lp4
(ichempy
Atom
(dp5
S'resn'
p6
S'HID'
sS'id'
p7
I32
sS'partial_charge'
p8
F-0.41569998860359192
sS'formal_charge'
p9
I0
sS'segi'
p10
S''
sS'resi'
p11
S'2'
sS'resi_number'
p12
I2
sS'q'
F1
sS'hetatm'
p13
I0
sS'coord'
p14
(lp15
F1.0219999551773071
aF2.5739998817443848
aF8.6090002059936523
asS'symbol'
p16
S'N'
sS'text_type'
p17
S'N'
sS'flags'
p18
I0
sS'vdw'
p19
F1.7999999523162842
sS'name'
p20
S'N'
sS'b'
F0
sS'index'
p21
I20
sS'chain'
p22
S''
sba(ichempy
Atom
(dp23
g6
S'HID'
sg7
I20
sg8
F0.018799999728798866
sg9
I0
sg10
S''
sg11
S'2'
sg12
I2
sS'q'
F1
sg13
I0
sg14
(lp24
F1.6289999485015869
aF3.9000000953674316
aF8.5439996719360352
asg16
S'C'
sg17
S'CT'
sg18
I0
sg19
F1.7999999523162842
sg20
S'CA'
sS'b'
F0
sg21
I21
sg22
S''
sba(ichempy
Atom
(dp25
g6
S'HID'
sg7
I21
sg8
F-0.046199999749660492
sg9
I0
sg10
S''
sg11
S'2'
sg12
I2
sS'q'
F1
sg13
I0
sg14
(lp26
F1.2079999446868896
aF4.75
aF9.7829999923706055
asg16
S'C'
sg17
S'CT'
sg18
I0
sg19
F1.7999999523162842
sg20
S'CB'
sS'b'
F0
sg21
I22
sg22
S''
sba(ichempy
Atom
(dp27
g6
S'HID'
sg7
I24
sg8
F-0.026599999517202377
sg9
I0
sg10
S''
sg11
S'2'
sg12
I2
sS'q'
F1
sg13
I0
sg14
(lp28
F0.50099998712539673
aF6.0729999542236328
aF9.4930000305175781
asg16
S'C'
sg17
S'CC'
sg18
I0
sg19
F1.7999999523162842
sg20
S'CG'
sS'b'
F0
sg21
I23
sg22
S''
sba(ichempy
Atom
(dp29
g6
S'HID'
sg7
I22
sg8
F0.12919999659061432
sg9
I0
sg10
S''
sg11
S'2'
sg12
I2
sS'q'
F1
sg13
I0
sg14
(lp30
F-0.8880000114440918
aF6.2150001525878906
aF9.3579998016357422
asg16
S'C'
sg17
S'CV'
sg18
I0
sg19
F1.7999999523162842
sg20
S'CD2'
sS'b'
F0
sg21
I24
sg22
S''
sba(ichempy
Atom
(dp31
g6
S'HID'
sg7
I33
sg8
F-0.38109999895095825
sg9
I0
sg10
S''
sg11
S'2'
sg12
I2
sS'q'
F1
sg13
I0
sg14
(lp32
F1.1080000400543213
aF7.3000001907348633
aF9.3079996109008789
asg16
S'N'
sg17
S'NA'
sg18
I0
sg19
F1.7999999523162842
sg20
S'ND1'
sS'b'
F0
sg21
I25
sg22
S''
sba(ichempy
Atom
(dp33
g6
S'HID'
sg7
I23
sg8
F0.20569999516010284
sg9
I0
sg10
S''
sg11
S'2'
sg12
I2
sS'q'
F1
sg13
I0
sg14
(lp34
F0.020999999716877937
aF8.0839996337890625
aF9.0629997253417969
asg16
S'C'
sg17
S'CR'
sg18
I0
sg19
F1.7999999523162842
sg20
S'CE1'
sS'b'
F0
sg21
I26
sg22
S''
sba(ichempy
Atom
(dp35
g6
S'HID'
sg7
I34
sg8
F-0.57270002365112305
sg9
I0
sg10
S''
sg11
S'2'
sg12
I2
sS'q'
F1
sg13
I0
sg14
(lp36
F-1.2319999933242798
aF7.5300002098083496
aF9.0749998092651367
asg16
S'N'
sg17
S'NB'
sg18
I0
sg19
F1.7999999523162842
sg20
S'NE2'
sS'b'
F0
sg21
I27
sg22
S''
sba(ichempy
Atom
(dp37
g6
S'HID'
sg7
I19
sg8
F0.59729999303817749
sg9
I0
sg10
S''
sg11
S'2'
sg12
I2
sS'q'
F1
sg13
I0
sg14
(lp38
F3.130000114440918
aF3.8020000457763672
aF8.4079999923706055
asg16
S'C'
sg17
S'C'
sg18
I0
sg19
F1.7999999523162842
sg20
S'C'
sS'b'
F0
sg21
I28
sg22
S''
sba(ichempy
Atom
(dp39
g6
S'HID'
sg7
I35
sg8
F-0.56790000200271606
sg9
I0
sg10
S''
sg11
S'2'
sg12
I2
sS'q'
F1
sg13
I0
sg14
(lp40
F3.7200000286102295
aF2.7019999027252197
aF8.3620004653930664
asg16
S'O'
sg17
S'O'
sg18
I0
sg19
F1.5
sg20
S'O'
sS'b'
F0
sg21
I29
sg22
S''
sba(ichempy
Atom
(dp41
g6
S'HID'
sg7
I25
sg8
F0.36489999294281006
sg9
I0
sg10
S''
sg11
S'2'
sg12
I2
sS'q'
F1
sg13
I0
sg14
(lp42
F2.1050000190734863
aF7.5380001068115234
aF9.2969999313354492
asg16
S'H'
sg17
S'H'
sg18
I0
sg19
F1.1000000238418579
sg20
S'1HD'
sS'b'
F0
sg21
I30
sg22
S''
sba(ichempy
Atom
(dp43
g6
S'HID'
sg7
I26
sg8
F0.13920000195503235
sg9
I0
sg10
S''
sg11
S'2'
sg12
I2
sS'q'
F1
sg13
I0
sg14
(lp44
F0.14699999988079071
aF9.1370000839233398
aF8.8479995727539062
asg16
S'H'
sg17
S'H5'
sg18
I0
sg19
F1.1000000238418579
sg20
S'1HE'
sS'b'
F0
sg21
I31
sg22
S''
sba(ichempy
Atom
(dp45
g6
S'HID'
sg7
I27
sg8
F0.040199998766183853
sg9
I0
sg10
S''
sg11
S'2'
sg12
I2
sS'q'
F1
sg13
I0
sg14
(lp46
F2.0880000591278076
aF4.9770002365112305
aF10.418000221252441
asg16
S'H'
sg17
S'HC'
sg18
I0
sg19
F1.1000000238418579
sg20
S'2HB'
sS'b'
F0
sg21
I32
sg22
S''
sba(ichempy
Atom
(dp47
g6
S'HID'
sg7
I28
sg8
F0.11469999700784683
sg9
I0
sg10
S''
sg11
S'2'
sg12
I2
sS'q'
F1
sg13
I0
sg14
(lp48
F-1.5980000495910645
aF5.4060001373291016
aF9.4549999237060547
asg16
S'H'
sg17
S'H4'
sg18
I0
sg19
F1.1000000238418579
sg20
S'2HD'
sS'b'
F0
sg21
I33
sg22
S''
sba(ichempy
Atom
(dp49
g6
S'HID'
sg7
I29
sg8
F0.040199998766183853
sg9
I0
sg10
S''
sg11
S'2'
sg12
I2
sS'q'
F1
sg13
I0
sg14
(lp50
F0.56599998474121094
aF4.1669998168945312
aF10.472999572753906
asg16
S'H'
sg17
S'HC'
sg18
I0
sg19
F1.1000000238418579
sg20
S'3HB'
sS'b'
F0
sg21
I34
sg22
S''
sba(ichempy
Atom
(dp51
g6
S'HID'
sg7
I30
sg8
F0.2718999981880188
sg9
I0
sg10
S''
sg11
S'2'
sg12
I2
sS'q'
F1
sg13
I0
sg14
(lp52
F1.6130000352859497
aF1.6710000038146973
aF8.560999870300293
asg16
S'H'
sg17
S'H'
sg18
I0
sg19
F1.1000000238418579
sg20
S'H'
sS'b'
F0
sg21
I35
sg22
S''
sba(ichempy
Atom
(dp53
g6
S'HID'
sg7
I31
sg8
F0.088100001215934753
sg9
I0
sg10
S''
sg11
S'2'
sg12
I2
sS'q'
F1
sg13
I0
sg14
(lp54
F1.2890000343322754
aF4.3499999046325684
aF7.5949997901916504
asg16
S'H'
sg17
S'H1'
sg18
I0
sg19
F1.1000000238418579
sg20
S'HA'
sS'b'
F0
sg21
I36
sg22
S''
sbasS'molecule'
p55
(ichempy
Molecule
(dp56
bsg21
NsS'bond'
p57
(lp58
(ichempy
Bond
(dp59
S'order'
p60
I1
sg21
(lp61
I0
aI1
asba(ichempy
Bond
(dp62
g60
I1
sg21
(lp63
I0
aI15
asba(ichempy
Bond
(dp64
g60
I1
sg21
(lp65
I1
aI2
asba(ichempy
Bond
(dp66
g60
I1
sg21
(lp67
I1
aI8
asba(ichempy
Bond
(dp68
g60
I1
sg21
(lp69
I1
aI16
asba(ichempy
Bond
(dp70
g60
I1
sg21
(lp71
I3
aI2
asba(ichempy
Bond
(dp72
g60
I2
sg21
(lp73
I3
aI4
asba(ichempy
Bond
(dp74
g60
I1
sg21
(lp75
I4
aI7
asba(ichempy
Bond
(dp76
g60
I1
sg21
(lp77
I5
aI3
asba(ichempy
Bond
(dp78
g60
I1
sg21
(lp79
I6
aI5
asba(ichempy
Bond
(dp80
g60
I2
sg21
(lp81
I7
aI6
asba(ichempy
Bond
(dp82
g60
I2
sg21
(lp83
I8
aI9
asba(ichempy
Bond
(dp84
g60
I1
sg21
(lp85
I10
aI5
asba(ichempy
Bond
(dp86
g60
I1
sg21
(lp87
I11
aI6
asba(ichempy
Bond
(dp88
g60
I1
sg21
(lp89
I12
aI2
asba(ichempy
Bond
(dp90
g60
I1
sg21
(lp91
I13
aI4
asba(ichempy
Bond
(dp92
g60
I1
sg21
(lp93
I14
aI2
asbasb.