(ichempy.models
Indexed
p1
(dp2
S'atom'
p3
(lp4
(ichempy
Atom
(dp5
S'resn'
p6
S'HIE'
sS'id'
p7
I32
sS'partial_charge'
p8
F-0.41569998860359192
sS'formal_charge'
p9
I0
sS'segi'
p10
S''
sS'resi'
p11
S'2'
sS'resi_number'
p12
I2
sS'q'
F1
sS'hetatm'
p13
I0
sS'coord'
p14
(lp15
F0.99800002574920654
aF2.5079998970031738
aF9.5520000457763672
asS'symbol'
p16
S'N'
sS'text_type'
p17
S'N'
sS'flags'
p18
I0
sS'vdw'
p19
F1.7999999523162842
sS'name'
p20
S'N'
sS'b'
F0
sS'index'
p21
I20
sS'chain'
p22
S''
sba(ichempy
Atom
(dp23
g6
S'HIE'
sg7
I20
sg8
F-0.058100000023841858
sg9
I0
sg10
S''
sg11
S'2'
sg12
I2
sS'q'
F1
sg13
I0
sg14
(lp24
F1.5520000457763672
aF3.8269999027252197
aF9.8450002670288086
asg16
S'C'
sg17
S'CT'
sg18
I0
sg19
F1.7999999523162842
sg20
S'CA'
sS'b'
F0
sg21
I21
sg22
S''
sba(ichempy
Atom
(dp25
g6
S'HIE'
sg7
I21
sg8
F-0.0074000000022351742
sg9
I0
sg10
S''
sg11
S'2'
sg12
I2
sS'q'
F1
sg13
I0
sg14
(lp26
F1.0509999990463257
aF4.2039999961853027
aF11.24899959564209
asg16
S'C'
sg17
S'CT'
sg18
I0
sg19
F1.7999999523162842
sg20
S'CB'
sS'b'
F0
sg21
I22
sg22
S''
sba(ichempy
Atom
(dp27
g6
S'HIE'
sg7
I24
sg8
F0.18680000305175781
sg9
I0
sg10
S''
sg11
S'2'
sg12
I2
sS'q'
F1
sg13
I0
sg14
(lp28
F0.21899999678134918
aF5.4530000686645508
aF11.241000175476074
asg16
S'C'
sg17
S'CC'
sg18
I0
sg19
F1.7999999523162842
sg20
S'CG'
sS'b'
F0
sg21
I23
sg22
S''
sba(ichempy
Atom
(dp29
g6
S'HIE'
sg7
I22
sg8
F-0.22069999575614929
sg9
I0
sg10
S''
sg11
S'2'
sg12
I2
sS'q'
F1
sg13
I0
sg14
(lp30
F-1.1599999666213989
aF5.434999942779541
aF11.079000473022461
asg16
S'C'
sg17
S'CW'
sg18
I0
sg19
F1.7999999523162842
sg20
S'CD2'
sS'b'
F0
sg21
I24
sg22
S''
sba(ichempy
Atom
(dp31
g6
S'HIE'
sg7
I33
sg8
F-0.54320001602172852
sg9
I0
sg10
S''
sg11
S'2'
sg12
I2
sS'q'
F1
sg13
I0
sg14
(lp32
F0.69700002670288086
aF6.7529997825622559
aF11.390000343322754
asg16
S'N'
sg17
S'NB'
sg18
I0
sg19
F1.7999999523162842
sg20
S'ND1'
sS'b'
F0
sg21
I25
sg22
S''
sba(ichempy
Atom
(dp33
g6
S'HIE'
sg7
I23
sg8
F0.16349999606609344
sg9
I0
sg10
S''
sg11
S'2'
sg12
I2
sS'q'
F1
sg13
I0
sg14
(lp34
F-0.45899999141693115
aF7.435999870300293
aF11.298999786376953
asg16
S'C'
sg17
S'CR'
sg18
I0
sg19
F1.7999999523162842
sg20
S'CE1'
sS'b'
F0
sg21
I26
sg22
S''
sba(ichempy
Atom
(dp35
g6
S'HIE'
sg7
I34
sg8
F-0.27950000762939453
sg9
I0
sg10
S''
sg11
S'2'
sg12
I2
sS'q'
F1
sg13
I0
sg14
(lp36
F-1.6080000400543213
aF6.7300000190734863
aF11.116999626159668
asg16
S'N'
sg17
S'NA'
sg18
I0
sg19
F1.7999999523162842
sg20
S'NE2'
sS'b'
F0
sg21
I27
sg22
S''
sba(ichempy
Atom
(dp37
g6
S'HIE'
sg7
I19
sg8
F0.59729999303817749
sg9
I0
sg10
S''
sg11
S'2'
sg12
I2
sS'q'
F1
sg13
I0
sg14
(lp38
F3.0610001087188721
aF3.7999999523162842
aF9.814000129699707
asg16
S'C'
sg17
S'C'
sg18
I0
sg19
F1.7999999523162842
sg20
S'C'
sS'b'
F0
sg21
I28
sg22
S''
sba(ichempy
Atom
(dp39
g6
S'HIE'
sg7
I35
sg8
F-0.56790000200271606
sg9
I0
sg10
S''
sg11
S'2'
sg12
I2
sS'q'
F1
sg13
I0
sg14
(lp40
F3.6949999332427979
aF2.7630000114440918
aF9.5670003890991211
asg16
S'O'
sg17
S'O'
sg18
I0
sg19
F1.5
sg20
S'O'
sS'b'
F0
sg21
I29
sg22
S''
sba(ichempy
Atom
(dp41
g6
S'HIE'
sg7
I25
sg8
F0.14350000023841858
sg9
I0
sg10
S''
sg11
S'2'
sg12
I2
sS'q'
F1
sg13
I0
sg14
(lp42
F-0.41200000047683716
aF8.5139999389648438
aF11.378999710083008
asg16
S'H'
sg17
S'H5'
sg18
I0
sg19
F1.1000000238418579
sg20
S'1HE'
sS'b'
F0
sg21
I30
sg22
S''
sba(ichempy
Atom
(dp43
g6
S'HIE'
sg7
I26
sg8
F0.036699999123811722
sg9
I0
sg10
S''
sg11
S'2'
sg12
I2
sS'q'
F1
sg13
I0
sg14
(lp44
F1.8969999551773071
aF4.3629999160766602
aF11.946999549865723
asg16
S'H'
sg17
S'HC'
sg18
I0
sg19
F1.1000000238418579
sg20
S'2HB'
sS'b'
F0
sg21
I31
sg22
S''
sba(ichempy
Atom
(dp45
g6
S'HIE'
sg7
I27
sg8
F0.18619999289512634
sg9
I0
sg10
S''
sg11
S'2'
sg12
I2
sS'q'
F1
sg13
I0
sg14
(lp46
F-1.7519999742507935
aF4.5339999198913574
aF10.946999549865723
asg16
S'H'
sg17
S'H4'
sg18
I0
sg19
F1.1000000238418579
sg20
S'2HD'
sS'b'
F0
sg21
I32
sg22
S''
sba(ichempy
Atom
(dp47
g6
S'HIE'
sg7
I28
sg8
F0.33390000462532043
sg9
I0
sg10
S''
sg11
S'2'
sg12
I2
sS'q'
F1
sg13
I0
sg14
(lp48
F-2.5750000476837158
aF7.0739998817443848
aF11.027000427246094
asg16
S'H'
sg17
S'H'
sg18
I0
sg19
F1.1000000238418579
sg20
S'2HE'
sS'b'
F0
sg21
I33
sg22
S''
sba(ichempy
Atom
(dp49
g6
S'HIE'
sg7
I29
sg8
F0.036699999123811722
sg9
I0
sg10
S''
sg11
S'2'
sg12
I2
sS'q'
F1
sg13
I0
sg14
(lp50
F0.44100001454353333
aF3.3970000743865967
aF11.706000328063965
asg16
S'H'
sg17
S'HC'
sg18
I0
sg19
F1.1000000238418579
sg20
S'3HB'
sS'b'
F0
sg21
I34
sg22
S''
sba(ichempy
Atom
(dp51
g6
S'HIE'
sg7
I30
sg8
F0.2718999981880188
sg9
I0
sg10
S''
sg11
S'2'
sg12
I2
sS'q'
F1
sg13
I0
sg14
(lp52
F1.6289999485015869
aF1.656000018119812
aF9.3470001220703125
asg16
S'H'
sg17
S'H'
sg18
I0
sg19
F1.1000000238418579
sg20
S'H'
sS'b'
F0
sg21
I35
sg22
S''
sba(ichempy
Atom
(dp53
g6
S'HIE'
sg7
I31
sg8
F0.13600000739097595
sg9
I0
sg10
S''
sg11
S'2'
sg12
I2
sS'q'
F1
sg13
I0
sg14
(lp54
F1.2319999933242798
aF4.5100002288818359
aF9.0399999618530273
asg16
S'H'
sg17
S'H1'
sg18
I0
sg19
F1.1000000238418579
sg20
S'HA'
sS'b'
F0
sg21
I36
sg22
S''
sbasS'molecule'
p55
(ichempy
Molecule
(dp56
bsg21
NsS'bond'
p57
(lp58
(ichempy
Bond
(dp59
S'order'
p60
I1
sg21
(lp61
I0
aI1
asba(ichempy
Bond
(dp62
g60
I1
sg21
(lp63
I0
aI15
asba(ichempy
Bond
(dp64
g60
I1
sg21
(lp65
I1
aI2
asba(ichempy
Bond
(dp66
g60
I1
sg21
(lp67
I1
aI8
asba(ichempy
Bond
(dp68
g60
I1
sg21
(lp69
I1
aI16
asba(ichempy
Bond
(dp70
g60
I1
sg21
(lp71
I3
aI2
asba(ichempy
Bond
(dp72
g60
I2
sg21
(lp73
I3
aI4
asba(ichempy
Bond
(dp74
g60
I1
sg21
(lp75
I4
aI7
asba(ichempy
Bond
(dp76
g60
I1
sg21
(lp77
I5
aI3
asba(ichempy
Bond
(dp78
g60
I2
sg21
(lp79
I6
aI5
asba(ichempy
Bond
(dp80
g60
I1
sg21
(lp81
I7
aI6
asba(ichempy
Bond
(dp82
g60
I2
sg21
(lp83
I8
aI9
asba(ichempy
Bond
(dp84
g60
I1
sg21
(lp85
I10
aI6
asba(ichempy
Bond
(dp86
g60
I1
sg21
(lp87
I11
aI2
asba(ichempy
Bond
(dp88
g60
I1
sg21
(lp89
I12
aI4
asba(ichempy
Bond
(dp90
g60
I1
sg21
(lp91
I13
aI7
asba(ichempy
Bond
(dp92
g60
I1
sg21
(lp93
I14
aI2
asbasb.