(ichempy.models
Indexed
p1
(dp2
S'atom'
p3
(lp4
(ichempy
Atom
(dp5
S'resn'
p6
S'HIP'
sS'id'
p7
I34
sS'partial_charge'
p8
F-0.34790000319480896
sS'formal_charge'
p9
I0
sS'segi'
p10
S''
sS'resi'
p11
S'2'
sS'resi_number'
p12
I2
sS'q'
F1
sS'hetatm'
p13
I0
sS'coord'
p14
(lp15
F0.99800002574920654
aF2.6919999122619629
aF8.8579998016357422
asS'symbol'
p16
S'N'
sS'text_type'
p17
S'N'
sS'flags'
p18
I0
sS'vdw'
p19
F1.7999999523162842
sS'name'
p20
S'N'
sS'b'
F0
sS'index'
p21
I21
sS'chain'
p22
S''
sba(ichempy
Atom
(dp23
g6
S'HIP'
sg7
I21
sg8
F-0.13539999723434448
sg9
I0
sg10
S''
sg11
S'2'
sg12
I2
sS'q'
F1
sg13
I0
sg14
(lp24
F1.5559999942779541
aF4.0409998893737793
aF8.8579998016357422
asg16
S'C'
sg17
S'CT'
sg18
I0
sg19
F1.7999999523162842
sg20
S'CA'
sS'b'
F0
sg21
I22
sg22
S''
sba(ichempy
Atom
(dp25
g6
S'HIP'
sg7
I22
sg8
F-0.0414000004529953
sg9
I0
sg10
S''
sg11
S'2'
sg12
I2
sS'q'
F1
sg13
I0
sg14
(lp26
F0.98500001430511475
aF4.7969999313354492
aF10.10200023651123
asg16
S'C'
sg17
S'CT'
sg18
I0
sg19
F1.7999999523162842
sg20
S'CB'
sS'b'
F0
sg21
I23
sg22
S''
sba(ichempy
Atom
(dp27
g6
S'HIP'
sg7
I25
sg8
F-0.0012000000569969416
sg9
I0
sg10
S''
sg11
S'2'
sg12
I2
sS'q'
F1
sg13
I0
sg14
(lp28
F0.15099999308586121
aF6.0479998588562012
aF9.8339996337890625
asg16
S'C'
sg17
S'CC'
sg18
I0
sg19
F1.7999999523162842
sg20
S'CG'
sS'b'
F0
sg21
I24
sg22
S''
sba(ichempy
Atom
(dp29
g6
S'HIP'
sg7
I23
sg8
F-0.11410000175237656
sg9
I0
sg10
S''
sg11
S'2'
sg12
I2
sS'q'
F1
sg13
I0
sg14
(lp30
F-1.2419999837875366
aF6.0440001487731934
aF9.6289997100830078
asg16
S'C'
sg17
S'CW'
sg18
I0
sg19
F1.7999999523162842
sg20
S'CD2'
sS'b'
F0
sg21
I25
sg22
S''
sba(ichempy
Atom
(dp31
g6
S'HIP'
sg7
I35
sg8
F-0.15129999816417694
sg9
I0
sg10
S''
sg11
S'2'
sg12
I2
sS'q'
F1
sg13
I0
sg14
(lp32
F0.62999999523162842
aF7.3460001945495605
aF9.7430000305175781
asg16
S'N'
sg17
S'NA'
sg18
I0
sg19
F1.7999999523162842
sg20
S'ND1'
sS'b'
F0
sg21
I26
sg22
S''
sba(ichempy
Atom
(dp33
g6
S'HIP'
sg7
I24
sg8
F-0.017000000923871994
sg9
I0
sg10
S''
sg11
S'2'
sg12
I2
sS'q'
F1
sg13
I0
sg14
(lp34
F-0.51599997282028198
aF8.0419998168945312
aF9.4799995422363281
asg16
S'C'
sg17
S'CR'
sg18
I0
sg19
F1.7999999523162842
sg20
S'CE1'
sS'b'
F0
sg21
I27
sg22
S''
sba(ichempy
Atom
(dp35
g6
S'HIP'
sg7
I36
sg8
F-0.17180000245571136
sg9
I0
sg10
S''
sg11
S'2'
sg12
I2
sS'q'
F1
sg13
I0
sg14
(lp36
F-1.6940000057220459
aF7.3420000076293945
aF9.3999996185302734
asg16
S'N'
sg17
S'NA'
sg18
I0
sg19
F1.7999999523162842
sg20
S'NE2'
sS'b'
F0
sg21
I28
sg22
S''
sba(ichempy
Atom
(dp37
g6
S'HIP'
sg7
I20
sg8
F0.73409998416900635
sg9
I0
sg10
S''
sg11
S'2'
sg12
I2
sS'q'
F1
sg13
I0
sg14
(lp38
F3.0659999847412109
aF4.000999927520752
aF8.8579998016357422
asg16
S'C'
sg17
S'C'
sg18
I0
sg19
F1.7999999523162842
sg20
S'C'
sS'b'
F0
sg21
I29
sg22
S''
sba(ichempy
Atom
(dp39
g6
S'HIP'
sg7
I37
sg8
F-0.58939999341964722
sg9
I0
sg10
S''
sg11
S'2'
sg12
I2
sS'q'
F1
sg13
I0
sg14
(lp40
F3.6949999332427979
aF2.9330000877380371
aF8.8570003509521484
asg16
S'O'
sg17
S'O'
sg18
I0
sg19
F1.5
sg20
S'O'
sS'b'
F0
sg21
I30
sg22
S''
sba(ichempy
Atom
(dp41
g6
S'HIP'
sg7
I26
sg8
F0.38659998774528503
sg9
I0
sg10
S''
sg11
S'2'
sg12
I2
sS'q'
F1
sg13
I0
sg14
(lp42
F1.6030000448226929
aF7.679999828338623
aF9.7819995880126953
asg16
S'H'
sg17
S'H'
sg18
I0
sg19
F1.1000000238418579
sg20
S'1HD'
sS'b'
F0
sg21
I31
sg22
S''
sba(ichempy
Atom
(dp43
g6
S'HIP'
sg7
I27
sg8
F0.26809999346733093
sg9
I0
sg10
S''
sg11
S'2'
sg12
I2
sS'q'
F1
sg13
I0
sg14
(lp44
F-0.4869999885559082
aF9.1219997406005859
aF9.3310003280639648
asg16
S'H'
sg17
S'H5'
sg18
I0
sg19
F1.1000000238418579
sg20
S'1HE'
sS'b'
F0
sg21
I32
sg22
S''
sba(ichempy
Atom
(dp45
g6
S'HIP'
sg7
I28
sg8
F0.081000000238418579
sg9
I0
sg10
S''
sg11
S'2'
sg12
I2
sS'q'
F1
sg13
I0
sg14
(lp46
F1.8049999475479126
aF5.0749998092651367
aF10.795000076293945
asg16
S'H'
sg17
S'HC'
sg18
I0
sg19
F1.1000000238418579
sg20
S'2HB'
sS'b'
F0
sg21
I33
sg22
S''
sba(ichempy
Atom
(dp47
g6
S'HIP'
sg7
I29
sg8
F0.23170000314712524
sg9
I0
sg10
S''
sg11
S'2'
sg12
I2
sS'q'
F1
sg13
I0
sg14
(lp48
F-1.8569999933242798
aF5.1479997634887695
aF9.6420001983642578
asg16
S'H'
sg17
S'H4'
sg18
I0
sg19
F1.1000000238418579
sg20
S'2HD'
sS'b'
F0
sg21
I34
sg22
S''
sba(ichempy
Atom
(dp49
g6
S'HIP'
sg7
I30
sg8
F0.39109998941421509
sg9
I0
sg10
S''
sg11
S'2'
sg12
I2
sS'q'
F1
sg13
I0
sg14
(lp50
F-2.6449999809265137
aF7.6840000152587891
aF9.2060003280639648
asg16
S'H'
sg17
S'H'
sg18
I0
sg19
F1.1000000238418579
sg20
S'2HE'
sS'b'
F0
sg21
I35
sg22
S''
sba(ichempy
Atom
(dp51
g6
S'HIP'
sg7
I31
sg8
F0.081000000238418579
sg9
I0
sg10
S''
sg11
S'2'
sg12
I2
sS'q'
F1
sg13
I0
sg14
(lp52
F0.37999999523162842
aF4.1189999580383301
aF10.741000175476074
asg16
S'H'
sg17
S'HC'
sg18
I0
sg19
F1.1000000238418579
sg20
S'3HB'
sS'b'
F0
sg21
I36
sg22
S''
sba(ichempy
Atom
(dp53
g6
S'HIP'
sg7
I32
sg8
F0.27469998598098755
sg9
I0
sg10
S''
sg11
S'2'
sg12
I2
sS'q'
F1
sg13
I0
sg14
(lp54
F1.625
aF1.812999963760376
aF8.8579998016357422
asg16
S'H'
sg17
S'H'
sg18
I0
sg19
F1.1000000238418579
sg20
S'H'
sS'b'
F0
sg21
I37
sg22
S''
sba(ichempy
Atom
(dp55
g6
S'HIP'
sg7
I33
sg8
F0.12120000272989273
sg9
I0
sg10
S''
sg11
S'2'
sg12
I2
sS'q'
F1
sg13
I0
sg14
(lp56
F1.2799999713897705
aF4.5089998245239258
aF7.8959999084472656
asg16
S'H'
sg17
S'H1'
sg18
I0
sg19
F1.1000000238418579
sg20
S'HA'
sS'b'
F0
sg21
I38
sg22
S''
sbasS'molecule'
p57
(ichempy
Molecule
(dp58
bsg21
NsS'bond'
p59
(lp60
(ichempy
Bond
(dp61
S'order'
p62
I1
sg21
(lp63
I0
aI1
asba(ichempy
Bond
(dp64
g62
I1
sg21
(lp65
I0
aI16
asba(ichempy
Bond
(dp66
g62
I1
sg21
(lp67
I1
aI2
asba(ichempy
Bond
(dp68
g62
I1
sg21
(lp69
I1
aI8
asba(ichempy
Bond
(dp70
g62
I1
sg21
(lp71
I1
aI17
asba(ichempy
Bond
(dp72
g62
I1
sg21
(lp73
I3
aI2
asba(ichempy
Bond
(dp74
g62
I2
sg21
(lp75
I3
aI4
asba(ichempy
Bond
(dp76
g62
I1
sg21
(lp77
I4
aI7
asba(ichempy
Bond
(dp78
g62
I1
sg21
(lp79
I5
aI3
asba(ichempy
Bond
(dp80
g62
I2
sg21
(lp81
I6
aI5
asba(ichempy
Bond
(dp82
g62
I1
sg21
(lp83
I7
aI6
asba(ichempy
Bond
(dp84
g62
I2
sg21
(lp85
I8
aI9
asba(ichempy
Bond
(dp86
g62
I1
sg21
(lp87
I10
aI5
asba(ichempy
Bond
(dp88
g62
I1
sg21
(lp89
I11
aI6
asba(ichempy
Bond
(dp90
g62
I1
sg21
(lp91
I12
aI2
asba(ichempy
Bond
(dp92
g62
I1
sg21
(lp93
I13
aI4
asba(ichempy
Bond
(dp94
g62
I1
sg21
(lp95
I14
aI7
asba(ichempy
Bond
(dp96
g62
I1
sg21
(lp97
I15
aI2
asbasb.