(ichempy.models
Indexed
p1
(dp2
S'atom'
p3
(lp4
(ichempy
Atom
(dp5
S'resn'
p6
S'LYS'
sS'id'
p7
I43
sS'partial_charge'
p8
F-0.34790000319480896
sS'formal_charge'
p9
I0
sS'segi'
p10
S''
sS'resi'
p11
S'2'
sS'resi_number'
p12
I2
sS'q'
F1
sS'hetatm'
p13
I0
sS'coord'
p14
(lp15
F3.2880001068115234
aF1.6369999647140503
aF0
asS'symbol'
p16
S'N'
sS'text_type'
p17
S'N'
sS'flags'
p18
I0
sS'vdw'
p19
F1.7999999523162842
sS'name'
p20
S'N'
sS'b'
F0
sS'index'
p21
I25
sS'chain'
p22
S''
sba(ichempy
Atom
(dp23
g6
S'LYS'
sg7
I25
sg8
F-0.23999999463558197
sg9
I0
sg10
S''
sg11
S'2'
sg12
I2
sS'q'
F1
sg13
I0
sg14
(lp24
F3.8469998836517334
aF2.9860000610351562
aF0
asg16
S'C'
sg17
S'CT'
sg18
I0
sg19
F1.7999999523162842
sg20
S'CA'
sS'b'
F0
sg21
I26
sg22
S''
sba(ichempy
Atom
(dp25
g6
S'LYS'
sg7
I26
sg8
F-0.0093999998643994331
sg9
I0
sg10
S''
sg11
S'2'
sg12
I2
sS'q'
F1
sg13
I0
sg14
(lp26
F3.312000036239624
aF3.7669999599456787
aF1.2309999465942383
asg16
S'C'
sg17
S'CT'
sg18
I0
sg19
F1.7999999523162842
sg20
S'CB'
sS'b'
F0
sg21
I27
sg22
S''
sba(ichempy
Atom
(dp27
g6
S'LYS'
sg7
I29
sg8
F0.018699999898672104
sg9
I0
sg10
S''
sg11
S'2'
sg12
I2
sS'q'
F1
sg13
I0
sg14
(lp28
F3.7890000343322754
aF5.2399997711181641
aF1.281000018119812
asg16
S'C'
sg17
S'CT'
sg18
I0
sg19
F1.7999999523162842
sg20
S'CG'
sS'b'
F0
sg21
I28
sg22
S''
sba(ichempy
Atom
(dp29
g6
S'LYS'
sg7
I27
sg8
F-0.047899998724460602
sg9
I0
sg10
S''
sg11
S'2'
sg12
I2
sS'q'
F1
sg13
I0
sg14
(lp30
F3.3340001106262207
aF6.0229997634887695
aF2.5160000324249268
asg16
S'C'
sg17
S'CT'
sg18
I0
sg19
F1.7999999523162842
sg20
S'CD'
sS'b'
F0
sg21
I29
sg22
S''
sba(ichempy
Atom
(dp31
g6
S'LYS'
sg7
I28
sg8
F-0.014299999922513962
sg9
I0
sg10
S''
sg11
S'2'
sg12
I2
sS'q'
F1
sg13
I0
sg14
(lp32
F3.934999942779541
aF7.4340000152587891
aF2.4700000286102295
asg16
S'C'
sg17
S'CT'
sg18
I0
sg19
F1.7999999523162842
sg20
S'CE'
sS'b'
F0
sg21
I30
sg22
S''
sba(ichempy
Atom
(dp33
g6
S'LYS'
sg7
I44
sg8
F-0.38539999723434448
sg9
I0
sg10
S''
sg11
S'2'
sg12
I2
sS'q'
F1
sg13
I0
sg14
(lp34
F3.3650000095367432
aF8.244999885559082
aF3.559999942779541
asg16
S'N'
sg17
S'N3'
sg18
I0
sg19
F1.7999999523162842
sg20
S'NZ'
sS'b'
F0
sg21
I31
sg22
S''
sba(ichempy
Atom
(dp35
g6
S'LYS'
sg7
I24
sg8
F0.73409998416900635
sg9
I0
sg10
S''
sg11
S'2'
sg12
I2
sS'q'
F1
sg13
I0
sg14
(lp36
F5.3569998741149902
aF2.9460000991821289
aF0
asg16
S'C'
sg17
S'C'
sg18
I0
sg19
F1.7999999523162842
sg20
S'C'
sS'b'
F0
sg21
I32
sg22
S''
sba(ichempy
Atom
(dp37
g6
S'LYS'
sg7
I45
sg8
F-0.58939999341964722
sg9
I0
sg10
S''
sg11
S'2'
sg12
I2
sS'q'
F1
sg13
I0
sg14
(lp38
F5.9860000610351562
aF1.878000020980835
aF0
asg16
S'O'
sg17
S'O'
sg18
I0
sg19
F1.5
sg20
S'O'
sS'b'
F0
sg21
I33
sg22
S''
sba(ichempy
Atom
(dp39
g6
S'LYS'
sg7
I30
sg8
F0.34000000357627869
sg9
I0
sg10
S''
sg11
S'2'
sg12
I2
sS'q'
F1
sg13
I0
sg14
(lp40
F3.2290000915527344
aF7.6739997863769531
aF4.4029998779296875
asg16
S'H'
sg17
S'H'
sg18
I0
sg19
F1.1000000238418579
sg20
S'1HZ'
sS'b'
F0
sg21
I34
sg22
S''
sba(ichempy
Atom
(dp41
g6
S'LYS'
sg7
I31
sg8
F0.036200001835823059
sg9
I0
sg10
S''
sg11
S'2'
sg12
I2
sS'q'
F1
sg13
I0
sg14
(lp42
F3.6089999675750732
aF3.2430000305175781
aF2.1630001068115234
asg16
S'H'
sg17
S'HC'
sg18
I0
sg19
F1.1000000238418579
sg20
S'2HB'
sS'b'
F0
sg21
I35
sg22
S''
sba(ichempy
Atom
(dp43
g6
S'LYS'
sg7
I32
sg8
F0.06210000067949295
sg9
I0
sg10
S''
sg11
S'2'
sg12
I2
sS'q'
F1
sg13
I0
sg14
(lp44
F3.6619999408721924
aF5.4970002174377441
aF3.4360001087188721
asg16
S'H'
sg17
S'HC'
sg18
I0
sg19
F1.1000000238418579
sg20
S'2HD'
sS'b'
F0
sg21
I36
sg22
S''
sba(ichempy
Atom
(dp45
g6
S'LYS'
sg7
I33
sg8
F0.11349999904632568
sg9
I0
sg10
S''
sg11
S'2'
sg12
I2
sS'q'
F1
sg13
I0
sg14
(lp46
F3.7300000190734863
aF7.9250001907348633
aF1.4960000514984131
asg16
S'H'
sg17
S'HP'
sg18
I0
sg19
F1.1000000238418579
sg20
S'2HE'
sS'b'
F0
sg21
I37
sg22
S''
sba(ichempy
Atom
(dp47
g6
S'LYS'
sg7
I34
sg8
F0.010300000198185444
sg9
I0
sg10
S''
sg11
S'2'
sg12
I2
sS'q'
F1
sg13
I0
sg14
(lp48
F3.4670000076293945
aF5.7659997940063477
aF0.36100000143051147
asg16
S'H'
sg17
S'HC'
sg18
I0
sg19
F1.1000000238418579
sg20
S'2HG'
sS'b'
F0
sg21
I38
sg22
S''
sba(ichempy
Atom
(dp49
g6
S'LYS'
sg7
I35
sg8
F0.34000000357627869
sg9
I0
sg10
S''
sg11
S'2'
sg12
I2
sS'q'
F1
sg13
I0
sg14
(lp50
F3.997999906539917
aF9.005000114440918
aF3.8299999237060547
asg16
S'H'
sg17
S'H'
sg18
I0
sg19
F1.1000000238418579
sg20
S'2HZ'
sS'b'
F0
sg21
I39
sg22
S''
sba(ichempy
Atom
(dp51
g6
S'LYS'
sg7
I36
sg8
F0.036200001835823059
sg9
I0
sg10
S''
sg11
S'2'
sg12
I2
sS'q'
F1
sg13
I0
sg14
(lp52
F2.2039999961853027
aF3.744999885559082
aF1.2339999675750732
asg16
S'H'
sg17
S'HC'
sg18
I0
sg19
F1.1000000238418579
sg20
S'3HB'
sS'b'
F0
sg21
I40
sg22
S''
sba(ichempy
Atom
(dp53
g6
S'LYS'
sg7
I37
sg8
F0.06210000067949295
sg9
I0
sg10
S''
sg11
S'2'
sg12
I2
sS'q'
F1
sg13
I0
sg14
(lp54
F2.2279999256134033
aF6.054999828338623
aF2.5529999732971191
asg16
S'H'
sg17
S'HC'
sg18
I0
sg19
F1.1000000238418579
sg20
S'3HD'
sS'b'
F0
sg21
I41
sg22
S''
sba(ichempy
Atom
(dp55
g6
S'LYS'
sg7
I38
sg8
F0.11349999904632568
sg9
I0
sg10
S''
sg11
S'2'
sg12
I2
sS'q'
F1
sg13
I0
sg14
(lp56
F5.0409998893737793
aF7.3880000114440918
aF2.5590000152587891
asg16
S'H'
sg17
S'HP'
sg18
I0
sg19
F1.1000000238418579
sg20
S'3HE'
sS'b'
F0
sg21
I42
sg22
S''
sba(ichempy
Atom
(dp57
g6
S'LYS'
sg7
I39
sg8
F0.010300000198185444
sg9
I0
sg10
S''
sg11
S'2'
sg12
I2
sS'q'
F1
sg13
I0
sg14
(lp58
F4.8940000534057617
aF5.2839999198913574
aF1.2740000486373901
asg16
S'H'
sg17
S'HC'
sg18
I0
sg19
F1.1000000238418579
sg20
S'3HG'
sS'b'
F0
sg21
I43
sg22
S''
sba(ichempy
Atom
(dp59
g6
S'LYS'
sg7
I40
sg8
F0.34000000357627869
sg9
I0
sg10
S''
sg11
S'2'
sg12
I2
sS'q'
F1
sg13
I0
sg14
(lp60
F2.4895970821380615
aF8.6115312576293945
aF3.2144215106964111
asg16
S'H'
sg17
S'H'
sg18
I0
sg19
F1.1000000238418579
sg20
S'3HZ'
sS'b'
F0
sg21
I44
sg22
S''
sba(ichempy
Atom
(dp61
g6
S'LYS'
sg7
I41
sg8
F0.27469998598098755
sg9
I0
sg10
S''
sg11
S'2'
sg12
I2
sS'q'
F1
sg13
I0
sg14
(lp62
F3.9159998893737793
aF0.75800001621246338
aF0
asg16
S'H'
sg17
S'H'
sg18
I0
sg19
F1.1000000238418579
sg20
S'H'
sS'b'
F0
sg21
I45
sg22
S''
sba(ichempy
Atom
(dp63
g6
S'LYS'
sg7
I42
sg8
F0.14259999990463257
sg9
I0
sg10
S''
sg11
S'2'
sg12
I2
sS'q'
F1
sg13
I0
sg14
(lp64
F3.5280001163482666
aF3.4960000514984131
aF-0.92799997329711914
asg16
S'H'
sg17
S'H1'
sg18
I0
sg19
F1.1000000238418579
sg20
S'HA'
sS'b'
F0
sg21
I46
sg22
S''
sbasS'molecule'
p65
(ichempy
Molecule
(dp66
bsg21
NsS'bond'
p67
(lp68
(ichempy
Bond
(dp69
S'order'
p70
I1
sg21
(lp71
I0
aI1
asba(ichempy
Bond
(dp72
g70
I1
sg21
(lp73
I0
aI20
asba(ichempy
Bond
(dp74
g70
I1
sg21
(lp75
I1
aI2
asba(ichempy
Bond
(dp76
g70
I1
sg21
(lp77
I1
aI7
asba(ichempy
Bond
(dp78
g70
I1
sg21
(lp79
I1
aI21
asba(ichempy
Bond
(dp80
g70
I1
sg21
(lp81
I3
aI2
asba(ichempy
Bond
(dp82
g70
I1
sg21
(lp83
I4
aI3
asba(ichempy
Bond
(dp84
g70
I1
sg21
(lp85
I5
aI4
asba(ichempy
Bond
(dp86
g70
I1
sg21
(lp87
I6
aI5
asba(ichempy
Bond
(dp88
g70
I1
sg21
(lp89
I6
aI19
asba(ichempy
Bond
(dp90
g70
I2
sg21
(lp91
I7
aI8
asba(ichempy
Bond
(dp92
g70
I1
sg21
(lp93
I9
aI6
asba(ichempy
Bond
(dp94
g70
I1
sg21
(lp95
I10
aI2
asba(ichempy
Bond
(dp96
g70
I1
sg21
(lp97
I11
aI4
asba(ichempy
Bond
(dp98
g70
I1
sg21
(lp99
I12
aI5
asba(ichempy
Bond
(dp100
g70
I1
sg21
(lp101
I13
aI3
asba(ichempy
Bond
(dp102
g70
I1
sg21
(lp103
I14
aI6
asba(ichempy
Bond
(dp104
g70
I1
sg21
(lp105
I15
aI2
asba(ichempy
Bond
(dp106
g70
I1
sg21
(lp107
I16
aI4
asba(ichempy
Bond
(dp108
g70
I1
sg21
(lp109
I17
aI5
asba(ichempy
Bond
(dp110
g70
I1
sg21
(lp111
I18
aI3
asbasb.