(ichempy.models
Indexed
p1
(dp2
S'atom'
p3
(lp4
(ichempy
Atom
(dp5
S'resn'
p6
S'NME'
sS'id'
p7
I370
sS'partial_charge'
p8
F-0.41569998860359192
sS'formal_charge'
p9
I0
sS'segi'
p10
S''
sS'resi'
p11
S'24'
sS'resi_number'
p12
I24
sS'q'
F1
sS'hetatm'
p13
I0
sS'coord'
p14
(lp15
F65.443000793457031
aF30.742000579833984
aF0.6600000262260437
asS'symbol'
p16
S'N'
sS'text_type'
p17
S'N'
sS'flags'
p18
I0
sS'vdw'
p19
F1.7999999523162842
sS'name'
p20
S'N'
sS'b'
F0
sS'index'
p21
I1
sS'chain'
p22
S''
sba(ichempy
Atom
(dp23
g6
S'NME'
sg7
I365
sg8
F-0.14900000393390656
sg9
I0
sg10
S''
sg11
S'24'
sg12
I24
sS'q'
F1
sg13
I0
sg14
(lp24
F66.8489990234375
aF30.885000228881836
aF0.32400000095367432
asg16
S'C'
sg17
S'CT'
sg18
I0
sg19
F1.7999999523162842
sg20
S'CH3'
sS'b'
F0
sg21
I2
sg22
S''
sba(ichempy
Atom
(dp25
g6
S'NME'
sg7
I366
sg8
F0.097599998116493225
sg9
I0
sg10
S''
sg11
S'24'
sg12
I24
sS'q'
F1
sg13
I0
sg14
(lp26
F67.132003784179688
aF30.141000747680664
aF-0.4050000011920929
asg16
S'H'
sg17
S'H1'
sg18
I0
sg19
F1.1000000238418579
sg20
S'1HH3'
sS'b'
F0
sg21
I3
sg22
S''
sba(ichempy
Atom
(dp27
g6
S'NME'
sg7
I367
sg8
F0.097599998116493225
sg9
I0
sg10
S''
sg11
S'24'
sg12
I24
sS'q'
F1
sg13
I0
sg14
(lp28
F67.032997131347656
aF31.867000579833984
aF-0.087999999523162842
asg16
S'H'
sg17
S'H1'
sg18
I0
sg19
F1.1000000238418579
sg20
S'2HH3'
sS'b'
F0
sg21
I4
sg22
S''
sba(ichempy
Atom
(dp29
g6
S'NME'
sg7
I368
sg8
F0.097599998116493225
sg9
I0
sg10
S''
sg11
S'24'
sg12
I24
sS'q'
F1
sg13
I0
sg14
(lp30
F67.455001831054688
aF30.756999969482422
aF1.2089999914169312
asg16
S'H'
sg17
S'H1'
sg18
I0
sg19
F1.1000000238418579
sg20
S'3HH3'
sS'b'
F0
sg21
I5
sg22
S''
sba(ichempy
Atom
(dp31
g6
S'NME'
sg7
I369
sg8
F0.2718999981880188
sg9
I0
sg10
S''
sg11
S'24'
sg12
I24
sS'q'
F1
sg13
I0
sg14
(lp32
F65.165000915527344
aF30.218000411987305
aF1.5019999742507935
asg16
S'H'
sg17
S'H'
sg18
I0
sg19
F1.1000000238418579
sg20
S'H'
sS'b'
F0
sg21
I6
sg22
S''
sbasS'molecule'
p33
(ichempy
Molecule
(dp34
bsg21
NsS'bond'
p35
(lp36
(ichempy
Bond
(dp37
S'order'
p38
I1
sg21
(lp39
I0
aI1
asba(ichempy
Bond
(dp40
g38
I1
sg21
(lp41
I0
aI5
asba(ichempy
Bond
(dp42
g38
I1
sg21
(lp43
I1
aI2
asba(ichempy
Bond
(dp44
g38
I1
sg21
(lp45
I1
aI3
asba(ichempy
Bond
(dp46
g38
I1
sg21
(lp47
I1
aI4
asbasb.