(ichempy.models
Indexed
p1
(dp2
S'atom'
p3
(lp4
(ichempy
Atom
(dp5
S'resn'
p6
S'ASP'
sS'id'
p7
I10
sS'partial_charge'
p8
F0.078199997544288635
sS'formal_charge'
p9
I0
sS'segi'
p10
S''
sS'resi'
p11
S'1'
sS'resi_number'
p12
I1
sS'q'
F1
sS'hetatm'
p13
I0
sS'coord'
p14
(lp15
F1.8530000448226929
aF0.21699999272823334
aF1.281999945640564
asS'symbol'
p16
S'N'
sS'text_type'
p17
S'N3'
sS'flags'
p18
I0
sS'vdw'
p19
F1.7999999523162842
sS'name'
p20
S'N'
sS'b'
F0
sS'index'
p21
I1
sS'chain'
p22
S''
sba(ichempy
Atom
(dp23
g6
S'ASP'
sg7
I1
sg8
F0.029200000688433647
sg9
I0
sg10
S''
sg11
S'1'
sg12
I1
sS'q'
F1
sg13
I0
sg14
(lp24
F3.3080000877380371
aF0.33199998736381531
aF1.281999945640564
asg16
S'C'
sg17
S'CT'
sg18
I0
sg19
F1.7999999523162842
sg20
S'CA'
sS'b'
F0
sg21
I2
sg22
S''
sba(ichempy
Atom
(dp25
g6
S'ASP'
sg7
I2
sg8
F-0.023499999195337296
sg9
I0
sg10
S''
sg11
S'1'
sg12
I1
sS'q'
F1
sg13
I0
sg14
(lp26
F3.9159998893737793
aF-0.42800000309944153
aF0.070000000298023224
asg16
S'C'
sg17
S'CT'
sg18
I0
sg19
F1.7999999523162842
sg20
S'CB'
sS'b'
F0
sg21
I3
sg22
S''
sba(ichempy
Atom
(dp27
g6
S'ASP'
sg7
I3
sg8
F0.81940001249313354
sg9
I0
sg10
S''
sg11
S'1'
sg12
I1
sS'q'
F1
sg13
I0
sg14
(lp28
F5.4499998092651367
aF-0.43999999761581421
aF0
asg16
S'C'
sg17
S'C'
sg18
I0
sg19
F1.7999999523162842
sg20
S'CG'
sS'b'
F0
sg21
I4
sg22
S''
sba(ichempy
Atom
(dp29
g6
S'ASP'
sg7
I12
sg8
F-0.80839997529983521
sg9
I0
sg10
S''
sg11
S'1'
sg12
I1
sS'q'
F1
sg13
I0
sg14
(lp30
F6.1069998741149902
aF-0.53100001811981201
aF1.0579999685287476
asg16
S'O'
sg17
S'O2'
sg18
I0
sg19
F1.5
sg20
S'OD1'
sS'b'
F0
sg21
I5
sg22
S''
sba(ichempy
Atom
(dp31
g6
S'ASP'
sg7
I13
sg8
F-0.80839997529983521
sg9
I0
sg10
S''
sg11
S'1'
sg12
I1
sS'q'
F1
sg13
I0
sg14
(lp32
F5.9980001449584961
aF-0.31499999761581421
aF-1.1160000562667847
asg16
S'O'
sg17
S'O2'
sg18
I0
sg19
F1.5
sg20
S'OD2'
sS'b'
F0
sg21
I6
sg22
S''
sba(ichempy
Atom
(dp33
g6
S'ASP'
sg7
I0
sg8
F0.56209999322891235
sg9
I0
sg10
S''
sg11
S'1'
sg12
I1
sS'q'
F1
sg13
I0
sg14
(lp34
F3.7369999885559082
aF1.7790000438690186
aF1.281999945640564
asg16
S'C'
sg17
S'C'
sg18
I0
sg19
F1.7999999523162842
sg20
S'C'
sS'b'
F0
sg21
I7
sg22
S''
sba(ichempy
Atom
(dp35
g6
S'ASP'
sg7
I11
sg8
F-0.58890002965927124
sg9
I0
sg10
S''
sg11
S'1'
sg12
I1
sS'q'
F1
sg13
I0
sg14
(lp36
F2.9159998893737793
aF2.7079999446868896
aF1.281999945640564
asg16
S'O'
sg17
S'O'
sg18
I0
sg19
F1.5
sg20
S'O'
sS'b'
F0
sg21
I8
sg22
S''
sba(ichempy
Atom
(dp37
g6
S'ASP'
sg7
I4
sg8
F0.2199999988079071
sg9
I0
sg10
S''
sg11
S'1'
sg12
I1
sS'q'
F1
sg13
I0
sg14
(lp38
F1.5859999656677246
aF-0.77799999713897705
aF1.281999945640564
asg16
S'H'
sg17
S'H'
sg18
I0
sg19
F1.1000000238418579
sg20
S'1HT'
sS'b'
F0
sg21
I9
sg22
S''
sba(ichempy
Atom
(dp39
g6
S'ASP'
sg7
I5
sg8
F-0.016899999231100082
sg9
I0
sg10
S''
sg11
S'1'
sg12
I1
sS'q'
F1
sg13
I0
sg14
(lp40
F3.5390000343322754
aF0.0040000001899898052
aF-0.87599998712539673
asg16
S'H'
sg17
S'HC'
sg18
I0
sg19
F1.1000000238418579
sg20
S'2HB'
sS'b'
F0
sg21
I10
sg22
S''
sba(ichempy
Atom
(dp41
g6
S'ASP'
sg7
I6
sg8
F0.2199999988079071
sg9
I0
sg10
S''
sg11
S'1'
sg12
I1
sS'q'
F1
sg13
I0
sg14
(lp42
F1.4720000028610229
aF0.67400002479553223
aF2.122999906539917
asg16
S'H'
sg17
S'H'
sg18
I0
sg19
F1.1000000238418579
sg20
S'2HT'
sS'b'
F0
sg21
I11
sg22
S''
sba(ichempy
Atom
(dp43
g6
S'ASP'
sg7
I7
sg8
F-0.016899999231100082
sg9
I0
sg10
S''
sg11
S'1'
sg12
I1
sS'q'
F1
sg13
I0
sg14
(lp44
F3.5899999141693115
aF-1.4809999465942383
aF0.065999999642372131
asg16
S'H'
sg17
S'HC'
sg18
I0
sg19
F1.1000000238418579
sg20
S'3HB'
sS'b'
F0
sg21
I12
sg22
S''
sba(ichempy
Atom
(dp45
g6
S'ASP'
sg7
I8
sg8
F0.2199999988079071
sg9
I0
sg10
S''
sg11
S'1'
sg12
I1
sS'q'
F1
sg13
I0
sg14
(lp46
F1.4720000028610229
aF0.67400002479553223
aF0.44100001454353333
asg16
S'H'
sg17
S'H'
sg18
I0
sg19
F1.1000000238418579
sg20
S'3HT'
sS'b'
F0
sg21
I13
sg22
S''
sba(ichempy
Atom
(dp47
g6
S'ASP'
sg7
I9
sg8
F0.11410000175237656
sg9
I0
sg10
S''
sg11
S'1'
sg12
I1
sS'q'
F1
sg13
I0
sg14
(lp48
F3.6909999847412109
aF-0.12399999797344208
aF2.2139999866485596
asg16
S'H'
sg17
S'HP'
sg18
I0
sg19
F1.1000000238418579
sg20
S'HA'
sS'b'
F0
sg21
I14
sg22
S''
sbasS'molecule'
p49
(ichempy
Molecule
(dp50
bsg21
NsS'bond'
p51
(lp52
(ichempy
Bond
(dp53
S'order'
p54
I1
sg21
(lp55
I0
aI1
asba(ichempy
Bond
(dp56
g54
I1
sg21
(lp57
I0
aI8
asba(ichempy
Bond
(dp58
g54
I1
sg21
(lp59
I0
aI10
asba(ichempy
Bond
(dp60
g54
I1
sg21
(lp61
I0
aI12
asba(ichempy
Bond
(dp62
g54
I1
sg21
(lp63
I1
aI2
asba(ichempy
Bond
(dp64
g54
I1
sg21
(lp65
I1
aI6
asba(ichempy
Bond
(dp66
g54
I1
sg21
(lp67
I1
aI13
asba(ichempy
Bond
(dp68
g54
I1
sg21
(lp69
I3
aI2
asba(ichempy
Bond
(dp70
g54
I2
sg21
(lp71
I4
aI3
asba(ichempy
Bond
(dp72
g54
I1
sg21
(lp73
I5
aI3
asba(ichempy
Bond
(dp74
g54
I2
sg21
(lp75
I6
aI7
asba(ichempy
Bond
(dp76
g54
I1
sg21
(lp77
I9
aI2
asba(ichempy
Bond
(dp78
g54
I1
sg21
(lp79
I11
aI2
asbasb.