(ichempy.models
Indexed
p1
(dp2
S'atom'
p3
(lp4
(ichempy
Atom
(dp5
S'resn'
p6
S'ARG'
sS'id'
p7
I21
sS'partial_charge'
p8
F0.13050000369548798
sS'formal_charge'
p9
I0
sS'segi'
p10
S''
sS'resi'
p11
S'1'
sS'resi_number'
p12
I1
sS'q'
F1
sS'hetatm'
p13
I0
sS'coord'
p14
(lp15
F0.73500001430511475
aF2.2190001010894775
aF1.3890000581741333
asS'symbol'
p16
S'N'
sS'text_type'
p17
S'N3'
sS'flags'
p18
I0
sS'vdw'
p19
F1.7999999523162842
sS'name'
p20
S'N'
sS'b'
F0
sS'index'
p21
I1
sS'chain'
p22
S''
sba(ichempy
Atom
(dp23
g6
S'ARG'
sg7
I1
sg8
F-0.022299999371170998
sg9
I0
sg10
S''
sg11
S'1'
sg12
I1
sS'q'
F1
sg13
I0
sg14
(lp24
F2.1889998912811279
aF2.2850000858306885
aF1.2740000486373901
asg16
S'C'
sg17
S'CT'
sg18
I0
sg19
F1.7999999523162842
sg20
S'CA'
sS'b'
F0
sg21
I2
sg22
S''
sba(ichempy
Atom
(dp25
g6
S'ARG'
sg7
I2
sg8
F0.011800000444054604
sg9
I0
sg10
S''
sg11
S'1'
sg12
I1
sS'q'
F1
sg13
I0
sg14
(lp26
F2.7599999904632568
aF0.83799999952316284
aF1.3079999685287476
asg16
S'C'
sg17
S'CT'
sg18
I0
sg19
F1.7999999523162842
sg20
S'CB'
sS'b'
F0
sg21
I3
sg22
S''
sba(ichempy
Atom
(dp27
g6
S'ARG'
sg7
I4
sg8
F0.023600000888109207
sg9
I0
sg10
S''
sg11
S'1'
sg12
I1
sS'q'
F1
sg13
I0
sg14
(lp28
F4.3020000457763672
aF0.73100000619888306
aF1.4730000495910645
asg16
S'C'
sg17
S'CT'
sg18
I0
sg19
F1.7999999523162842
sg20
S'CG'
sS'b'
F0
sg21
I4
sg22
S''
sba(ichempy
Atom
(dp29
g6
S'ARG'
sg7
I3
sg8
F0.093500003218650818
sg9
I0
sg10
S''
sg11
S'1'
sg12
I1
sS'q'
F1
sg13
I0
sg14
(lp30
F4.7859997749328613
aF-0.72899997234344482
aF1.4600000381469727
asg16
S'C'
sg17
S'CT'
sg18
I0
sg19
F1.7999999523162842
sg20
S'CD'
sS'b'
F0
sg21
I5
sg22
S''
sba(ichempy
Atom
(dp31
g6
S'ARG'
sg7
I22
sg8
F-0.56499999761581421
sg9
I0
sg10
S''
sg11
S'1'
sg12
I1
sS'q'
F1
sg13
I0
sg14
(lp32
F6.2670001983642578
aF-0.76999998092651367
aF1.6419999599456787
asg16
S'N'
sg17
S'N2'
sg18
I0
sg19
F1.7999999523162842
sg20
S'NE'
sS'b'
F0
sg21
I6
sg22
S''
sba(ichempy
Atom
(dp33
g6
S'ARG'
sg7
I5
sg8
F0.82810002565383911
sg9
I0
sg10
S''
sg11
S'1'
sg12
I1
sS'q'
F1
sg13
I0
sg14
(lp34
F7.0069999694824219
aF-1.8739999532699585
aF1.6729999780654907
asg16
S'C'
sg17
S'CA'
sg18
I0
sg19
F1.7999999523162842
sg20
S'CZ'
sS'b'
F0
sg21
I7
sg22
S''
sba(ichempy
Atom
(dp35
g6
S'ARG'
sg7
I23
sg8
F-0.86930000782012939
sg9
I0
sg10
S''
sg11
S'1'
sg12
I1
sS'q'
F1
sg13
I0
sg14
(lp36
F6.5180001258850098
aF-3.0739998817443848
aF1.5379999876022339
asg16
S'N'
sg17
S'N2'
sg18
I0
sg19
F1.7999999523162842
sg20
S'NH1'
sS'b'
F0
sg21
I8
sg22
S''
sba(ichempy
Atom
(dp37
g6
S'ARG'
sg7
I24
sg8
F-0.86930000782012939
sg9
I0
sg10
S''
sg11
S'1'
sg12
I1
sS'q'
F1
sg13
I0
sg14
(lp38
F8.2849998474121094
aF-1.7519999742507935
aF1.8459999561309814
asg16
S'N'
sg17
S'N2'
sg18
I0
sg19
F1.7999999523162842
sg20
S'NH2'
sS'b'
F0
sg21
I9
sg22
S''
sba(ichempy
Atom
(dp39
g6
S'ARG'
sg7
I0
sg8
F0.72140002250671387
sg9
I0
sg10
S''
sg11
S'1'
sg12
I1
sS'q'
F1
sg13
I0
sg14
(lp40
F2.5999999046325684
aF3.0099999904632568
aF0.014000000432133675
asg16
S'C'
sg17
S'C'
sg18
I0
sg19
F1.7999999523162842
sg20
S'C'
sS'b'
F0
sg21
I10
sg22
S''
sba(ichempy
Atom
(dp41
g6
S'ARG'
sg7
I25
sg8
F-0.60130000114440918
sg9
I0
sg10
S''
sg11
S'1'
sg12
I1
sS'q'
F1
sg13
I0
sg14
(lp42
F1.7740000486373901
aF3.4630000591278076
aF-0.77399998903274536
asg16
S'O'
sg17
S'O'
sg18
I0
sg19
F1.5
sg20
S'O'
sS'b'
F0
sg21
I11
sg22
S''
sba(ichempy
Atom
(dp43
g6
S'ARG'
sg7
I6
sg8
F0.44940000772476196
sg9
I0
sg10
S''
sg11
S'1'
sg12
I1
sS'q'
F1
sg13
I0
sg14
(lp44
F5.505000114440918
aF-3.0999999046325684
aF1.4029999971389771
asg16
S'H'
sg17
S'H'
sg18
I0
sg19
F1.1000000238418579
sg20
S'1HH1'
sS'b'
F0
sg21
I12
sg22
S''
sba(ichempy
Atom
(dp45
g6
S'ARG'
sg7
I7
sg8
F0.44940000772476196
sg9
I0
sg10
S''
sg11
S'1'
sg12
I1
sS'q'
F1
sg13
I0
sg14
(lp46
F8.6490001678466797
aF-0.80299997329711914
aF1.9490000009536743
asg16
S'H'
sg17
S'H'
sg18
I0
sg19
F1.1000000238418579
sg20
S'1HH2'
sS'b'
F0
sg21
I13
sg22
S''
sba(ichempy
Atom
(dp47
g6
S'ARG'
sg7
I8
sg8
F0.20829999446868896
sg9
I0
sg10
S''
sg11
S'1'
sg12
I1
sS'q'
F1
sg13
I0
sg14
(lp48
F0.48100000619888306
aF1.7220000028610229
aF2.255000114440918
asg16
S'H'
sg17
S'H'
sg18
I0
sg19
F1.1000000238418579
sg20
S'1HT'
sS'b'
F0
sg21
I14
sg22
S''
sba(ichempy
Atom
(dp49
g6
S'ARG'
sg7
I9
sg8
F0.022600000724196434
sg9
I0
sg10
S''
sg11
S'1'
sg12
I1
sS'q'
F1
sg13
I0
sg14
(lp50
F2.437999963760376
aF0.30700001120567322
aF0.3880000114440918
asg16
S'H'
sg17
S'HC'
sg18
I0
sg19
F1.1000000238418579
sg20
S'2HB'
sS'b'
F0
sg21
I15
sg22
S''
sba(ichempy
Atom
(dp51
g6
S'ARG'
sg7
I10
sg8
F0.052700001746416092
sg9
I0
sg10
S''
sg11
S'1'
sg12
I1
sS'q'
F1
sg13
I0
sg14
(lp52
F4.4899997711181641
aF-1.2050000429153442
aF0.49900001287460327
asg16
S'H'
sg17
S'H1'
sg18
I0
sg19
F1.1000000238418579
sg20
S'2HD'
sS'b'
F0
sg21
I16
sg22
S''
sba(ichempy
Atom
(dp53
g6
S'ARG'
sg7
I11
sg8
F0.030899999663233757
sg9
I0
sg10
S''
sg11
S'1'
sg12
I1
sS'q'
F1
sg13
I0
sg14
(lp54
F4.6040000915527344
aF1.2309999465942383
aF2.4159998893737793
asg16
S'H'
sg17
S'HC'
sg18
I0
sg19
F1.1000000238418579
sg20
S'2HG'
sS'b'
F0
sg21
I17
sg22
S''
sba(ichempy
Atom
(dp55
g6
S'ARG'
sg7
I12
sg8
F0.44940000772476196
sg9
I0
sg10
S''
sg11
S'1'
sg12
I1
sS'q'
F1
sg13
I0
sg14
(lp56
F7.1539998054504395
aF-3.871999979019165
aF1.5729999542236328
asg16
S'H'
sg17
S'H'
sg18
I0
sg19
F1.1000000238418579
sg20
S'2HH1'
sS'b'
F0
sg21
I18
sg22
S''
sba(ichempy
Atom
(dp57
g6
S'ARG'
sg7
I13
sg8
F0.44940000772476196
sg9
I0
sg10
S''
sg11
S'1'
sg12
I1
sS'q'
F1
sg13
I0
sg14
(lp58
F8.8369998931884766
aF-2.6119999885559082
aF1.8680000305175781
asg16
S'H'
sg17
S'H'
sg18
I0
sg19
F1.1000000238418579
sg20
S'2HH2'
sS'b'
F0
sg21
I19
sg22
S''
sba(ichempy
Atom
(dp59
g6
S'ARG'
sg7
I14
sg8
F0.20829999446868896
sg9
I0
sg10
S''
sg11
S'1'
sg12
I1
sS'q'
F1
sg13
I0
sg14
(lp60
F0.34900000691413879
aF3.1740000247955322
aF1.4170000553131104
asg16
S'H'
sg17
S'H'
sg18
I0
sg19
F1.1000000238418579
sg20
S'2HT'
sS'b'
F0
sg21
I20
sg22
S''
sba(ichempy
Atom
(dp61
g6
S'ARG'
sg7
I15
sg8
F0.022600000724196434
sg9
I0
sg10
S''
sg11
S'1'
sg12
I1
sS'q'
F1
sg13
I0
sg14
(lp62
F2.2769999504089355
aF0.27599999308586121
aF2.1319999694824219
asg16
S'H'
sg17
S'HC'
sg18
I0
sg19
F1.1000000238418579
sg20
S'3HB'
sS'b'
F0
sg21
I21
sg22
S''
sba(ichempy
Atom
(dp63
g6
S'ARG'
sg7
I16
sg8
F0.052700001746416092
sg9
I0
sg10
S''
sg11
S'1'
sg12
I1
sS'q'
F1
sg13
I0
sg14
(lp64
F4.2690000534057617
aF-1.2960000038146973
aF2.2639999389648438
asg16
S'H'
sg17
S'H1'
sg18
I0
sg19
F1.1000000238418579
sg20
S'3HD'
sS'b'
F0
sg21
I22
sg22
S''
sba(ichempy
Atom
(dp65
g6
S'ARG'
sg7
I17
sg8
F0.030899999663233757
sg9
I0
sg10
S''
sg11
S'1'
sg12
I1
sS'q'
F1
sg13
I0
sg14
(lp66
F4.8119997978210449
aF1.2920000553131104
aF0.66200000047683716
asg16
S'H'
sg17
S'HC'
sg18
I0
sg19
F1.1000000238418579
sg20
S'3HG'
sS'b'
F0
sg21
I23
sg22
S''
sba(ichempy
Atom
(dp67
g6
S'ARG'
sg7
I18
sg8
F0.20829999446868896
sg9
I0
sg10
S''
sg11
S'1'
sg12
I1
sS'q'
F1
sg13
I0
sg14
(lp68
F0.34799998998641968
aF1.715999960899353
aF0.57800000905990601
asg16
S'H'
sg17
S'H'
sg18
I0
sg19
F1.1000000238418579
sg20
S'3HT'
sS'b'
F0
sg21
I24
sg22
S''
sba(ichempy
Atom
(dp69
g6
S'ARG'
sg7
I19
sg8
F0.1242000013589859
sg9
I0
sg10
S''
sg11
S'1'
sg12
I1
sS'q'
F1
sg13
I0
sg14
(lp70
F2.5750000476837158
aF2.8640000820159912
aF2.1340000629425049
asg16
S'H'
sg17
S'HP'
sg18
I0
sg19
F1.1000000238418579
sg20
S'HA'
sS'b'
F0
sg21
I25
sg22
S''
sba(ichempy
Atom
(dp71
g6
S'ARG'
sg7
I20
sg8
F0.35920000076293945
sg9
I0
sg10
S''
sg11
S'1'
sg12
I1
sS'q'
F1
sg13
I0
sg14
(lp72
F6.8060002326965332
aF0.093999996781349182
aF1.7610000371932983
asg16
S'H'
sg17
S'H'
sg18
I0
sg19
F1.1000000238418579
sg20
S'HE'
sS'b'
F0
sg21
I26
sg22
S''
sbasS'molecule'
p73
(ichempy
Molecule
(dp74
bsg21
NsS'bond'
p75
(lp76
(ichempy
Bond
(dp77
S'order'
p78
I1
sg21
(lp79
I0
aI1
asba(ichempy
Bond
(dp80
g78
I1
sg21
(lp81
I0
aI13
asba(ichempy
Bond
(dp82
g78
I1
sg21
(lp83
I0
aI19
asba(ichempy
Bond
(dp84
g78
I1
sg21
(lp85
I0
aI23
asba(ichempy
Bond
(dp86
g78
I1
sg21
(lp87
I1
aI2
asba(ichempy
Bond
(dp88
g78
I1
sg21
(lp89
I1
aI9
asba(ichempy
Bond
(dp90
g78
I1
sg21
(lp91
I1
aI24
asba(ichempy
Bond
(dp92
g78
I1
sg21
(lp93
I3
aI2
asba(ichempy
Bond
(dp94
g78
I1
sg21
(lp95
I4
aI3
asba(ichempy
Bond
(dp96
g78
I1
sg21
(lp97
I5
aI4
asba(ichempy
Bond
(dp98
g78
I1
sg21
(lp99
I6
aI5
asba(ichempy
Bond
(dp100
g78
I2
sg21
(lp101
I7
aI6
asba(ichempy
Bond
(dp102
g78
I1
sg21
(lp103
I8
aI6
asba(ichempy
Bond
(dp104
g78
I2
sg21
(lp105
I9
aI10
asba(ichempy
Bond
(dp106
g78
I1
sg21
(lp107
I11
aI7
asba(ichempy
Bond
(dp108
g78
I1
sg21
(lp109
I12
aI8
asba(ichempy
Bond
(dp110
g78
I1
sg21
(lp111
I14
aI2
asba(ichempy
Bond
(dp112
g78
I1
sg21
(lp113
I15
aI4
asba(ichempy
Bond
(dp114
g78
I1
sg21
(lp115
I16
aI3
asba(ichempy
Bond
(dp116
g78
I1
sg21
(lp117
I17
aI7
asba(ichempy
Bond
(dp118
g78
I1
sg21
(lp119
I18
aI8
asba(ichempy
Bond
(dp120
g78
I1
sg21
(lp121
I20
aI2
asba(ichempy
Bond
(dp122
g78
I1
sg21
(lp123
I21
aI4
asba(ichempy
Bond
(dp124
g78
I1
sg21
(lp125
I22
aI3
asba(ichempy
Bond
(dp126
g78
I1
sg21
(lp127
I25
aI5
asbasb.