(ichempy.models
Indexed
p1
(dp2
S'atom'
p3
(lp4
(ichempy
Atom
(dp5
S'resn'
p6
S'CYS'
sS'id'
p7
I10
sS'partial_charge'
p8
F0.13249999284744263
sS'formal_charge'
p9
I0
sS'segi'
p10
S''
sS'resi'
p11
S'1'
sS'resi_number'
p12
I1
sS'q'
F1
sS'hetatm'
p13
I0
sS'coord'
p14
(lp15
F0.10199999809265137
aF-0.14300000667572021
aF0
asS'symbol'
p16
S'N'
sS'text_type'
p17
S'N3'
sS'flags'
p18
I0
sS'vdw'
p19
F1.7999999523162842
sS'name'
p20
S'N'
sS'b'
F0
sS'index'
p21
I1
sS'chain'
p22
S''
sba(ichempy
Atom
(dp23
g6
S'CYS'
sg7
I1
sg8
F0.092699997127056122
sg9
I0
sg10
S''
sg11
S'1'
sg12
I1
sS'q'
F1
sg13
I0
sg14
(lp24
F1.5579999685287476
aF-0.028999999165534973
aF0
asg16
S'C'
sg17
S'CT'
sg18
I0
sg19
F1.7999999523162842
sg20
S'CA'
sS'b'
F0
sg21
I2
sg22
S''
sba(ichempy
Atom
(dp25
g6
S'CYS'
sg7
I2
sg8
F-0.11949999630451202
sg9
I0
sg10
S''
sg11
S'1'
sg12
I1
sS'q'
F1
sg13
I0
sg14
(lp26
F2.1110000610351562
aF-0.80699998140335083
aF-1.2100000381469727
asg16
S'C'
sg17
S'CT'
sg18
I0
sg19
F1.7999999523162842
sg20
S'CB'
sS'b'
F0
sg21
I3
sg22
S''
sba(ichempy
Atom
(dp27
g6
S'CYS'
sg7
I12
sg8
F-0.32980000972747803
sg9
I0
sg10
S''
sg11
S'1'
sg12
I1
sS'q'
F1
sg13
I0
sg14
(lp28
F3.9159998893737793
aF-0.85600000619888306
aF-1.1679999828338623
asg16
S'S'
sg17
S'SH'
sg18
I0
sg19
F1.8999999761581421
sg20
S'SG'
sS'b'
F0
sg21
I4
sg22
S''
sba(ichempy
Atom
(dp29
g6
S'CYS'
sg7
I0
sg8
F0.61229997873306274
sg9
I0
sg10
S''
sg11
S'1'
sg12
I1
sS'q'
F1
sg13
I0
sg14
(lp30
F1.9859999418258667
aF1.4190000295639038
aF0
asg16
S'C'
sg17
S'C'
sg18
I0
sg19
F1.7999999523162842
sg20
S'C'
sS'b'
F0
sg21
I5
sg22
S''
sba(ichempy
Atom
(dp31
g6
S'CYS'
sg7
I11
sg8
F-0.57130002975463867
sg9
I0
sg10
S''
sg11
S'1'
sg12
I1
sS'q'
F1
sg13
I0
sg14
(lp32
F1.1649999618530273
aF2.3480000495910645
aF0
asg16
S'O'
sg17
S'O'
sg18
I0
sg19
F1.5
sg20
S'O'
sS'b'
F0
sg21
I6
sg22
S''
sba(ichempy
Atom
(dp33
g6
S'CYS'
sg7
I3
sg8
F0.20229999721050262
sg9
I0
sg10
S''
sg11
S'1'
sg12
I1
sS'q'
F1
sg13
I0
sg14
(lp34
F-0.164000004529953
aF-1.1380000114440918
aF0
asg16
S'H'
sg17
S'H'
sg18
I0
sg19
F1.1000000238418579
sg20
S'1HT'
sS'b'
F0
sg21
I7
sg22
S''
sba(ichempy
Atom
(dp35
g6
S'CYS'
sg7
I4
sg8
F0.11879999935626984
sg9
I0
sg10
S''
sg11
S'1'
sg12
I1
sS'q'
F1
sg13
I0
sg14
(lp36
F1.7779999971389771
aF-0.35699999332427979
aF-2.1679999828338623
asg16
S'H'
sg17
S'H1'
sg18
I0
sg19
F1.1000000238418579
sg20
S'2HB'
sS'b'
F0
sg21
I8
sg22
S''
sba(ichempy
Atom
(dp37
g6
S'CYS'
sg7
I5
sg8
F0.20229999721050262
sg9
I0
sg10
S''
sg11
S'1'
sg12
I1
sS'q'
F1
sg13
I0
sg14
(lp38
F-0.27900001406669617
aF0.31400001049041748
aF0.8410000205039978
asg16
S'H'
sg17
S'H'
sg18
I0
sg19
F1.1000000238418579
sg20
S'2HT'
sS'b'
F0
sg21
I9
sg22
S''
sba(ichempy
Atom
(dp39
g6
S'CYS'
sg7
I6
sg8
F0.11879999935626984
sg9
I0
sg10
S''
sg11
S'1'
sg12
I1
sS'q'
F1
sg13
I0
sg14
(lp40
F1.7430000305175781
aF-1.8489999771118164
aF-1.218000054359436
asg16
S'H'
sg17
S'H1'
sg18
I0
sg19
F1.1000000238418579
sg20
S'3HB'
sS'b'
F0
sg21
I10
sg22
S''
sba(ichempy
Atom
(dp41
g6
S'CYS'
sg7
I7
sg8
F0.20229999721050262
sg9
I0
sg10
S''
sg11
S'1'
sg12
I1
sS'q'
F1
sg13
I0
sg14
(lp42
F-0.27900001406669617
aF0.31400001049041748
aF-0.8410000205039978
asg16
S'H'
sg17
S'H'
sg18
I0
sg19
F1.1000000238418579
sg20
S'3HT'
sS'b'
F0
sg21
I11
sg22
S''
sba(ichempy
Atom
(dp43
g6
S'CYS'
sg7
I8
sg8
F0.14110000431537628
sg9
I0
sg10
S''
sg11
S'1'
sg12
I1
sS'q'
F1
sg13
I0
sg14
(lp44
F1.9420000314712524
aF-0.48500001430511475
aF0.9309999942779541
asg16
S'H'
sg17
S'HP'
sg18
I0
sg19
F1.1000000238418579
sg20
S'HA'
sS'b'
F0
sg21
I12
sg22
S''
sba(ichempy
Atom
(dp45
g6
S'CYS'
sg7
I9
sg8
F0.19750000536441803
sg9
I0
sg10
S''
sg11
S'1'
sg12
I1
sS'q'
F1
sg13
I0
sg14
(lp46
F4.1230001449584961
aF0.035999998450279236
aF-2.1340000629425049
asg16
S'H'
sg17
S'HS'
sg18
I0
sg19
F1.1000000238418579
sg20
S'HG'
sS'b'
F0
sg21
I13
sg22
S''
sbasS'molecule'
p47
(ichempy
Molecule
(dp48
bsg21
NsS'bond'
p49
(lp50
(ichempy
Bond
(dp51
S'order'
p52
I1
sg21
(lp53
I0
aI1
asba(ichempy
Bond
(dp54
g52
I1
sg21
(lp55
I0
aI6
asba(ichempy
Bond
(dp56
g52
I1
sg21
(lp57
I0
aI8
asba(ichempy
Bond
(dp58
g52
I1
sg21
(lp59
I0
aI10
asba(ichempy
Bond
(dp60
g52
I1
sg21
(lp61
I1
aI2
asba(ichempy
Bond
(dp62
g52
I1
sg21
(lp63
I1
aI4
asba(ichempy
Bond
(dp64
g52
I1
sg21
(lp65
I1
aI11
asba(ichempy
Bond
(dp66
g52
I1
sg21
(lp67
I3
aI2
asba(ichempy
Bond
(dp68
g52
I2
sg21
(lp69
I4
aI5
asba(ichempy
Bond
(dp70
g52
I1
sg21
(lp71
I7
aI2
asba(ichempy
Bond
(dp72
g52
I1
sg21
(lp73
I9
aI2
asba(ichempy
Bond
(dp74
g52
I1
sg21
(lp75
I12
aI3
asbasb.