(ichempy.models
Indexed
p1
(dp2
S'atom'
p3
(lp4
(ichempy
Atom
(dp5
S'resn'
p6
S'HIE'
sS'id'
p7
I15
sS'partial_charge'
p8
F0.14720000326633453
sS'formal_charge'
p9
I0
sS'segi'
p10
S''
sS'resi'
p11
S'1'
sS'resi_number'
p12
I1
sS'q'
F1
sS'hetatm'
p13
I0
sS'coord'
p14
(lp15
F-2.1800000667572021
aF0.74900001287460327
aF9.1999998092651367
asS'symbol'
p16
S'N'
sS'text_type'
p17
S'N3'
sS'flags'
p18
I0
sS'vdw'
p19
F1.7999999523162842
sS'name'
p20
S'N'
sS'b'
F0
sS'index'
p21
I1
sS'chain'
p22
S''
sba(ichempy
Atom
(dp23
g6
S'HIE'
sg7
I1
sg8
F0.023600000888109207
sg9
I0
sg10
S''
sg11
S'1'
sg12
I1
sS'q'
F1
sg13
I0
sg14
(lp24
F-0.72500002384185791
aF0.87099999189376831
aF9.2049999237060547
asg16
S'C'
sg17
S'CT'
sg18
I0
sg19
F1.7999999523162842
sg20
S'CA'
sS'b'
F0
sg21
I2
sg22
S''
sba(ichempy
Atom
(dp25
g6
S'HIE'
sg7
I2
sg8
F0.048900000751018524
sg9
I0
sg10
S''
sg11
S'1'
sg12
I1
sS'q'
F1
sg13
I0
sg14
(lp26
F-0.25299999117851257
aF0.47400000691413879
aF7.7969999313354492
asg16
S'C'
sg17
S'CT'
sg18
I0
sg19
F1.7999999523162842
sg20
S'CB'
sS'b'
F0
sg21
I3
sg22
S''
sba(ichempy
Atom
(dp27
g6
S'HIE'
sg7
I5
sg8
F0.17399999499320984
sg9
I0
sg10
S''
sg11
S'1'
sg12
I1
sS'q'
F1
sg13
I0
sg14
(lp28
F0.66100001335144043
aF-0.7160000205039978
aF7.8169999122619629
asg16
S'C'
sg17
S'CC'
sg18
I0
sg19
F1.7999999523162842
sg20
S'CG'
sS'b'
F0
sg21
I4
sg22
S''
sba(ichempy
Atom
(dp29
g6
S'HIE'
sg7
I3
sg8
F-0.23489999771118164
sg9
I0
sg10
S''
sg11
S'1'
sg12
I1
sS'q'
F1
sg13
I0
sg14
(lp30
F0.19799999892711639
aF-2.0199999809265137
aF7.7059998512268066
asg16
S'C'
sg17
S'CW'
sg18
I0
sg19
F1.7999999523162842
sg20
S'CD2'
sS'b'
F0
sg21
I5
sg22
S''
sba(ichempy
Atom
(dp31
g6
S'HIE'
sg7
I16
sg8
F-0.55790001153945923
sg9
I0
sg10
S''
sg11
S'1'
sg12
I1
sS'q'
F1
sg13
I0
sg14
(lp32
F2.0480000972747803
aF-0.67599999904632568
aF7.9439997673034668
asg16
S'N'
sg17
S'NB'
sg18
I0
sg19
F1.7999999523162842
sg20
S'ND1'
sS'b'
F0
sg21
I6
sg22
S''
sba(ichempy
Atom
(dp33
g6
S'HIE'
sg7
I4
sg8
F0.18039999902248383
sg9
I0
sg10
S''
sg11
S'1'
sg12
I1
sS'q'
F1
sg13
I0
sg14
(lp34
F2.3199999332427979
aF-1.9950000047683716
aF7.9039998054504395
asg16
S'C'
sg17
S'CR'
sg18
I0
sg19
F1.7999999523162842
sg20
S'CE1'
sS'b'
F0
sg21
I7
sg22
S''
sba(ichempy
Atom
(dp35
g6
S'HIE'
sg7
I17
sg8
F-0.27810001373291016
sg9
I0
sg10
S''
sg11
S'1'
sg12
I1
sS'q'
F1
sg13
I0
sg14
(lp36
F1.2799999713897705
aF-2.8599998950958252
aF7.7610001564025879
asg16
S'N'
sg17
S'NA'
sg18
I0
sg19
F1.7999999523162842
sg20
S'NE2'
sS'b'
F0
sg21
I8
sg22
S''
sba(ichempy
Atom
(dp37
g6
S'HIE'
sg7
I0
sg8
F0.61229997873306274
sg9
I0
sg10
S''
sg11
S'1'
sg12
I1
sS'q'
F1
sg13
I0
sg14
(lp38
F-0.30199998617172241
aF2.2860000133514404
aF9.5220003128051758
asg16
S'C'
sg17
S'C'
sg18
I0
sg19
F1.7999999523162842
sg20
S'C'
sS'b'
F0
sg21
I9
sg22
S''
sba(ichempy
Atom
(dp39
g6
S'HIE'
sg7
I18
sg8
F-0.57130002975463867
sg9
I0
sg10
S''
sg11
S'1'
sg12
I1
sS'q'
F1
sg13
I0
sg14
(lp40
F-1.128000020980835
aF3.184999942779541
aF9.7399997711181641
asg16
S'O'
sg17
S'O'
sg18
I0
sg19
F1.5
sg20
S'O'
sS'b'
F0
sg21
I10
sg22
S''
sba(ichempy
Atom
(dp41
g6
S'HIE'
sg7
I6
sg8
F0.13969999551773071
sg9
I0
sg10
S''
sg11
S'1'
sg12
I1
sS'q'
F1
sg13
I0
sg14
(lp42
F3.3570001125335693
aF-2.2950000762939453
aF7.9850001335144043
asg16
S'H'
sg17
S'H5'
sg18
I0
sg19
F1.1000000238418579
sg20
S'1HE'
sS'b'
F0
sg21
I11
sg22
S''
sba(ichempy
Atom
(dp43
g6
S'HIE'
sg7
I7
sg8
F0.20160000026226044
sg9
I0
sg10
S''
sg11
S'1'
sg12
I1
sS'q'
F1
sg13
I0
sg14
(lp44
F-2.4430000782012939
aF-0.22300000488758087
aF8.9820003509521484
asg16
S'H'
sg17
S'H'
sg18
I0
sg19
F1.1000000238418579
sg20
S'1HT'
sS'b'
F0
sg21
I12
sg22
S''
sba(ichempy
Atom
(dp45
g6
S'HIE'
sg7
I8
sg8
F0.022299999371170998
sg9
I0
sg10
S''
sg11
S'1'
sg12
I1
sS'q'
F1
sg13
I0
sg14
(lp46
F0.28499999642372131
aF1.3079999685287476
aF7.3039999008178711
asg16
S'H'
sg17
S'HC'
sg18
I0
sg19
F1.1000000238418579
sg20
S'2HB'
sS'b'
F0
sg21
I13
sg22
S''
sba(ichempy
Atom
(dp47
g6
S'HIE'
sg7
I9
sg8
F0.19629999995231628
sg9
I0
sg10
S''
sg11
S'1'
sg12
I1
sS'q'
F1
sg13
I0
sg14
(lp48
F-0.84700000286102295
aF-2.2950000762939453
aF7.5949997901916504
asg16
S'H'
sg17
S'H4'
sg18
I0
sg19
F1.1000000238418579
sg20
S'2HD'
sS'b'
F0
sg21
I14
sg22
S''
sba(ichempy
Atom
(dp49
g6
S'HIE'
sg7
I10
sg8
F0.33239999413490295
sg9
I0
sg10
S''
sg11
S'1'
sg12
I1
sS'q'
F1
sg13
I0
sg14
(lp50
F1.2929999828338623
aF-3.8889999389648438
aF7.7100000381469727
asg16
S'H'
sg17
S'H'
sg18
I0
sg19
F1.1000000238418579
sg20
S'2HE'
sS'b'
F0
sg21
I15
sg22
S''
sba(ichempy
Atom
(dp51
g6
S'HIE'
sg7
I11
sg8
F0.20160000026226044
sg9
I0
sg10
S''
sg11
S'1'
sg12
I1
sS'q'
F1
sg13
I0
sg14
(lp52
F-2.5499999523162842
aF1.0039999485015869
aF10.126999855041504
asg16
S'H'
sg17
S'H'
sg18
I0
sg19
F1.1000000238418579
sg20
S'2HT'
sS'b'
F0
sg21
I16
sg22
S''
sba(ichempy
Atom
(dp53
g6
S'HIE'
sg7
I12
sg8
F0.022299999371170998
sg9
I0
sg10
S''
sg11
S'1'
sg12
I1
sS'q'
F1
sg13
I0
sg14
(lp54
F-1.1019999980926514
aF0.23299999535083771
aF7.1230001449584961
asg16
S'H'
sg17
S'HC'
sg18
I0
sg19
F1.1000000238418579
sg20
S'3HB'
sS'b'
F0
sg21
I17
sg22
S''
sba(ichempy
Atom
(dp55
g6
S'HIE'
sg7
I13
sg8
F0.20160000026226044
sg9
I0
sg10
S''
sg11
S'1'
sg12
I1
sS'q'
F1
sg13
I0
sg14
(lp56
F-2.5759999752044678
aF1.3789999485015869
aF8.4879999160766602
asg16
S'H'
sg17
S'H'
sg18
I0
sg19
F1.1000000238418579
sg20
S'3HT'
sS'b'
F0
sg21
I18
sg22
S''
sba(ichempy
Atom
(dp57
g6
S'HIE'
sg7
I14
sg8
F0.1379999965429306
sg9
I0
sg10
S''
sg11
S'1'
sg12
I1
sS'q'
F1
sg13
I0
sg14
(lp58
F-0.33899998664855957
aF0.2370000034570694
aF10.019000053405762
asg16
S'H'
sg17
S'HP'
sg18
I0
sg19
F1.1000000238418579
sg20
S'HA'
sS'b'
F0
sg21
I19
sg22
S''
sbasS'molecule'
p59
(ichempy
Molecule
(dp60
bsg21
NsS'bond'
p61
(lp62
(ichempy
Bond
(dp63
S'order'
p64
I1
sg21
(lp65
I0
aI1
asba(ichempy
Bond
(dp66
g64
I1
sg21
(lp67
I0
aI11
asba(ichempy
Bond
(dp68
g64
I1
sg21
(lp69
I0
aI15
asba(ichempy
Bond
(dp70
g64
I1
sg21
(lp71
I0
aI17
asba(ichempy
Bond
(dp72
g64
I1
sg21
(lp73
I1
aI2
asba(ichempy
Bond
(dp74
g64
I1
sg21
(lp75
I1
aI8
asba(ichempy
Bond
(dp76
g64
I1
sg21
(lp77
I1
aI18
asba(ichempy
Bond
(dp78
g64
I1
sg21
(lp79
I3
aI2
asba(ichempy
Bond
(dp80
g64
I2
sg21
(lp81
I3
aI4
asba(ichempy
Bond
(dp82
g64
I1
sg21
(lp83
I4
aI7
asba(ichempy
Bond
(dp84
g64
I1
sg21
(lp85
I5
aI3
asba(ichempy
Bond
(dp86
g64
I2
sg21
(lp87
I6
aI5
asba(ichempy
Bond
(dp88
g64
I1
sg21
(lp89
I7
aI6
asba(ichempy
Bond
(dp90
g64
I2
sg21
(lp91
I8
aI9
asba(ichempy
Bond
(dp92
g64
I1
sg21
(lp93
I10
aI6
asba(ichempy
Bond
(dp94
g64
I1
sg21
(lp95
I12
aI2
asba(ichempy
Bond
(dp96
g64
I1
sg21
(lp97
I13
aI4
asba(ichempy
Bond
(dp98
g64
I1
sg21
(lp99
I14
aI7
asba(ichempy
Bond
(dp100
g64
I1
sg21
(lp101
I16
aI2
asbasb.