(ichempy.models
Indexed
p1
(dp2
S'atom'
p3
(lp4
(ichempy
Atom
(dp5
S'resn'
p6
S'HID'
sS'id'
p7
I15
sS'partial_charge'
p8
F0.1542000025510788
sS'formal_charge'
p9
I0
sS'segi'
p10
S''
sS'resi'
p11
S'1'
sS'resi_number'
p12
I1
sS'q'
F1
sS'hetatm'
p13
I0
sS'coord'
p14
(lp15
F-2.2160000801086426
aF0.9179999828338623
aF8.9149999618530273
asS'symbol'
p16
S'N'
sS'text_type'
p17
S'N3'
sS'flags'
p18
I0
sS'vdw'
p19
F1.7999999523162842
sS'name'
p20
S'N'
sS'b'
F0
sS'index'
p21
I1
sS'chain'
p22
S''
sba(ichempy
Atom
(dp23
g6
S'HID'
sg7
I1
sg8
F0.096400000154972076
sg9
I0
sg10
S''
sg11
S'1'
sg12
I1
sS'q'
F1
sg13
I0
sg14
(lp24
F-0.7630000114440918
aF0.97600001096725464
aF8.7829999923706055
asg16
S'C'
sg17
S'CT'
sg18
I0
sg19
F1.7999999523162842
sg20
S'CA'
sS'b'
F0
sg21
I2
sg22
S''
sba(ichempy
Atom
(dp25
g6
S'HID'
sg7
I2
sg8
F0.025900000706315041
sg9
I0
sg10
S''
sg11
S'1'
sg12
I1
sS'q'
F1
sg13
I0
sg14
(lp26
F-0.29899999499320984
aF0.1550000011920929
aF7.5390000343322754
asg16
S'C'
sg17
S'CT'
sg18
I0
sg19
F1.7999999523162842
sg20
S'CB'
sS'b'
F0
sg21
I3
sg22
S''
sba(ichempy
Atom
(dp27
g6
S'HID'
sg7
I5
sg8
F-0.039900001138448715
sg9
I0
sg10
S''
sg11
S'1'
sg12
I1
sS'q'
F1
sg13
I0
sg14
(lp28
F0.69599997997283936
aF-0.97399997711181641
aF7.8020000457763672
asg16
S'C'
sg17
S'CC'
sg18
I0
sg19
F1.7999999523162842
sg20
S'CG'
sS'b'
F0
sg21
I4
sg22
S''
sba(ichempy
Atom
(dp29
g6
S'HID'
sg7
I3
sg8
F0.10459999740123749
sg9
I0
sg10
S''
sg11
S'1'
sg12
I1
sS'q'
F1
sg13
I0
sg14
(lp30
F0.33199998736381531
aF-2.2950000762939453
aF8.1049995422363281
asg16
S'C'
sg17
S'CV'
sg18
I0
sg19
F1.7999999523162842
sg20
S'CD2'
sS'b'
F0
sg21
I5
sg22
S''
sba(ichempy
Atom
(dp31
g6
S'HID'
sg7
I16
sg8
F-0.38190001249313354
sg9
I0
sg10
S''
sg11
S'1'
sg12
I1
sS'q'
F1
sg13
I0
sg14
(lp32
F2.0720000267028809
aF-0.86799997091293335
aF7.7969999313354492
asg16
S'N'
sg17
S'NA'
sg18
I0
sg19
F1.7999999523162842
sg20
S'ND1'
sS'b'
F0
sg21
I6
sg22
S''
sba(ichempy
Atom
(dp33
g6
S'HID'
sg7
I4
sg8
F0.21269999444484711
sg9
I0
sg10
S''
sg11
S'1'
sg12
I1
sS'q'
F1
sg13
I0
sg14
(lp34
F2.4260001182556152
aF-2.1449999809265137
aF8.1120004653930664
asg16
S'C'
sg17
S'CR'
sg18
I0
sg19
F1.7999999523162842
sg20
S'CE1'
sS'b'
F0
sg21
I7
sg22
S''
sba(ichempy
Atom
(dp35
g6
S'HID'
sg7
I17
sg8
F-0.57109999656677246
sg9
I0
sg10
S''
sg11
S'1'
sg12
I1
sS'q'
F1
sg13
I0
sg14
(lp36
F1.4520000219345093
aF-3.0889999866485596
aF8.314000129699707
asg16
S'N'
sg17
S'NB'
sg18
I0
sg19
F1.7999999523162842
sg20
S'NE2'
sS'b'
F0
sg21
I8
sg22
S''
sba(ichempy
Atom
(dp37
g6
S'HID'
sg7
I0
sg8
F0.61229997873306274
sg9
I0
sg10
S''
sg11
S'1'
sg12
I1
sS'q'
F1
sg13
I0
sg14
(lp38
F-0.28200000524520874
aF2.4059998989105225
aF8.7290000915527344
asg16
S'C'
sg17
S'C'
sg18
I0
sg19
F1.7999999523162842
sg20
S'C'
sS'b'
F0
sg21
I9
sg22
S''
sba(ichempy
Atom
(dp39
g6
S'HID'
sg7
I18
sg8
F-0.57130002975463867
sg9
I0
sg10
S''
sg11
S'1'
sg12
I1
sS'q'
F1
sg13
I0
sg14
(lp40
F-1.0709999799728394
aF3.374000072479248
aF8.7939996719360352
asg16
S'O'
sg17
S'O'
sg18
I0
sg19
F1.5
sg20
S'O'
sS'b'
F0
sg21
I10
sg22
S''
sba(ichempy
Atom
(dp41
g6
S'HID'
sg7
I6
sg8
F0.36320000886917114
sg9
I0
sg10
S''
sg11
S'1'
sg12
I1
sS'q'
F1
sg13
I0
sg14
(lp42
F2.6610000133514404
aF-0.039999999105930328
aF7.6550002098083496
asg16
S'H'
sg17
S'H'
sg18
I0
sg19
F1.1000000238418579
sg20
S'1HD'
sS'b'
F0
sg21
I11
sg22
S''
sba(ichempy
Atom
(dp43
g6
S'HID'
sg7
I7
sg8
F0.13850000500679016
sg9
I0
sg10
S''
sg11
S'1'
sg12
I1
sS'q'
F1
sg13
I0
sg14
(lp44
F3.4690001010894775
aF-2.4119999408721924
aF8.2150001525878906
asg16
S'H'
sg17
S'H5'
sg18
I0
sg19
F1.1000000238418579
sg20
S'1HE'
sS'b'
F0
sg21
I12
sg22
S''
sba(ichempy
Atom
(dp45
g6
S'HID'
sg7
I8
sg8
F0.19629999995231628
sg9
I0
sg10
S''
sg11
S'1'
sg12
I1
sS'q'
F1
sg13
I0
sg14
(lp46
F-2.5190000534057617
aF-0.065999999642372131
aF8.9499998092651367
asg16
S'H'
sg17
S'H'
sg18
I0
sg19
F1.1000000238418579
sg20
S'1HT'
sS'b'
F0
sg21
I13
sg22
S''
sba(ichempy
Atom
(dp47
g6
S'HID'
sg7
I9
sg8
F0.020899999886751175
sg9
I0
sg10
S''
sg11
S'1'
sg12
I1
sS'q'
F1
sg13
I0
sg14
(lp48
F0.15099999308586121
aF0.82200002670288086
aF6.7769999504089355
asg16
S'H'
sg17
S'HC'
sg18
I0
sg19
F1.1000000238418579
sg20
S'2HB'
sS'b'
F0
sg21
I14
sg22
S''
sba(ichempy
Atom
(dp49
g6
S'HID'
sg7
I10
sg8
F0.12989999353885651
sg9
I0
sg10
S''
sg11
S'1'
sg12
I1
sS'q'
F1
sg13
I0
sg14
(lp50
F-0.68800002336502075
aF-2.6480000019073486
aF8.1739997863769531
asg16
S'H'
sg17
S'H4'
sg18
I0
sg19
F1.1000000238418579
sg20
S'2HD'
sS'b'
F0
sg21
I15
sg22
S''
sba(ichempy
Atom
(dp51
g6
S'HID'
sg7
I11
sg8
F0.19629999995231628
sg9
I0
sg10
S''
sg11
S'1'
sg12
I1
sS'q'
F1
sg13
I0
sg14
(lp52
F-2.502000093460083
aF1.3949999809265137
aF9.7819995880126953
asg16
S'H'
sg17
S'H'
sg18
I0
sg19
F1.1000000238418579
sg20
S'2HT'
sS'b'
F0
sg21
I16
sg22
S''
sba(ichempy
Atom
(dp53
g6
S'HID'
sg7
I12
sg8
F0.020899999886751175
sg9
I0
sg10
S''
sg11
S'1'
sg12
I1
sS'q'
F1
sg13
I0
sg14
(lp54
F-1.1629999876022339
aF-0.27399998903274536
aF6.9939999580383301
asg16
S'H'
sg17
S'HC'
sg18
I0
sg19
F1.1000000238418579
sg20
S'3HB'
sS'b'
F0
sg21
I17
sg22
S''
sba(ichempy
Atom
(dp55
g6
S'HID'
sg7
I13
sg8
F0.19629999995231628
sg9
I0
sg10
S''
sg11
S'1'
sg12
I1
sS'q'
F1
sg13
I0
sg14
(lp56
F-2.6540000438690186
aF1.3830000162124634
aF8.1079998016357422
asg16
S'H'
sg17
S'H'
sg18
I0
sg19
F1.1000000238418579
sg20
S'3HT'
sS'b'
F0
sg21
I18
sg22
S''
sba(ichempy
Atom
(dp57
g6
S'HID'
sg7
I14
sg8
F0.095799997448921204
sg9
I0
sg10
S''
sg11
S'1'
sg12
I1
sS'q'
F1
sg13
I0
sg14
(lp58
F-0.34999999403953552
aF0.57499998807907104
aF9.7239999771118164
asg16
S'H'
sg17
S'HP'
sg18
I0
sg19
F1.1000000238418579
sg20
S'HA'
sS'b'
F0
sg21
I19
sg22
S''
sbasS'molecule'
p59
(ichempy
Molecule
(dp60
bsg21
NsS'bond'
p61
(lp62
(ichempy
Bond
(dp63
S'order'
p64
I1
sg21
(lp65
I0
aI1
asba(ichempy
Bond
(dp66
g64
I1
sg21
(lp67
I0
aI12
asba(ichempy
Bond
(dp68
g64
I1
sg21
(lp69
I0
aI15
asba(ichempy
Bond
(dp70
g64
I1
sg21
(lp71
I0
aI17
asba(ichempy
Bond
(dp72
g64
I1
sg21
(lp73
I1
aI2
asba(ichempy
Bond
(dp74
g64
I1
sg21
(lp75
I1
aI8
asba(ichempy
Bond
(dp76
g64
I1
sg21
(lp77
I1
aI18
asba(ichempy
Bond
(dp78
g64
I1
sg21
(lp79
I3
aI2
asba(ichempy
Bond
(dp80
g64
I2
sg21
(lp81
I3
aI4
asba(ichempy
Bond
(dp82
g64
I1
sg21
(lp83
I4
aI7
asba(ichempy
Bond
(dp84
g64
I1
sg21
(lp85
I5
aI3
asba(ichempy
Bond
(dp86
g64
I1
sg21
(lp87
I6
aI5
asba(ichempy
Bond
(dp88
g64
I2
sg21
(lp89
I7
aI6
asba(ichempy
Bond
(dp90
g64
I2
sg21
(lp91
I8
aI9
asba(ichempy
Bond
(dp92
g64
I1
sg21
(lp93
I10
aI5
asba(ichempy
Bond
(dp94
g64
I1
sg21
(lp95
I11
aI6
asba(ichempy
Bond
(dp96
g64
I1
sg21
(lp97
I13
aI2
asba(ichempy
Bond
(dp98
g64
I1
sg21
(lp99
I14
aI4
asba(ichempy
Bond
(dp100
g64
I1
sg21
(lp101
I16
aI2
asbasb.