(ichempy.models
Indexed
p1
(dp2
S'atom'
p3
(lp4
(ichempy
Atom
(dp5
S'resn'
p6
S'ILE'
sS'id'
p7
I19
sS'partial_charge'
p8
F0.031099999323487282
sS'formal_charge'
p9
I0
sS'segi'
p10
S''
sS'resi'
p11
S'1'
sS'resi_number'
p12
I1
sS'q'
F1
sS'hetatm'
p13
I0
sS'coord'
p14
(lp15
F0.11599999666213989
aF-0.21600000560283661
aF0
asS'symbol'
p16
S'N'
sS'text_type'
p17
S'N3'
sS'flags'
p18
I0
sS'vdw'
p19
F1.7999999523162842
sS'name'
p20
S'N'
sS'b'
F0
sS'index'
p21
I1
sS'chain'
p22
S''
sba(ichempy
Atom
(dp23
g6
S'ILE'
sg7
I1
sg8
F0.025699999183416367
sg9
I0
sg10
S''
sg11
S'1'
sg12
I1
sS'q'
F1
sg13
I0
sg14
(lp24
F1.565000057220459
aF-0.035999998450279236
aF0
asg16
S'C'
sg17
S'CT'
sg18
I0
sg19
F1.7999999523162842
sg20
S'CA'
sS'b'
F0
sg21
I2
sg22
S''
sba(ichempy
Atom
(dp25
g6
S'ILE'
sg7
I2
sg8
F0.18850000202655792
sg9
I0
sg10
S''
sg11
S'1'
sg12
I1
sS'q'
F1
sg13
I0
sg14
(lp26
F2.2420001029968262
aF-0.81000000238418579
aF-1.2029999494552612
asg16
S'C'
sg17
S'CT'
sg18
I0
sg19
F1.7999999523162842
sg20
S'CB'
sS'b'
F0
sg21
I3
sg22
S''
sba(ichempy
Atom
(dp27
g6
S'ILE'
sg7
I4
sg8
F-0.038699999451637268
sg9
I0
sg10
S''
sg11
S'1'
sg12
I1
sS'q'
F1
sg13
I0
sg14
(lp28
F1.8500000238418579
aF-2.3190000057220459
aF-1.309999942779541
asg16
S'C'
sg17
S'CT'
sg18
I0
sg19
F1.7999999523162842
sg20
S'CG1'
sS'b'
F0
sg21
I4
sg22
S''
sba(ichempy
Atom
(dp29
g6
S'ILE'
sg7
I5
sg8
F-0.37200000882148743
sg9
I0
sg10
S''
sg11
S'1'
sg12
I1
sS'q'
F1
sg13
I0
sg14
(lp30
F3.7990000247955322
aF-0.7149999737739563
aF-1.184999942779541
asg16
S'C'
sg17
S'CT'
sg18
I0
sg19
F1.7999999523162842
sg20
S'CG2'
sS'b'
F0
sg21
I5
sg22
S''
sba(ichempy
Atom
(dp31
g6
S'ILE'
sg7
I3
sg8
F-0.090800002217292786
sg9
I0
sg10
S''
sg11
S'1'
sg12
I1
sS'q'
F1
sg13
I0
sg14
(lp32
F2.2230000495910645
aF-3.0199999809265137
aF-2.6329998970031738
asg16
S'C'
sg17
S'CT'
sg18
I0
sg19
F1.7999999523162842
sg20
S'CD1'
sS'b'
F0
sg21
I6
sg22
S''
sba(ichempy
Atom
(dp33
g6
S'ILE'
sg7
I0
sg8
F0.61229997873306274
sg9
I0
sg10
S''
sg11
S'1'
sg12
I1
sS'q'
F1
sg13
I0
sg14
(lp34
F1.9279999732971191
aF1.4299999475479126
aF0
asg16
S'C'
sg17
S'C'
sg18
I0
sg19
F1.7999999523162842
sg20
S'C'
sS'b'
F0
sg21
I7
sg22
S''
sba(ichempy
Atom
(dp35
g6
S'ILE'
sg7
I20
sg8
F-0.57130002975463867
sg9
I0
sg10
S''
sg11
S'1'
sg12
I1
sS'q'
F1
sg13
I0
sg14
(lp36
F1.065000057220459
aF2.3199999332427979
aF0
asg16
S'O'
sg17
S'O'
sg18
I0
sg19
F1.5
sg20
S'O'
sS'b'
F0
sg21
I8
sg22
S''
sba(ichempy
Atom
(dp37
g6
S'ILE'
sg7
I6
sg8
F0.022600000724196434
sg9
I0
sg10
S''
sg11
S'1'
sg12
I1
sS'q'
F1
sg13
I0
sg14
(lp38
F1.7910000085830688
aF-2.499000072479248
aF-3.5090000629425049
asg16
S'H'
sg17
S'HC'
sg18
I0
sg19
F1.1000000238418579
sg20
S'1HD1'
sS'b'
F0
sg21
I9
sg22
S''
sba(ichempy
Atom
(dp39
g6
S'ILE'
sg7
I7
sg8
F0.094700001180171967
sg9
I0
sg10
S''
sg11
S'1'
sg12
I1
sS'q'
F1
sg13
I0
sg14
(lp40
F4.1719999313354492
aF0.32400000095367432
aF-1.2289999723434448
asg16
S'H'
sg17
S'HC'
sg18
I0
sg19
F1.1000000238418579
sg20
S'1HG2'
sS'b'
F0
sg21
I10
sg22
S''
sba(ichempy
Atom
(dp41
g6
S'ILE'
sg7
I8
sg8
F0.2328999936580658
sg9
I0
sg10
S''
sg11
S'1'
sg12
I1
sS'q'
F1
sg13
I0
sg14
(lp42
F-0.10499999672174454
aF-1.2220000028610229
aF0
asg16
S'H'
sg17
S'H'
sg18
I0
sg19
F1.1000000238418579
sg20
S'1HT'
sS'b'
F0
sg21
I11
sg22
S''
sba(ichempy
Atom
(dp43
g6
S'ILE'
sg7
I9
sg8
F0.022600000724196434
sg9
I0
sg10
S''
sg11
S'1'
sg12
I1
sS'q'
F1
sg13
I0
sg14
(lp44
F3.315000057220459
aF-3.0769999027252197
aF-2.7880001068115234
asg16
S'H'
sg17
S'HC'
sg18
I0
sg19
F1.1000000238418579
sg20
S'2HD1'
sS'b'
F0
sg21
I12
sg22
S''
sba(ichempy
Atom
(dp45
g6
S'ILE'
sg7
I10
sg8
F0.020099999383091927
sg9
I0
sg10
S''
sg11
S'1'
sg12
I1
sS'q'
F1
sg13
I0
sg14
(lp46
F0.75199997425079346
aF-2.4230000972747803
aF-1.2120000123977661
asg16
S'H'
sg17
S'HC'
sg18
I0
sg19
F1.1000000238418579
sg20
S'2HG1'
sS'b'
F0
sg21
I13
sg22
S''
sba(ichempy
Atom
(dp47
g6
S'ILE'
sg7
I11
sg8
F0.094700001180171967
sg9
I0
sg10
S''
sg11
S'1'
sg12
I1
sS'q'
F1
sg13
I0
sg14
(lp48
F4.2340002059936523
aF-1.1820000410079956
aF-0.28099998831748962
asg16
S'H'
sg17
S'HC'
sg18
I0
sg19
F1.1000000238418579
sg20
S'2HG2'
sS'b'
F0
sg21
I14
sg22
S''
sba(ichempy
Atom
(dp49
g6
S'ILE'
sg7
I12
sg8
F0.2328999936580658
sg9
I0
sg10
S''
sg11
S'1'
sg12
I1
sS'q'
F1
sg13
I0
sg14
(lp50
F-0.28499999642372131
aF0.22300000488758087
aF0.8410000205039978
asg16
S'H'
sg17
S'H'
sg18
I0
sg19
F1.1000000238418579
sg20
S'2HT'
sS'b'
F0
sg21
I15
sg22
S''
sba(ichempy
Atom
(dp51
g6
S'ILE'
sg7
I13
sg8
F0.022600000724196434
sg9
I0
sg10
S''
sg11
S'1'
sg12
I1
sS'q'
F1
sg13
I0
sg14
(lp52
F1.8459999561309814
aF-4.0590000152587891
aF-2.6549999713897705
asg16
S'H'
sg17
S'HC'
sg18
I0
sg19
F1.1000000238418579
sg20
S'3HD1'
sS'b'
F0
sg21
I16
sg22
S''
sba(ichempy
Atom
(dp53
g6
S'ILE'
sg7
I14
sg8
F0.020099999383091927
sg9
I0
sg10
S''
sg11
S'1'
sg12
I1
sS'q'
F1
sg13
I0
sg14
(lp54
F2.2590000629425049
aF-2.8840000629425049
aF-0.44999998807907104
asg16
S'H'
sg17
S'HC'
sg18
I0
sg19
F1.1000000238418579
sg20
S'3HG1'
sS'b'
F0
sg21
I17
sg22
S''
sba(ichempy
Atom
(dp55
g6
S'ILE'
sg7
I15
sg8
F0.094700001180171967
sg9
I0
sg10
S''
sg11
S'1'
sg12
I1
sS'q'
F1
sg13
I0
sg14
(lp56
F4.2610001564025879
aF-1.2089999914169312
aF-2.0580000877380371
asg16
S'H'
sg17
S'HC'
sg18
I0
sg19
F1.1000000238418579
sg20
S'3HG2'
sS'b'
F0
sg21
I18
sg22
S''
sba(ichempy
Atom
(dp57
g6
S'ILE'
sg7
I16
sg8
F0.2328999936580658
sg9
I0
sg10
S''
sg11
S'1'
sg12
I1
sS'q'
F1
sg13
I0
sg14
(lp58
F-0.28499999642372131
aF0.22300000488758087
aF-0.8410000205039978
asg16
S'H'
sg17
S'H'
sg18
I0
sg19
F1.1000000238418579
sg20
S'3HT'
sS'b'
F0
sg21
I19
sg22
S''
sba(ichempy
Atom
(dp59
g6
S'ILE'
sg7
I17
sg8
F0.1031000018119812
sg9
I0
sg10
S''
sg11
S'1'
sg12
I1
sS'q'
F1
sg13
I0
sg14
(lp60
F1.9539999961853027
aF-0.45500001311302185
aF0.94599997997283936
asg16
S'H'
sg17
S'HP'
sg18
I0
sg19
F1.1000000238418579
sg20
S'HA'
sS'b'
F0
sg21
I20
sg22
S''
sba(ichempy
Atom
(dp61
g6
S'ILE'
sg7
I18
sg8
F0.021299999207258224
sg9
I0
sg10
S''
sg11
S'1'
sg12
I1
sS'q'
F1
sg13
I0
sg14
(lp62
F1.8869999647140503
aF-0.32100000977516174
aF-2.1349999904632568
asg16
S'H'
sg17
S'HC'
sg18
I0
sg19
F1.1000000238418579
sg20
S'HB'
sS'b'
F0
sg21
I21
sg22
S''
sbasS'molecule'
p63
(ichempy
Molecule
(dp64
bsg21
NsS'bond'
p65
(lp66
(ichempy
Bond
(dp67
S'order'
p68
I1
sg21
(lp69
I0
aI1
asba(ichempy
Bond
(dp70
g68
I1
sg21
(lp71
I0
aI10
asba(ichempy
Bond
(dp72
g68
I1
sg21
(lp73
I0
aI14
asba(ichempy
Bond
(dp74
g68
I1
sg21
(lp75
I0
aI18
asba(ichempy
Bond
(dp76
g68
I1
sg21
(lp77
I1
aI2
asba(ichempy
Bond
(dp78
g68
I1
sg21
(lp79
I1
aI6
asba(ichempy
Bond
(dp80
g68
I1
sg21
(lp81
I1
aI19
asba(ichempy
Bond
(dp82
g68
I1
sg21
(lp83
I3
aI2
asba(ichempy
Bond
(dp84
g68
I1
sg21
(lp85
I4
aI2
asba(ichempy
Bond
(dp86
g68
I1
sg21
(lp87
I5
aI3
asba(ichempy
Bond
(dp88
g68
I2
sg21
(lp89
I6
aI7
asba(ichempy
Bond
(dp90
g68
I1
sg21
(lp91
I8
aI5
asba(ichempy
Bond
(dp92
g68
I1
sg21
(lp93
I9
aI4
asba(ichempy
Bond
(dp94
g68
I1
sg21
(lp95
I11
aI5
asba(ichempy
Bond
(dp96
g68
I1
sg21
(lp97
I12
aI3
asba(ichempy
Bond
(dp98
g68
I1
sg21
(lp99
I13
aI4
asba(ichempy
Bond
(dp100
g68
I1
sg21
(lp101
I15
aI5
asba(ichempy
Bond
(dp102
g68
I1
sg21
(lp103
I16
aI3
asba(ichempy
Bond
(dp104
g68
I1
sg21
(lp105
I17
aI4
asba(ichempy
Bond
(dp106
g68
I1
sg21
(lp107
I20
aI2
asbasb.