(ichempy.models
Indexed
p1
(dp2
S'atom'
p3
(lp4
(ichempy
Atom
(dp5
S'resn'
p6
S'LEU'
sS'id'
p7
I19
sS'partial_charge'
p8
F0.10100000351667404
sS'formal_charge'
p9
I0
sS'segi'
p10
S''
sS'resi'
p11
S'1'
sS'resi_number'
p12
I1
sS'q'
F1
sS'hetatm'
p13
I0
sS'coord'
p14
(lp15
F0.064000003039836884
aF-0.12200000137090683
aF0
asS'symbol'
p16
S'N'
sS'text_type'
p17
S'N3'
sS'flags'
p18
I0
sS'vdw'
p19
F1.7999999523162842
sS'name'
p20
S'N'
sS'b'
F0
sS'index'
p21
I1
sS'chain'
p22
S''
sba(ichempy
Atom
(dp23
g6
S'LEU'
sg7
I1
sg8
F0.010400000028312206
sg9
I0
sg10
S''
sg11
S'1'
sg12
I1
sS'q'
F1
sg13
I0
sg14
(lp24
F1.5210000276565552
aF-0.017999999225139618
aF0
asg16
S'C'
sg17
S'CT'
sg18
I0
sg19
F1.7999999523162842
sg20
S'CA'
sS'b'
F0
sg21
I2
sg22
S''
sba(ichempy
Atom
(dp25
g6
S'LEU'
sg7
I2
sg8
F-0.024399999529123306
sg9
I0
sg10
S''
sg11
S'1'
sg12
I1
sS'q'
F1
sg13
I0
sg14
(lp26
F2.121999979019165
aF-0.78200000524520874
aF-1.2139999866485596
asg16
S'C'
sg17
S'CT'
sg18
I0
sg19
F1.7999999523162842
sg20
S'CB'
sS'b'
F0
sg21
I3
sg22
S''
sba(ichempy
Atom
(dp27
g6
S'LEU'
sg7
I5
sg8
F0.34209999442100525
sg9
I0
sg10
S''
sg11
S'1'
sg12
I1
sS'q'
F1
sg13
I0
sg14
(lp28
F1.8020000457763672
aF-2.2939999103546143
aF-1.3580000400543213
asg16
S'C'
sg17
S'CT'
sg18
I0
sg19
F1.7999999523162842
sg20
S'CG'
sS'b'
F0
sg21
I4
sg22
S''
sba(ichempy
Atom
(dp29
g6
S'LEU'
sg7
I3
sg8
F-0.41060000658035278
sg9
I0
sg10
S''
sg11
S'1'
sg12
I1
sS'q'
F1
sg13
I0
sg14
(lp30
F2.5729999542236328
aF-2.8859999179840088
aF-2.5460000038146973
asg16
S'C'
sg17
S'CT'
sg18
I0
sg19
F1.7999999523162842
sg20
S'CD1'
sS'b'
F0
sg21
I5
sg22
S''
sba(ichempy
Atom
(dp31
g6
S'LEU'
sg7
I4
sg8
F-0.41040000319480896
sg9
I0
sg10
S''
sg11
S'1'
sg12
I1
sS'q'
F1
sg13
I0
sg14
(lp32
F2.1210000514984131
aF-3.0929999351501465
aF-0.082999996840953827
asg16
S'C'
sg17
S'CT'
sg18
I0
sg19
F1.7999999523162842
sg20
S'CD2'
sS'b'
F0
sg21
I6
sg22
S''
sba(ichempy
Atom
(dp33
g6
S'LEU'
sg7
I0
sg8
F0.61229997873306274
sg9
I0
sg10
S''
sg11
S'1'
sg12
I1
sS'q'
F1
sg13
I0
sg14
(lp34
F1.9600000381469727
aF1.4270000457763672
aF0
asg16
S'C'
sg17
S'C'
sg18
I0
sg19
F1.7999999523162842
sg20
S'C'
sS'b'
F0
sg21
I7
sg22
S''
sba(ichempy
Atom
(dp35
g6
S'LEU'
sg7
I20
sg8
F-0.57130002975463867
sg9
I0
sg10
S''
sg11
S'1'
sg12
I1
sS'q'
F1
sg13
I0
sg14
(lp36
F1.1449999809265137
aF2.3610000610351562
aF0
asg16
S'O'
sg17
S'O'
sg18
I0
sg19
F1.5
sg20
S'O'
sS'b'
F0
sg21
I8
sg22
S''
sba(ichempy
Atom
(dp37
g6
S'LEU'
sg7
I6
sg8
F0.097999997437000275
sg9
I0
sg10
S''
sg11
S'1'
sg12
I1
sS'q'
F1
sg13
I0
sg14
(lp38
F2.3359999656677246
aF-2.3640000820159912
aF-3.4920001029968262
asg16
S'H'
sg17
S'HC'
sg18
I0
sg19
F1.1000000238418579
sg20
S'1HD1'
sS'b'
F0
sg21
I9
sg22
S''
sba(ichempy
Atom
(dp39
g6
S'LEU'
sg7
I7
sg8
F0.097999997437000275
sg9
I0
sg10
S''
sg11
S'1'
sg12
I1
sS'q'
F1
sg13
I0
sg14
(lp40
F3.1730000972747803
aF-2.9739999771118164
aF0.23399999737739563
asg16
S'H'
sg17
S'HC'
sg18
I0
sg19
F1.1000000238418579
sg20
S'1HD2'
sS'b'
F0
sg21
I10
sg22
S''
sba(ichempy
Atom
(dp41
g6
S'LEU'
sg7
I8
sg8
F0.21480000019073486
sg9
I0
sg10
S''
sg11
S'1'
sg12
I1
sS'q'
F1
sg13
I0
sg14
(lp42
F-0.20999999344348907
aF-1.1150000095367432
aF0
asg16
S'H'
sg17
S'H'
sg18
I0
sg19
F1.1000000238418579
sg20
S'1HT'
sS'b'
F0
sg21
I11
sg22
S''
sba(ichempy
Atom
(dp43
g6
S'LEU'
sg7
I9
sg8
F0.025599999353289604
sg9
I0
sg10
S''
sg11
S'1'
sg12
I1
sS'q'
F1
sg13
I0
sg14
(lp44
F3.2230000495910645
aF-0.66100001335144043
aF-1.1940000057220459
asg16
S'H'
sg17
S'HC'
sg18
I0
sg19
F1.1000000238418579
sg20
S'2HB'
sS'b'
F0
sg21
I12
sg22
S''
sba(ichempy
Atom
(dp45
g6
S'LEU'
sg7
I10
sg8
F0.097999997437000275
sg9
I0
sg10
S''
sg11
S'1'
sg12
I1
sS'q'
F1
sg13
I0
sg14
(lp46
F3.6689999103546143
aF-2.8280000686645508
aF-2.4059998989105225
asg16
S'H'
sg17
S'HC'
sg18
I0
sg19
F1.1000000238418579
sg20
S'2HD1'
sS'b'
F0
sg21
I13
sg22
S''
sba(ichempy
Atom
(dp47
g6
S'LEU'
sg7
I11
sg8
F0.097999997437000275
sg9
I0
sg10
S''
sg11
S'1'
sg12
I1
sS'q'
F1
sg13
I0
sg14
(lp48
F1.4839999675750732
aF-2.7709999084472656
aF0.76200002431869507
asg16
S'H'
sg17
S'HC'
sg18
I0
sg19
F1.1000000238418579
sg20
S'2HD2'
sS'b'
F0
sg21
I14
sg22
S''
sba(ichempy
Atom
(dp49
g6
S'LEU'
sg7
I12
sg8
F0.21480000019073486
sg9
I0
sg10
S''
sg11
S'1'
sg12
I1
sS'q'
F1
sg13
I0
sg14
(lp50
F-0.31299999356269836
aF0.33799999952316284
aF0.8410000205039978
asg16
S'H'
sg17
S'H'
sg18
I0
sg19
F1.1000000238418579
sg20
S'2HT'
sS'b'
F0
sg21
I15
sg22
S''
sba(ichempy
Atom
(dp51
g6
S'LEU'
sg7
I13
sg8
F0.025599999353289604
sg9
I0
sg10
S''
sg11
S'1'
sg12
I1
sS'q'
F1
sg13
I0
sg14
(lp52
F1.8040000200271606
aF-0.27300000190734863
aF-2.1459999084472656
asg16
S'H'
sg17
S'HC'
sg18
I0
sg19
F1.1000000238418579
sg20
S'3HB'
sS'b'
F0
sg21
I16
sg22
S''
sba(ichempy
Atom
(dp53
g6
S'LEU'
sg7
I14
sg8
F0.097999997437000275
sg9
I0
sg10
S''
sg11
S'1'
sg12
I1
sS'q'
F1
sg13
I0
sg14
(lp54
F2.3210000991821289
aF-3.9519999027252197
aF-2.7039999961853027
asg16
S'H'
sg17
S'HC'
sg18
I0
sg19
F1.1000000238418579
sg20
S'3HD1'
sS'b'
F0
sg21
I17
sg22
S''
sba(ichempy
Atom
(dp55
g6
S'LEU'
sg7
I15
sg8
F0.097999997437000275
sg9
I0
sg10
S''
sg11
S'1'
sg12
I1
sS'q'
F1
sg13
I0
sg14
(lp56
F1.9299999475479126
aF-4.1739997863769531
aF-0.21400000154972076
asg16
S'H'
sg17
S'HC'
sg18
I0
sg19
F1.1000000238418579
sg20
S'3HD2'
sS'b'
F0
sg21
I18
sg22
S''
sba(ichempy
Atom
(dp57
g6
S'LEU'
sg7
I16
sg8
F0.21480000019073486
sg9
I0
sg10
S''
sg11
S'1'
sg12
I1
sS'q'
F1
sg13
I0
sg14
(lp58
F-0.31299999356269836
aF0.33799999952316284
aF-0.8410000205039978
asg16
S'H'
sg17
S'H'
sg18
I0
sg19
F1.1000000238418579
sg20
S'3HT'
sS'b'
F0
sg21
I19
sg22
S''
sba(ichempy
Atom
(dp59
g6
S'LEU'
sg7
I17
sg8
F0.10530000180006027
sg9
I0
sg10
S''
sg11
S'1'
sg12
I1
sS'q'
F1
sg13
I0
sg14
(lp60
F1.9019999504089355
aF-0.45800000429153442
aF0.93900001049041748
asg16
S'H'
sg17
S'HP'
sg18
I0
sg19
F1.1000000238418579
sg20
S'HA'
sS'b'
F0
sg21
I20
sg22
S''
sba(ichempy
Atom
(dp61
g6
S'LEU'
sg7
I18
sg8
F-0.037999998778104782
sg9
I0
sg10
S''
sg11
S'1'
sg12
I1
sS'q'
F1
sg13
I0
sg14
(lp62
F0.71700000762939453
aF-2.3980000019073486
aF-1.5700000524520874
asg16
S'H'
sg17
S'HC'
sg18
I0
sg19
F1.1000000238418579
sg20
S'HG'
sS'b'
F0
sg21
I21
sg22
S''
sbasS'molecule'
p63
(ichempy
Molecule
(dp64
bsg21
NsS'bond'
p65
(lp66
(ichempy
Bond
(dp67
S'order'
p68
I1
sg21
(lp69
I0
aI1
asba(ichempy
Bond
(dp70
g68
I1
sg21
(lp71
I0
aI10
asba(ichempy
Bond
(dp72
g68
I1
sg21
(lp73
I0
aI14
asba(ichempy
Bond
(dp74
g68
I1
sg21
(lp75
I0
aI18
asba(ichempy
Bond
(dp76
g68
I1
sg21
(lp77
I1
aI2
asba(ichempy
Bond
(dp78
g68
I1
sg21
(lp79
I1
aI6
asba(ichempy
Bond
(dp80
g68
I1
sg21
(lp81
I1
aI19
asba(ichempy
Bond
(dp82
g68
I1
sg21
(lp83
I3
aI2
asba(ichempy
Bond
(dp84
g68
I1
sg21
(lp85
I4
aI3
asba(ichempy
Bond
(dp86
g68
I1
sg21
(lp87
I5
aI3
asba(ichempy
Bond
(dp88
g68
I2
sg21
(lp89
I6
aI7
asba(ichempy
Bond
(dp90
g68
I1
sg21
(lp91
I8
aI4
asba(ichempy
Bond
(dp92
g68
I1
sg21
(lp93
I9
aI5
asba(ichempy
Bond
(dp94
g68
I1
sg21
(lp95
I11
aI2
asba(ichempy
Bond
(dp96
g68
I1
sg21
(lp97
I12
aI4
asba(ichempy
Bond
(dp98
g68
I1
sg21
(lp99
I13
aI5
asba(ichempy
Bond
(dp100
g68
I1
sg21
(lp101
I15
aI2
asba(ichempy
Bond
(dp102
g68
I1
sg21
(lp103
I16
aI4
asba(ichempy
Bond
(dp104
g68
I1
sg21
(lp105
I17
aI5
asba(ichempy
Bond
(dp106
g68
I1
sg21
(lp107
I20
aI3
asbasb.