(ichempy.models
Indexed
p1
(dp2
S'atom'
p3
(lp4
(ichempy
Atom
(dp5
S'resn'
p6
S'PRO'
sS'id'
p7
I14
sS'partial_charge'
p8
F-0.20200000703334808
sS'formal_charge'
p9
I0
sS'segi'
p10
S''
sS'resi'
p11
S'1'
sS'resi_number'
p12
I1
sS'q'
F1
sS'hetatm'
p13
I0
sS'coord'
p14
(lp15
F0.083999998867511749
aF0.63700002431869507
aF-0.081000000238418579
asS'symbol'
p16
S'N'
sS'text_type'
p17
S'N3'
sS'flags'
p18
I0
sS'vdw'
p19
F1.7999999523162842
sS'name'
p20
S'N'
sS'b'
F0
sS'index'
p21
I1
sS'chain'
p22
S''
sba(ichempy
Atom
(dp23
g6
S'PRO'
sg7
I1
sg8
F0.10000000149011612
sg9
I0
sg10
S''
sg11
S'1'
sg12
I1
sS'q'
F1
sg13
I0
sg14
(lp24
F1.5390000343322754
aF0.63400000333786011
aF-0.046999998390674591
asg16
S'C'
sg17
S'CT'
sg18
I0
sg19
F1.7999999523162842
sg20
S'CA'
sS'b'
F0
sg21
I2
sg22
S''
sba(ichempy
Atom
(dp25
g6
S'PRO'
sg7
I2
sg8
F-0.11500000208616257
sg9
I0
sg10
S''
sg11
S'1'
sg12
I1
sS'q'
F1
sg13
I0
sg14
(lp26
F1.8619999885559082
aF-0.80000001192092896
aF-0.49300000071525574
asg16
S'C'
sg17
S'CT'
sg18
I0
sg19
F1.7999999523162842
sg20
S'CB'
sS'b'
F0
sg21
I3
sg22
S''
sba(ichempy
Atom
(dp27
g6
S'PRO'
sg7
I4
sg8
F-0.12099999934434891
sg9
I0
sg10
S''
sg11
S'1'
sg12
I1
sS'q'
F1
sg13
I0
sg14
(lp28
F0.68699997663497925
aF-1.1690000295639038
aF-1.4110000133514404
asg16
S'C'
sg17
S'CT'
sg18
I0
sg19
F1.7999999523162842
sg20
S'CG'
sS'b'
F0
sg21
I4
sg22
S''
sba(ichempy
Atom
(dp29
g6
S'PRO'
sg7
I3
sg8
F-0.012000000104308128
sg9
I0
sg10
S''
sg11
S'1'
sg12
I1
sS'q'
F1
sg13
I0
sg14
(lp30
F-0.51399999856948853
aF-0.51099997758865356
aF-0.72699999809265137
asg16
S'C'
sg17
S'CT'
sg18
I0
sg19
F1.7999999523162842
sg20
S'CD'
sS'b'
F0
sg21
I5
sg22
S''
sba(ichempy
Atom
(dp31
g6
S'PRO'
sg7
I0
sg8
F0.52600002288818359
sg9
I0
sg10
S''
sg11
S'1'
sg12
I1
sS'q'
F1
sg13
I0
sg14
(lp32
F2.130000114440918
aF1.7020000219345093
aF-0.98299998044967651
asg16
S'C'
sg17
S'C'
sg18
I0
sg19
F1.7999999523162842
sg20
S'C'
sS'b'
F0
sg21
I6
sg22
S''
sba(ichempy
Atom
(dp33
g6
S'PRO'
sg7
I15
sg8
F-0.5
sg9
I0
sg10
S''
sg11
S'1'
sg12
I1
sS'q'
F1
sg13
I0
sg14
(lp34
F3.2049999237060547
aF2.2400000095367432
aF-0.7149999737739563
asg16
S'O'
sg17
S'O'
sg18
I0
sg19
F1.5
sg20
S'O'
sS'b'
F0
sg21
I7
sg22
S''
sba(ichempy
Atom
(dp35
g6
S'PRO'
sg7
I5
sg8
F0.31200000643730164
sg9
I0
sg10
S''
sg11
S'1'
sg12
I1
sS'q'
F1
sg13
I0
sg14
(lp36
F-0.25900000333786011
aF0.65799999237060547
aF0.88999998569488525
asg16
S'H'
sg17
S'H'
sg18
I0
sg19
F1.1000000238418579
sg20
S'2H'
sS'b'
F0
sg21
I8
sg22
S''
sba(ichempy
Atom
(dp37
g6
S'PRO'
sg7
I6
sg8
F0.10000000149011612
sg9
I0
sg10
S''
sg11
S'1'
sg12
I1
sS'q'
F1
sg13
I0
sg14
(lp38
F1.8530000448226929
aF-1.4550000429153442
aF0.38199999928474426
asg16
S'H'
sg17
S'HC'
sg18
I0
sg19
F1.1000000238418579
sg20
S'2HB'
sS'b'
F0
sg21
I9
sg22
S''
sba(ichempy
Atom
(dp39
g6
S'PRO'
sg7
I7
sg8
F0.10000000149011612
sg9
I0
sg10
S''
sg11
S'1'
sg12
I1
sS'q'
F1
sg13
I0
sg14
(lp40
F-0.94499999284744263
aF-1.1720000505447388
aF0.028000000864267349
asg16
S'H'
sg17
S'H1'
sg18
I0
sg19
F1.1000000238418579
sg20
S'2HD'
sS'b'
F0
sg21
I10
sg22
S''
sba(ichempy
Atom
(dp41
g6
S'PRO'
sg7
I8
sg8
F0.10000000149011612
sg9
I0
sg10
S''
sg11
S'1'
sg12
I1
sS'q'
F1
sg13
I0
sg14
(lp42
F0.56099998950958252
aF-2.247999906539917
aF-1.5180000066757202
asg16
S'H'
sg17
S'HC'
sg18
I0
sg19
F1.1000000238418579
sg20
S'2HG'
sS'b'
F0
sg21
I11
sg22
S''
sba(ichempy
Atom
(dp43
g6
S'PRO'
sg7
I9
sg8
F0.31200000643730164
sg9
I0
sg10
S''
sg11
S'1'
sg12
I1
sS'q'
F1
sg13
I0
sg14
(lp44
F-0.22300000488758087
aF1.4750000238418579
aF-0.59500002861022949
asg16
S'H'
sg17
S'H'
sg18
I0
sg19
F1.1000000238418579
sg20
S'3H'
sS'b'
F0
sg21
I12
sg22
S''
sba(ichempy
Atom
(dp45
g6
S'PRO'
sg7
I10
sg8
F0.10000000149011612
sg9
I0
sg10
S''
sg11
S'1'
sg12
I1
sS'q'
F1
sg13
I0
sg14
(lp46
F2.8310000896453857
aF-0.88300001621246338
aF-0.99000000953674316
asg16
S'H'
sg17
S'HC'
sg18
I0
sg19
F1.1000000238418579
sg20
S'3HB'
sS'b'
F0
sg21
I13
sg22
S''
sba(ichempy
Atom
(dp47
g6
S'PRO'
sg7
I11
sg8
F0.10000000149011612
sg9
I0
sg10
S''
sg11
S'1'
sg12
I1
sS'q'
F1
sg13
I0
sg14
(lp48
F-1.2799999713897705
aF-0.20499999821186066
aF-1.4440000057220459
asg16
S'H'
sg17
S'H1'
sg18
I0
sg19
F1.1000000238418579
sg20
S'3HD'
sS'b'
F0
sg21
I14
sg22
S''
sba(ichempy
Atom
(dp49
g6
S'PRO'
sg7
I12
sg8
F0.10000000149011612
sg9
I0
sg10
S''
sg11
S'1'
sg12
I1
sS'q'
F1
sg13
I0
sg14
(lp50
F0.83700001239776611
aF-0.71899998188018799
aF-2.3949999809265137
asg16
S'H'
sg17
S'HC'
sg18
I0
sg19
F1.1000000238418579
sg20
S'3HG'
sS'b'
F0
sg21
I15
sg22
S''
sba(ichempy
Atom
(dp51
g6
S'PRO'
sg7
I13
sg8
F0.10000000149011612
sg9
I0
sg10
S''
sg11
S'1'
sg12
I1
sS'q'
F1
sg13
I0
sg14
(lp52
F1.8990000486373901
aF0.81800001859664917
aF0.96700000762939453
asg16
S'H'
sg17
S'HP'
sg18
I0
sg19
F1.1000000238418579
sg20
S'HA'
sS'b'
F0
sg21
I16
sg22
S''
sbasS'molecule'
p53
(ichempy
Molecule
(dp54
bsg21
NsS'bond'
p55
(lp56
(ichempy
Bond
(dp57
S'order'
p58
I1
sg21
(lp59
I0
aI1
asba(ichempy
Bond
(dp60
g58
I1
sg21
(lp61
I0
aI4
asba(ichempy
Bond
(dp62
g58
I1
sg21
(lp63
I0
aI7
asba(ichempy
Bond
(dp64
g58
I1
sg21
(lp65
I0
aI11
asba(ichempy
Bond
(dp66
g58
I1
sg21
(lp67
I1
aI2
asba(ichempy
Bond
(dp68
g58
I1
sg21
(lp69
I1
aI5
asba(ichempy
Bond
(dp70
g58
I1
sg21
(lp71
I1
aI15
asba(ichempy
Bond
(dp72
g58
I1
sg21
(lp73
I2
aI3
asba(ichempy
Bond
(dp74
g58
I1
sg21
(lp75
I3
aI4
asba(ichempy
Bond
(dp76
g58
I2
sg21
(lp77
I5
aI6
asba(ichempy
Bond
(dp78
g58
I1
sg21
(lp79
I8
aI2
asba(ichempy
Bond
(dp80
g58
I1
sg21
(lp81
I9
aI4
asba(ichempy
Bond
(dp82
g58
I1
sg21
(lp83
I10
aI3
asba(ichempy
Bond
(dp84
g58
I1
sg21
(lp85
I12
aI2
asba(ichempy
Bond
(dp86
g58
I1
sg21
(lp87
I13
aI4
asba(ichempy
Bond
(dp88
g58
I1
sg21
(lp89
I14
aI3
asbasb.