(ichempy.models
Indexed
p1
(dp2
S'atom'
p3
(lp4
(ichempy
Atom
(dp5
S'resn'
p6
S'PHE'
sS'id'
p7
I20
sS'partial_charge'
p8
F0.1737000048160553
sS'formal_charge'
p9
I0
sS'segi'
p10
S''
sS'resi'
p11
S'1'
sS'resi_number'
p12
I1
sS'q'
F1
sS'hetatm'
p13
I0
sS'coord'
p14
(lp15
F0.10999999940395355
aF-0.20000000298023224
aF0
asS'symbol'
p16
S'N'
sS'text_type'
p17
S'N3'
sS'flags'
p18
I0
sS'vdw'
p19
F1.7999999523162842
sS'name'
p20
S'N'
sS'b'
F0
sS'index'
p21
I1
sS'chain'
p22
S''
sba(ichempy
Atom
(dp23
g6
S'PHE'
sg7
I1
sg8
F0.073299996554851532
sg9
I0
sg10
S''
sg11
S'1'
sg12
I1
sS'q'
F1
sg13
I0
sg14
(lp24
F1.5609999895095825
aF-0.037999998778104782
aF0
asg16
S'C'
sg17
S'CT'
sg18
I0
sg19
F1.7999999523162842
sg20
S'CA'
sS'b'
F0
sg21
I2
sg22
S''
sba(ichempy
Atom
(dp25
g6
S'PHE'
sg7
I2
sg8
F0.032999999821186066
sg9
I0
sg10
S''
sg11
S'1'
sg12
I1
sS'q'
F1
sg13
I0
sg14
(lp26
F2.1749999523162842
aF-0.71899998188018799
aF-1.2610000371932983
asg16
S'C'
sg17
S'CT'
sg18
I0
sg19
F1.7999999523162842
sg20
S'CB'
sS'b'
F0
sg21
I3
sg22
S''
sba(ichempy
Atom
(dp27
g6
S'PHE'
sg7
I7
sg8
F0.0031000000890344381
sg9
I0
sg10
S''
sg11
S'1'
sg12
I1
sS'q'
F1
sg13
I0
sg14
(lp28
F1.8899999856948853
aF-2.2179999351501465
aF-1.4359999895095825
asg16
S'C'
sg17
S'CA'
sg18
I0
sg19
F1.7999999523162842
sg20
S'CG'
sS'b'
F0
sg21
I4
sg22
S''
sba(ichempy
Atom
(dp29
g6
S'PHE'
sg7
I3
sg8
F-0.13920000195503235
sg9
I0
sg10
S''
sg11
S'1'
sg12
I1
sS'q'
F1
sg13
I0
sg14
(lp30
F0.73799997568130493
aF-2.6289999485015869
aF-2.1170001029968262
asg16
S'C'
sg17
S'CA'
sg18
I0
sg19
F1.7999999523162842
sg20
S'CD1'
sS'b'
F0
sg21
I5
sg22
S''
sba(ichempy
Atom
(dp31
g6
S'PHE'
sg7
I4
sg8
F-0.13910000026226044
sg9
I0
sg10
S''
sg11
S'1'
sg12
I1
sS'q'
F1
sg13
I0
sg14
(lp32
F2.7330000400543213
aF-3.1779999732971191
aF-0.87000000476837158
asg16
S'C'
sg17
S'CA'
sg18
I0
sg19
F1.7999999523162842
sg20
S'CD2'
sS'b'
F0
sg21
I6
sg22
S''
sba(ichempy
Atom
(dp33
g6
S'PHE'
sg7
I5
sg8
F-0.16019999980926514
sg9
I0
sg10
S''
sg11
S'1'
sg12
I1
sS'q'
F1
sg13
I0
sg14
(lp34
F0.42399999499320984
aF-3.9800000190734863
aF-2.2139999866485596
asg16
S'C'
sg17
S'CA'
sg18
I0
sg19
F1.7999999523162842
sg20
S'CE1'
sS'b'
F0
sg21
I7
sg22
S''
sba(ichempy
Atom
(dp35
g6
S'PHE'
sg7
I6
sg8
F-0.16030000150203705
sg9
I0
sg10
S''
sg11
S'1'
sg12
I1
sS'q'
F1
sg13
I0
sg14
(lp36
F2.4240000247955322
aF-4.5310001373291016
aF-0.97699999809265137
asg16
S'C'
sg17
S'CA'
sg18
I0
sg19
F1.7999999523162842
sg20
S'CE2'
sS'b'
F0
sg21
I8
sg22
S''
sba(ichempy
Atom
(dp37
g6
S'PHE'
sg7
I8
sg8
F-0.12080000340938568
sg9
I0
sg10
S''
sg11
S'1'
sg12
I1
sS'q'
F1
sg13
I0
sg14
(lp38
F1.2680000066757202
aF-4.9320001602172852
aF-1.6460000276565552
asg16
S'C'
sg17
S'CA'
sg18
I0
sg19
F1.7999999523162842
sg20
S'CZ'
sS'b'
F0
sg21
I9
sg22
S''
sba(ichempy
Atom
(dp39
g6
S'PHE'
sg7
I0
sg8
F0.61229997873306274
sg9
I0
sg10
S''
sg11
S'1'
sg12
I1
sS'q'
F1
sg13
I0
sg14
(lp40
F1.9429999589920044
aF1.4229999780654907
aF0
asg16
S'C'
sg17
S'C'
sg18
I0
sg19
F1.7999999523162842
sg20
S'C'
sS'b'
F0
sg21
I10
sg22
S''
sba(ichempy
Atom
(dp41
g6
S'PHE'
sg7
I21
sg8
F-0.57130002975463867
sg9
I0
sg10
S''
sg11
S'1'
sg12
I1
sS'q'
F1
sg13
I0
sg14
(lp42
F1.0759999752044678
aF2.3410000801086426
aF0
asg16
S'O'
sg17
S'O'
sg18
I0
sg19
F1.5
sg20
S'O'
sS'b'
F0
sg21
I11
sg22
S''
sba(ichempy
Atom
(dp43
g6
S'PHE'
sg7
I9
sg8
F0.13740000128746033
sg9
I0
sg10
S''
sg11
S'1'
sg12
I1
sS'q'
F1
sg13
I0
sg14
(lp44
F0.061000000685453415
aF-1.8940000534057617
aF-2.5329999923706055
asg16
S'H'
sg17
S'HA'
sg18
I0
sg19
F1.1000000238418579
sg20
S'1HD'
sS'b'
F0
sg21
I12
sg22
S''
sba(ichempy
Atom
(dp45
g6
S'PHE'
sg7
I10
sg8
F0.14329999685287476
sg9
I0
sg10
S''
sg11
S'1'
sg12
I1
sS'q'
F1
sg13
I0
sg14
(lp46
F-0.4830000102519989
aF-4.2849998474121094
aF-2.7149999141693115
asg16
S'H'
sg17
S'HA'
sg18
I0
sg19
F1.1000000238418579
sg20
S'1HE'
sS'b'
F0
sg21
I13
sg22
S''
sba(ichempy
Atom
(dp47
g6
S'PHE'
sg7
I11
sg8
F0.19210000336170197
sg9
I0
sg10
S''
sg11
S'1'
sg12
I1
sS'q'
F1
sg13
I0
sg14
(lp48
F-0.125
aF-1.2029999494552612
aF0
asg16
S'H'
sg17
S'H'
sg18
I0
sg19
F1.1000000238418579
sg20
S'1HT'
sS'b'
F0
sg21
I14
sg22
S''
sba(ichempy
Atom
(dp49
g6
S'PHE'
sg7
I12
sg8
F0.010400000028312206
sg9
I0
sg10
S''
sg11
S'1'
sg12
I1
sS'q'
F1
sg13
I0
sg14
(lp50
F3.2720000743865967
aF-0.5690000057220459
aF-1.2619999647140503
asg16
S'H'
sg17
S'HC'
sg18
I0
sg19
F1.1000000238418579
sg20
S'2HB'
sS'b'
F0
sg21
I15
sg22
S''
sba(ichempy
Atom
(dp51
g6
S'PHE'
sg7
I13
sg8
F0.13740000128746033
sg9
I0
sg10
S''
sg11
S'1'
sg12
I1
sS'q'
F1
sg13
I0
sg14
(lp52
F3.6189999580383301
aF-2.872999906539917
aF-0.33100000023841858
asg16
S'H'
sg17
S'HA'
sg18
I0
sg19
F1.1000000238418579
sg20
S'2HD'
sS'b'
F0
sg21
I16
sg22
S''
sba(ichempy
Atom
(dp53
g6
S'PHE'
sg7
I14
sg8
F0.14329999685287476
sg9
I0
sg10
S''
sg11
S'1'
sg12
I1
sS'q'
F1
sg13
I0
sg14
(lp54
F3.0750000476837158
aF-5.2690000534057617
aF-0.53100001811981201
asg16
S'H'
sg17
S'HA'
sg18
I0
sg19
F1.1000000238418579
sg20
S'2HE'
sS'b'
F0
sg21
I17
sg22
S''
sba(ichempy
Atom
(dp55
g6
S'PHE'
sg7
I15
sg8
F0.19210000336170197
sg9
I0
sg10
S''
sg11
S'1'
sg12
I1
sS'q'
F1
sg13
I0
sg14
(lp56
F-0.28600001335144043
aF0.24500000476837158
aF0.8410000205039978
asg16
S'H'
sg17
S'H'
sg18
I0
sg19
F1.1000000238418579
sg20
S'2HT'
sS'b'
F0
sg21
I18
sg22
S''
sba(ichempy
Atom
(dp57
g6
S'PHE'
sg7
I16
sg8
F0.010400000028312206
sg9
I0
sg10
S''
sg11
S'1'
sg12
I1
sS'q'
F1
sg13
I0
sg14
(lp58
F1.8400000333786011
aF-0.18199999630451202
aF-2.1730000972747803
asg16
S'H'
sg17
S'HC'
sg18
I0
sg19
F1.1000000238418579
sg20
S'3HB'
sS'b'
F0
sg21
I19
sg22
S''
sba(ichempy
Atom
(dp59
g6
S'PHE'
sg7
I17
sg8
F0.19210000336170197
sg9
I0
sg10
S''
sg11
S'1'
sg12
I1
sS'q'
F1
sg13
I0
sg14
(lp60
F-0.28600001335144043
aF0.24500000476837158
aF-0.8410000205039978
asg16
S'H'
sg17
S'H'
sg18
I0
sg19
F1.1000000238418579
sg20
S'3HT'
sS'b'
F0
sg21
I20
sg22
S''
sba(ichempy
Atom
(dp61
g6
S'PHE'
sg7
I18
sg8
F0.10409999638795853
sg9
I0
sg10
S''
sg11
S'1'
sg12
I1
sS'q'
F1
sg13
I0
sg14
(lp62
F1.9730000495910645
aF-0.5
aF0.91699999570846558
asg16
S'H'
sg17
S'HP'
sg18
I0
sg19
F1.1000000238418579
sg20
S'HA'
sS'b'
F0
sg21
I21
sg22
S''
sba(ichempy
Atom
(dp63
g6
S'PHE'
sg7
I19
sg8
F0.13289999961853027
sg9
I0
sg10
S''
sg11
S'1'
sg12
I1
sS'q'
F1
sg13
I0
sg14
(lp64
F1.0199999809265137
aF-5.9800000190734863
aF-1.718000054359436
asg16
S'H'
sg17
S'HA'
sg18
I0
sg19
F1.1000000238418579
sg20
S'HZ'
sS'b'
F0
sg21
I22
sg22
S''
sbasS'molecule'
p65
(ichempy
Molecule
(dp66
bsg21
NsS'bond'
p67
(lp68
(ichempy
Bond
(dp69
S'order'
p70
I1
sg21
(lp71
I0
aI1
asba(ichempy
Bond
(dp72
g70
I1
sg21
(lp73
I0
aI13
asba(ichempy
Bond
(dp74
g70
I1
sg21
(lp75
I0
aI17
asba(ichempy
Bond
(dp76
g70
I1
sg21
(lp77
I0
aI19
asba(ichempy
Bond
(dp78
g70
I1
sg21
(lp79
I1
aI2
asba(ichempy
Bond
(dp80
g70
I1
sg21
(lp81
I1
aI9
asba(ichempy
Bond
(dp82
g70
I1
sg21
(lp83
I1
aI20
asba(ichempy
Bond
(dp84
g70
I1
sg21
(lp85
I3
aI2
asba(ichempy
Bond
(dp86
g70
I2
sg21
(lp87
I4
aI3
asba(ichempy
Bond
(dp88
g70
I1
sg21
(lp89
I5
aI3
asba(ichempy
Bond
(dp90
g70
I2
sg21
(lp91
I5
aI7
asba(ichempy
Bond
(dp92
g70
I1
sg21
(lp93
I6
aI4
asba(ichempy
Bond
(dp94
g70
I1
sg21
(lp95
I7
aI8
asba(ichempy
Bond
(dp96
g70
I2
sg21
(lp97
I8
aI6
asba(ichempy
Bond
(dp98
g70
I2
sg21
(lp99
I9
aI10
asba(ichempy
Bond
(dp100
g70
I1
sg21
(lp101
I11
aI4
asba(ichempy
Bond
(dp102
g70
I1
sg21
(lp103
I12
aI6
asba(ichempy
Bond
(dp104
g70
I1
sg21
(lp105
I14
aI2
asba(ichempy
Bond
(dp106
g70
I1
sg21
(lp107
I15
aI5
asba(ichempy
Bond
(dp108
g70
I1
sg21
(lp109
I16
aI7
asba(ichempy
Bond
(dp110
g70
I1
sg21
(lp111
I18
aI2
asba(ichempy
Bond
(dp112
g70
I1
sg21
(lp113
I21
aI8
asbasb.