(ichempy.models
Indexed
p1
(dp2
S'atom'
p3
(lp4
(ichempy
Atom
(dp5
S'resn'
p6
S'SER'
sS'id'
p7
I10
sS'partial_charge'
p8
F0.18490000069141388
sS'formal_charge'
p9
I0
sS'segi'
p10
S''
sS'resi'
p11
S'1'
sS'resi_number'
p12
I1
sS'q'
F1
sS'hetatm'
p13
I0
sS'coord'
p14
(lp15
F0.043000001460313797
aF-0.056000001728534698
aF0
asS'symbol'
p16
S'N'
sS'text_type'
p17
S'N3'
sS'flags'
p18
I0
sS'vdw'
p19
F1.7999999523162842
sS'name'
p20
S'N'
sS'b'
F0
sS'index'
p21
I1
sS'chain'
p22
S''
sba(ichempy
Atom
(dp23
g6
S'SER'
sg7
I1
sg8
F0.056699998676776886
sg9
I0
sg10
S''
sg11
S'1'
sg12
I1
sS'q'
F1
sg13
I0
sg14
(lp24
F1.5019999742507935
aF-0.019999999552965164
aF0
asg16
S'C'
sg17
S'CT'
sg18
I0
sg19
F1.7999999523162842
sg20
S'CA'
sS'b'
F0
sg21
I2
sg22
S''
sba(ichempy
Atom
(dp25
g6
S'SER'
sg7
I2
sg8
F0.25960001349449158
sg9
I0
sg10
S''
sg11
S'1'
sg12
I1
sS'q'
F1
sg13
I0
sg14
(lp26
F2.0729999542236328
aF-0.82899999618530273
aF-1.1920000314712524
asg16
S'C'
sg17
S'CT'
sg18
I0
sg19
F1.7999999523162842
sg20
S'CB'
sS'b'
F0
sg21
I3
sg22
S''
sba(ichempy
Atom
(dp27
g6
S'SER'
sg7
I12
sg8
F-0.67140001058578491
sg9
I0
sg10
S''
sg11
S'1'
sg12
I1
sS'q'
F1
sg13
I0
sg14
(lp28
F1.8240000009536743
aF-0.2070000022649765
aF-2.4570000171661377
asg16
S'O'
sg17
S'OH'
sg18
I0
sg19
F1.5
sg20
S'OG'
sS'b'
F0
sg21
I4
sg22
S''
sba(ichempy
Atom
(dp29
g6
S'SER'
sg7
I0
sg8
F0.61629998683929443
sg9
I0
sg10
S''
sg11
S'1'
sg12
I1
sS'q'
F1
sg13
I0
sg14
(lp30
F2.0090000629425049
aF1.4019999504089355
aF0
asg16
S'C'
sg17
S'C'
sg18
I0
sg19
F1.7999999523162842
sg20
S'C'
sS'b'
F0
sg21
I5
sg22
S''
sba(ichempy
Atom
(dp31
g6
S'SER'
sg7
I11
sg8
F-0.57220000028610229
sg9
I0
sg10
S''
sg11
S'1'
sg12
I1
sS'q'
F1
sg13
I0
sg14
(lp32
F1.2439999580383301
aF2.3670001029968262
aF0
asg16
S'O'
sg17
S'O'
sg18
I0
sg19
F1.5
sg20
S'O'
sS'b'
F0
sg21
I6
sg22
S''
sba(ichempy
Atom
(dp33
g6
S'SER'
sg7
I3
sg8
F0.18979999423027039
sg9
I0
sg10
S''
sg11
S'1'
sg12
I1
sS'q'
F1
sg13
I0
sg14
(lp34
F-0.27700001001358032
aF-1.0349999666213989
aF0
asg16
S'H'
sg17
S'H'
sg18
I0
sg19
F1.1000000238418579
sg20
S'1HT'
sS'b'
F0
sg21
I7
sg22
S''
sba(ichempy
Atom
(dp35
g6
S'SER'
sg7
I4
sg8
F0.027300000190734863
sg9
I0
sg10
S''
sg11
S'1'
sg12
I1
sS'q'
F1
sg13
I0
sg14
(lp36
F1.6749999523162842
aF-1.8619999885559082
aF-1.2029999494552612
asg16
S'H'
sg17
S'H1'
sg18
I0
sg19
F1.1000000238418579
sg20
S'2HB'
sS'b'
F0
sg21
I8
sg22
S''
sba(ichempy
Atom
(dp37
g6
S'SER'
sg7
I5
sg8
F0.18979999423027039
sg9
I0
sg10
S''
sg11
S'1'
sg12
I1
sS'q'
F1
sg13
I0
sg14
(lp38
F-0.31299999356269836
aF0.42100000381469727
aF0.8410000205039978
asg16
S'H'
sg17
S'H'
sg18
I0
sg19
F1.1000000238418579
sg20
S'2HT'
sS'b'
F0
sg21
I9
sg22
S''
sba(ichempy
Atom
(dp39
g6
S'SER'
sg7
I6
sg8
F0.027300000190734863
sg9
I0
sg10
S''
sg11
S'1'
sg12
I1
sS'q'
F1
sg13
I0
sg14
(lp40
F3.1679999828338623
aF-0.94700002670288086
aF-1.0720000267028809
asg16
S'H'
sg17
S'H1'
sg18
I0
sg19
F1.1000000238418579
sg20
S'3HB'
sS'b'
F0
sg21
I10
sg22
S''
sba(ichempy
Atom
(dp41
g6
S'SER'
sg7
I7
sg8
F0.18979999423027039
sg9
I0
sg10
S''
sg11
S'1'
sg12
I1
sS'q'
F1
sg13
I0
sg14
(lp42
F-0.31299999356269836
aF0.42100000381469727
aF-0.8410000205039978
asg16
S'H'
sg17
S'H'
sg18
I0
sg19
F1.1000000238418579
sg20
S'3HT'
sS'b'
F0
sg21
I11
sg22
S''
sba(ichempy
Atom
(dp43
g6
S'SER'
sg7
I8
sg8
F0.078199997544288635
sg9
I0
sg10
S''
sg11
S'1'
sg12
I1
sS'q'
F1
sg13
I0
sg14
(lp44
F1.8539999723434448
aF-0.48600000143051147
aF0.93900001049041748
asg16
S'H'
sg17
S'HP'
sg18
I0
sg19
F1.1000000238418579
sg20
S'HA'
sS'b'
F0
sg21
I12
sg22
S''
sba(ichempy
Atom
(dp45
g6
S'SER'
sg7
I9
sg8
F0.42390000820159912
sg9
I0
sg10
S''
sg11
S'1'
sg12
I1
sS'q'
F1
sg13
I0
sg14
(lp46
F0.87099999189376831
aF-0.17800000309944153
aF-2.5799999237060547
asg16
S'H'
sg17
S'HO'
sg18
I0
sg19
F1.1000000238418579
sg20
S'HG'
sS'b'
F0
sg21
I13
sg22
S''
sbasS'molecule'
p47
(ichempy
Molecule
(dp48
bsg21
NsS'bond'
p49
(lp50
(ichempy
Bond
(dp51
S'order'
p52
I1
sg21
(lp53
I0
aI1
asba(ichempy
Bond
(dp54
g52
I1
sg21
(lp55
I0
aI6
asba(ichempy
Bond
(dp56
g52
I1
sg21
(lp57
I0
aI8
asba(ichempy
Bond
(dp58
g52
I1
sg21
(lp59
I0
aI10
asba(ichempy
Bond
(dp60
g52
I1
sg21
(lp61
I1
aI2
asba(ichempy
Bond
(dp62
g52
I1
sg21
(lp63
I1
aI4
asba(ichempy
Bond
(dp64
g52
I1
sg21
(lp65
I1
aI11
asba(ichempy
Bond
(dp66
g52
I1
sg21
(lp67
I3
aI2
asba(ichempy
Bond
(dp68
g52
I2
sg21
(lp69
I4
aI5
asba(ichempy
Bond
(dp70
g52
I1
sg21
(lp71
I7
aI2
asba(ichempy
Bond
(dp72
g52
I1
sg21
(lp73
I9
aI2
asba(ichempy
Bond
(dp74
g52
I1
sg21
(lp75
I12
aI3
asbasb.