(ichempy.models
Indexed
p1
(dp2
S'atom'
p3
(lp4
(ichempy
Atom
(dp5
S'segi'
p6
S''
sS'alt'
p7
S''
sS'partial_charge'
p8
F0.59719999999999995
sS'resn'
p9
S'ACE'
sS'resi'
p10
S'1'
sS'resi_number'
p11
I1
sS'q'
F1
sS'hetatm'
p12
I0
sS'coord'
p13
(lp14
F-2.3540000000000001
aF-0.40999999999999998
aF0.071999999999999995
asS'symbol'
p15
S'C'
sS'text_type'
p16
S'C'
sS'chain'
p17
S''
sS'name'
p18
S'C'
sS'b'
F0
sS'index'
p19
I1
sba(ichempy
Atom
(dp20
g6
S''
sg7
S''
sg8
F-0.36620000000000003
sg9
S'ACE'
sg10
S'1'
sg11
I1
sS'q'
F1
sg12
I0
sg13
(lp21
F-3.8109999999999999
aF-0.502
aF0.47099999999999997
asg15
S'C'
sg16
S'CT'
p22
sg17
S''
sg18
S'CH3'
p23
sS'b'
F0
sg19
I0
sba(ichempy
Atom
(dp24
g6
S''
sg7
S''
sg8
F0.1123
sg9
S'ACE'
sg10
S'1'
sg11
I1
sS'q'
F1
sg12
I0
sg13
(lp25
F-3.931
aF-1.2170000000000001
aF1.272
asg15
S'H'
sg16
S'HC'
p26
sg17
S''
sg18
S'1HH3'
p27
sS'b'
F0
sg19
I5
sba(ichempy
Atom
(dp28
g6
S''
sg7
S''
sg8
F0.1123
sg9
S'ACE'
sg10
S'1'
sg11
I1
sS'q'
F1
sg12
I0
sg13
(lp29
F-4.1639999999999997
aF0.46200000000000002
aF0.80700000000000005
asg15
S'H'
sg16
g26
sg17
S''
sg18
S'2HH3'
p30
sS'b'
F0
sg19
I3
sba(ichempy
Atom
(dp31
g6
S''
sg7
S''
sg8
F0.1123
sg9
S'ACE'
sg10
S'1'
sg11
I1
sS'q'
F1
sg12
I0
sg13
(lp32
F-4.4059999999999997
aF-0.81799999999999995
aF-0.373
asg15
S'H'
sg16
g26
sg17
S''
sg18
S'3HH3'
p33
sS'b'
F0
sg19
I4
sba(ichempy
Atom
(dp34
g6
S''
sg7
S''
sg8
F-0.56789999999999996
sg9
S'ACE'
sg10
S'1'
sg11
I1
sS'q'
F1
sg12
I0
sg13
(lp35
F-1.7430000000000001
aF-1.403
aF-0.34499999999999997
asg15
S'O'
sg16
S'O'
sg17
S''
sg18
S'O'
sS'b'
F0
sg19
I2
sba(ichempy
Atom
(dp36
g6
S''
sg7
S''
sg8
F0.59730000000000005
sg9
S'ALA'
sg10
S'2'
sg11
I2
sS'q'
F1
sg12
I0
sg13
(lp37
F0.221
aF2.456
aF0.023
asg15
S'C'
sg16
S'C'
sg17
S''
sg18
S'C'
sS'b'
F0
sg19
I8
sba(ichempy
Atom
(dp38
g6
S''
sg7
S''
sg8
F0.033700000000000001
sg9
S'ALA'
sg10
S'2'
sg11
I2
sS'q'
F1
sg12
I0
sg13
(lp39
F-0.24399999999999999
aF1.0349999999999999
aF-0.187
asg15
S'C'
sg16
g22
sg17
S''
sg18
S'CA'
sS'b'
F0
sg19
I7
sba(ichempy
Atom
(dp40
g6
S''
sg7
S''
sg8
F-0.1825
sg9
S'ALA'
sg10
S'2'
sg11
I2
sS'q'
F1
sg12
I0
sg13
(lp41
F-0.094
aF0.56799999999999995
aF-1.645
asg15
S'C'
sg16
g22
sg17
S''
sg18
S'CB'
sS'b'
F0
sg19
I10
sba(ichempy
Atom
(dp42
g6
S''
sg7
S''
sg8
F0.060299999999999999
sg9
S'ALA'
sg10
S'2'
sg11
I2
sS'q'
F1
sg12
I0
sg13
(lp43
F-0.40300000000000002
aF-0.48699999999999999
aF-1.7729999999999999
asg15
S'H'
sg16
g26
sg17
S''
sg18
S'1HB'
sS'b'
F0
sg19
I13
sba(ichempy
Atom
(dp44
g6
S''
sg7
S''
sg8
F0.060299999999999999
sg9
S'ALA'
sg10
S'2'
sg11
I2
sS'q'
F1
sg12
I0
sg13
(lp45
F-0.70699999999999996
aF1.171
aF-2.3420000000000001
asg15
S'H'
sg16
g26
sg17
S''
sg18
S'2HB'
sS'b'
F0
sg19
I14
sba(ichempy
Atom
(dp46
g6
S''
sg7
S''
sg8
F0.060299999999999999
sg9
S'ALA'
sg10
S'2'
sg11
I2
sS'q'
F1
sg12
I0
sg13
(lp47
F0.95399999999999996
aF0.63500000000000001
aF-1.9930000000000001
asg15
S'H'
sg16
g26
sg17
S''
sg18
S'3HB'
sS'b'
F0
sg19
I15
sba(ichempy
Atom
(dp48
g6
S''
sg7
S''
sg8
F0.27189999999999998
sg9
S'ALA'
sg10
S'2'
sg11
I2
sS'q'
F1
sg12
I0
sg13
(lp49
F-2.2349999999999999
aF1.7130000000000001
aF0.55300000000000005
asg15
S'H'
sg16
S'H'
sg17
S''
sg18
S'H'
sS'b'
F0
sg19
I11
sba(ichempy
Atom
(dp50
g6
S''
sg7
S''
sg8
F0.082299999999999998
sg9
S'ALA'
sg10
S'2'
sg11
I2
sS'q'
F1
sg12
I0
sg13
(lp51
F0.36499999999999999
aF0.38900000000000001
aF0.47199999999999998
asg15
S'H'
sg16
S'H1'
p52
sg17
S''
sg18
S'HA'
sS'b'
F0
sg19
I12
sba(ichempy
Atom
(dp53
g6
S''
sg7
S''
sg8
F-0.41570000000000001
sg9
S'ALA'
sg10
S'2'
sg11
I2
sS'q'
F1
sg12
I0
sg13
(lp54
F-1.649
aF0.88500000000000001
aF0.183
asg15
S'N'
sg16
S'N'
sg17
S''
sg18
S'N'
sS'b'
F0
sg19
I6
sba(ichempy
Atom
(dp55
g6
S''
sg7
S''
sg8
F-0.56789999999999996
sg9
S'ALA'
sg10
S'2'
sg11
I2
sS'q'
F1
sg12
I0
sg13
(lp56
F-0.53000000000000003
aF3.3340000000000001
aF0.46600000000000003
asg15
S'O'
sg16
S'O'
sg17
S''
sg18
S'O'
sS'b'
F0
sg19
I9
sba(ichempy
Atom
(dp57
g6
S''
sg7
S''
sg8
F0.73409999999999997
sg9
S'ARG'
sg10
S'3'
sg11
I3
sS'q'
F1
sg12
I0
sg13
(lp58
F3.5190000000000001
aF4.0330000000000004
aF-0.54800000000000004
asg15
S'C'
sg16
S'C'
sg17
S''
sg18
S'C'
sS'b'
F0
sg19
I18
sba(ichempy
Atom
(dp59
g6
S''
sg7
S''
sg8
F-0.26369999999999999
sg9
S'ARG'
sg10
S'3'
sg11
I3
sS'q'
F1
sg12
I0
sg13
(lp60
F2.069
aF4.0309999999999997
aF-0.129
asg15
S'C'
sg16
g22
sg17
S''
sg18
S'CA'
sS'b'
F0
sg19
I17
sba(ichempy
Atom
(dp61
g6
S''
sg7
S''
sg8
F-0.00069999999999999999
sg9
S'ARG'
sg10
S'3'
sg11
I3
sS'q'
F1
sg12
I0
sg13
(lp62
F1.905
aF4.484
aF1.3500000000000001
asg15
S'C'
sg16
g22
sg17
S''
sg18
S'CB'
sS'b'
F0
sg19
I20
sba(ichempy
Atom
(dp63
g6
S''
sg7
S''
sg8
F0.048599999999999997
sg9
S'ARG'
sg10
S'3'
sg11
I3
sS'q'
F1
sg12
I0
sg13
(lp64
F2.073
aF6.3330000000000002
aF3.121
asg15
S'C'
sg16
g22
sg17
S''
sg18
S'CD'
sS'b'
F0
sg19
I22
sba(ichempy
Atom
(dp65
g6
S''
sg7
S''
sg8
F0.039
sg9
S'ARG'
sg10
S'3'
sg11
I3
sS'q'
F1
sg12
I0
sg13
(lp66
F2.2240000000000002
aF5.9790000000000001
aF1.631
asg15
S'C'
sg16
g22
sg17
S''
sg18
S'CG'
sS'b'
F0
sg19
I21
sba(ichempy
Atom
(dp67
g6
S''
sg7
S''
sg8
F0.80759999999999998
sg9
S'ARG'
sg10
S'3'
sg11
I3
sS'q'
F1
sg12
I0
sg13
(lp68
F2.339
aF8.4139999999999997
aF4.4950000000000001
asg15
S'C'
sg16
S'CA'
p69
sg17
S''
sg18
S'CZ'
sS'b'
F0
sg19
I24
sba(ichempy
Atom
(dp70
g6
S''
sg7
S''
sg8
F0.44779999999999998
sg9
S'ARG'
sg10
S'3'
sg11
I3
sS'q'
F1
sg12
I0
sg13
(lp71
F1.839
aF6.8339999999999996
aF5.5369999999999999
asg15
S'H'
sg16
S'H'
sg17
S''
sg18
S'1HH1'
sS'b'
F0
sg19
I36
sba(ichempy
Atom
(dp72
g6
S''
sg7
S''
sg8
F0.44779999999999998
sg9
S'ARG'
sg10
S'3'
sg11
I3
sS'q'
F1
sg12
I0
sg13
(lp73
F2.8439999999999999
aF10.119
aF3.6219999999999999
asg15
S'H'
sg16
S'H'
sg17
S''
sg18
S'1HH2'
sS'b'
F0
sg19
I38
sba(ichempy
Atom
(dp74
g6
S''
sg7
S''
sg8
F0.0327
sg9
S'ARG'
sg10
S'3'
sg11
I3
sS'q'
F1
sg12
I0
sg13
(lp75
F2.5339999999999998
aF3.8340000000000001
aF1.994
asg15
S'H'
sg16
g26
sg17
S''
sg18
S'2HB'
sS'b'
F0
sg19
I30
sba(ichempy
Atom
(dp76
g6
S''
sg7
S''
sg8
F0.068699999999999997
sg9
S'ARG'
sg10
S'3'
sg11
I3
sS'q'
F1
sg12
I0
sg13
(lp77
F2.7599999999999998
aF5.6980000000000004
aF3.7210000000000001
asg15
S'H'
sg16
g52
sg17
S''
sg18
S'2HD'
sS'b'
F0
sg19
I34
sba(ichempy
Atom
(dp78
g6
S''
sg7
S''
sg8
F0.028500000000000001
sg9
S'ARG'
sg10
S'3'
sg11
I3
sS'q'
F1
sg12
I0
sg13
(lp79
F1.5600000000000001
aF6.617
aF1.012
asg15
S'H'
sg16
g26
sg17
S''
sg18
S'2HG'
sS'b'
F0
sg19
I32
sba(ichempy
Atom
(dp80
g6
S''
sg7
S''
sg8
F0.44779999999999998
sg9
S'ARG'
sg10
S'3'
sg11
I3
sS'q'
F1
sg12
I0
sg13
(lp81
F2.0430000000000001
aF8.3889999999999993
aF6.4790000000000001
asg15
S'H'
sg16
S'H'
sg17
S''
sg18
S'2HH1'
sS'b'
F0
sg19
I37
sba(ichempy
Atom
(dp82
g6
S''
sg7
S''
sg8
F0.44779999999999998
sg9
S'ARG'
sg10
S'3'
sg11
I3
sS'q'
F1
sg12
I0
sg13
(lp83
F2.585
aF10.148999999999999
aF5.423
asg15
S'H'
sg16
S'H'
sg17
S''
sg18
S'2HH2'
sS'b'
F0
sg19
I39
sba(ichempy
Atom
(dp84
g6
S''
sg7
S''
sg8
F0.0327
sg9
S'ARG'
sg10
S'3'
sg11
I3
sS'q'
F1
sg12
I0
sg13
(lp85
F0.86699999999999999
aF4.2759999999999998
aF1.6819999999999999
asg15
S'H'
sg16
g26
sg17
S''
sg18
S'3HB'
p86
sS'b'
F0
sg19
I29
sba(ichempy
Atom
(dp87
g6
S''
sg7
S''
sg8
F0.068699999999999997
sg9
S'ARG'
sg10
S'3'
sg11
I3
sS'q'
F1
sg12
I0
sg13
(lp88
F1.042
aF6.0869999999999997
aF3.456
asg15
S'H'
sg16
g52
sg17
S''
sg18
S'3HD'
p89
sS'b'
F0
sg19
I33
sba(ichempy
Atom
(dp90
g6
S''
sg7
S''
sg8
F0.028500000000000001
sg9
S'ARG'
sg10
S'3'
sg11
I3
sS'q'
F1
sg12
I0
sg13
(lp91
F3.2570000000000001
aF6.2169999999999996
aF1.3029999999999999
asg15
S'H'
sg16
g26
sg17
S''
sg18
S'3HG'
p92
sS'b'
F0
sg19
I31
sba(ichempy
Atom
(dp93
g6
S''
sg7
S''
sg8
F0.2747
sg9
S'ARG'
sg10
S'3'
sg11
I3
sS'q'
F1
sg12
I0
sg13
(lp94
F2.024
aF1.9059999999999999
aF-0.63200000000000001
asg15
S'H'
sg16
S'H'
sg17
S''
sg18
S'H'
sS'b'
F0
sg19
I27
sba(ichempy
Atom
(dp95
g6
S''
sg7
S''
sg8
F0.156
sg9
S'ARG'
sg10
S'3'
sg11
I3
sS'q'
F1
sg12
I0
sg13
(lp96
F1.526
aF4.7240000000000002
aF-0.79900000000000004
asg15
S'H'
sg16
g52
sg17
S''
sg18
S'HA'
sS'b'
F0
sg19
I28
sba(ichempy
Atom
(dp97
g6
S''
sg7
S''
sg8
F0.34560000000000002
sg9
S'ARG'
sg10
S'3'
sg11
I3
sS'q'
F1
sg12
I0
sg13
(lp98
F2.6219999999999999
aF8.3840000000000003
aF2.536
asg15
S'H'
sg16
S'H'
sg17
S''
sg18
S'HE'
sS'b'
F0
sg19
I35
sba(ichempy
Atom
(dp99
g6
S''
sg7
S''
sg8
F-0.34789999999999999
sg9
S'ARG'
sg10
S'3'
sg11
I3
sS'q'
F1
sg12
I0
sg13
(lp100
F1.482
aF2.7029999999999998
aF-0.28100000000000003
asg15
S'N'
sg16
S'N'
sg17
S''
sg18
S'N'
sS'b'
F0
sg19
I16
sba(ichempy
Atom
(dp101
g6
S''
sg7
S''
sg8
F-0.52949999999999997
sg9
S'ARG'
sg10
S'3'
sg11
I3
sS'q'
F1
sg12
I0
sg13
(lp102
F2.3700000000000001
aF7.782
aF3.3260000000000001
asg15
S'N'
sg16
S'N2'
p103
sg17
S''
sg18
S'NE'
sS'b'
F0
sg19
I23
sba(ichempy
Atom
(dp104
g6
S''
sg7
S''
sg8
F-0.86270000000000002
sg9
S'ARG'
sg10
S'3'
sg11
I3
sS'q'
F1
sg12
I0
sg13
(lp105
F2.0449999999999999
aF7.8319999999999999
aF5.6230000000000002
asg15
S'N'
sg16
g103
sg17
S''
sg18
S'NH1'
sS'b'
F0
sg19
I25
sba(ichempy
Atom
(dp106
g6
S''
sg7
S''
sg8
F-0.86270000000000002
sg9
S'ARG'
sg10
S'3'
sg11
I3
sS'q'
F1
sg12
I0
sg13
(lp107
F2.6160000000000001
aF9.6799999999999997
aF4.516
asg15
S'N'
sg16
g103
sg17
S''
sg18
S'NH2'
sS'b'
F0
sg19
I26
sba(ichempy
Atom
(dp108
g6
S''
sg7
S''
sg8
F-0.58940000000000003
sg9
S'ARG'
sg10
S'3'
sg11
I3
sS'q'
F1
sg12
I0
sg13
(lp109
F4.0739999999999998
aF3.024
aF-0.97799999999999998
asg15
S'O'
sg16
S'O'
sg17
S''
sg18
S'O'
sS'b'
F0
sg19
I19
sba(ichempy
Atom
(dp110
g6
S''
sg7
S''
sg8
F0.53659999999999997
sg9
S'ASP'
sg10
S'4'
sg11
I4
sS'q'
F1
sg12
I0
sg13
(lp111
F6.0190000000000001
aF6.7610000000000001
aF-0.60899999999999999
asg15
S'C'
sg16
S'C'
sg17
S''
sg18
S'C'
sS'b'
F0
sg19
I42
sba(ichempy
Atom
(dp112
g6
S''
sg7
S''
sg8
F0.038100000000000002
sg9
S'ASP'
sg10
S'4'
sg11
I4
sS'q'
F1
sg12
I0
sg13
(lp113
F5.5529999999999999
aF5.3399999999999999
aF-0.81899999999999995
asg15
S'C'
sg16
g22
sg17
S''
sg18
S'CA'
sS'b'
F0
sg19
I41
sba(ichempy
Atom
(dp114
g6
S''
sg7
S''
sg8
F-0.030300000000000001
sg9
S'ASP'
sg10
S'4'
sg11
I4
sS'q'
F1
sg12
I0
sg13
(lp115
F5.782
aF4.891
aF-2.2890000000000001
asg15
S'C'
sg16
g22
sg17
S''
sg18
S'CB'
sS'b'
F0
sg19
I44
sba(ichempy
Atom
(dp116
g6
S''
sg7
S''
sg8
F0.7994
sg9
S'ASP'
sg10
S'4'
sg11
I4
sS'q'
F1
sg12
I0
sg13
(lp117
F7.2389999999999999
aF4.9359999999999999
aF-2.774
asg15
S'C'
sg16
S'C'
sg17
S''
sg18
S'CG'
sS'b'
F0
sg19
I45
sba(ichempy
Atom
(dp118
g6
S''
sg7
S''
sg8
F-0.012200000000000001
sg9
S'ASP'
sg10
S'4'
sg11
I4
sS'q'
F1
sg12
I0
sg13
(lp119
F5.1790000000000003
aF5.5170000000000003
aF-2.9740000000000002
asg15
S'H'
sg16
g26
sg17
S''
sg18
S'2HB'
sS'b'
F0
sg19
I51
sba(ichempy
Atom
(dp120
g6
S''
sg7
S''
sg8
F-0.012200000000000001
sg9
S'ASP'
sg10
S'4'
sg11
I4
sS'q'
F1
sg12
I0
sg13
(lp121
F5.4290000000000003
aF3.859
aF-2.4420000000000002
asg15
S'H'
sg16
g26
sg17
S''
sg18
g86
sS'b'
F0
sg19
I50
sba(ichempy
Atom
(dp122
g6
S''
sg7
S''
sg8
F0.29360000000000003
sg9
S'ASP'
sg10
S'4'
sg11
I4
sS'q'
F1
sg12
I0
sg13
(lp123
F3.5630000000000002
aF6.0170000000000003
aF-0.079000000000000001
asg15
S'H'
sg16
S'H'
sg17
S''
sg18
S'H'
sS'b'
F0
sg19
I48
sba(ichempy
Atom
(dp124
g6
S''
sg7
S''
sg8
F0.087999999999999995
sg9
S'ASP'
sg10
S'4'
sg11
I4
sS'q'
F1
sg12
I0
sg13
(lp125
F6.157
aF4.6950000000000003
aF-0.153
asg15
S'H'
sg16
g52
sg17
S''
sg18
S'HA'
sS'b'
F0
sg19
I49
sba(ichempy
Atom
(dp126
g6
S''
sg7
S''
sg8
F-0.51629999999999998
sg9
S'ASP'
sg10
S'4'
sg11
I4
sS'q'
F1
sg12
I0
sg13
(lp127
F4.149
aF5.1890000000000001
aF-0.44900000000000001
asg15
S'N'
sg16
S'N'
sg17
S''
sg18
S'N'
sS'b'
F0
sg19
I40
sba(ichempy
Atom
(dp128
g6
S''
sg7
S''
sg8
F-0.58189999999999997
sg9
S'ASP'
sg10
S'4'
sg11
I4
sS'q'
F1
sg12
I0
sg13
(lp129
F5.2619999999999996
aF7.6429999999999998
aF-0.17599999999999999
asg15
S'O'
sg16
S'O'
sg17
S''
sg18
S'O'
sS'b'
F0
sg19
I43
sba(ichempy
Atom
(dp130
g6
S''
sg7
S''
sg8
F-0.8014
sg9
S'ASP'
sg10
S'4'
sg11
I4
sS'q'
F1
sg12
I0
sg13
(lp131
F8.1530000000000005
aF4.6260000000000003
aF-1.9830000000000001
asg15
S'O'
sg16
S'O2'
p132
sg17
S''
sg18
S'OD1'
sS'b'
F0
sg19
I46
sba(ichempy
Atom
(dp133
g6
S''
sg7
S''
sg8
F-0.8014
sg9
S'ASP'
sg10
S'4'
sg11
I4
sS'q'
F1
sg12
I0
sg13
(lp134
F7.468
aF5.3259999999999996
aF-3.9380000000000002
asg15
S'O'
sg16
g132
sg17
S''
sg18
S'OD2'
sS'b'
F0
sg19
I47
sba(ichempy
Atom
(dp135
g6
S''
sg7
S''
sg8
F0.59730000000000005
sg9
S'ASN'
sg10
S'5'
sg11
I5
sS'q'
F1
sg12
I0
sg13
(lp136
F9.3170000000000002
aF8.3369999999999997
aF-1.179
asg15
S'C'
sg16
S'C'
sg17
S''
sg18
S'C'
sS'b'
F0
sg19
I54
sba(ichempy
Atom
(dp137
g6
S''
sg7
S''
sg8
F0.0143
sg9
S'ASN'
sg10
S'5'
sg11
I5
sS'q'
F1
sg12
I0
sg13
(lp138
F7.8659999999999997
aF8.3360000000000003
aF-0.76000000000000001
asg15
S'C'
sg16
g22
sg17
S''
sg18
S'CA'
sS'b'
F0
sg19
I53
sba(ichempy
Atom
(dp139
g6
S''
sg7
S''
sg8
F-0.2041
sg9
S'ASN'
sg10
S'5'
sg11
I5
sS'q'
F1
sg12
I0
sg13
(lp140
F7.7190000000000003
aF8.8019999999999996
aF0.71699999999999997
asg15
S'C'
sg16
g22
sg17
S''
sg18
S'CB'
sS'b'
F0
sg19
I56
sba(ichempy
Atom
(dp141
g6
S''
sg7
S''
sg8
F0.71299999999999997
sg9
S'ASN'
sg10
S'5'
sg11
I5
sS'q'
F1
sg12
I0
sg13
(lp142
F6.2990000000000004
aF8.8460000000000001
aF1.2929999999999999
asg15
S'C'
sg16
S'C'
sg17
S''
sg18
S'CG'
sS'b'
F0
sg19
I57
sba(ichempy
Atom
(dp143
g6
S''
sg7
S''
sg8
F0.41959999999999997
sg9
S'ASN'
sg10
S'5'
sg11
I5
sS'q'
F1
sg12
I0
sg13
(lp144
F4.5590000000000002
aF9.7080000000000002
aF1.2889999999999999
asg15
S'H'
sg16
S'H'
sg17
S''
sg18
S'1HD2'
sS'b'
F0
sg19
I64
sba(ichempy
Atom
(dp145
g6
S''
sg7
S''
sg8
F0.079699999999999993
sg9
S'ASN'
sg10
S'5'
sg11
I5
sS'q'
F1
sg12
I0
sg13
(lp146
F8.1799999999999997
aF9.7970000000000006
aF0.85499999999999998
asg15
S'H'
sg16
g26
sg17
S''
sg18
S'2HB'
sS'b'
F0
sg19
I63
sba(ichempy
Atom
(dp147
g6
S''
sg7
S''
sg8
F0.41959999999999997
sg9
S'ASN'
sg10
S'5'
sg11
I5
sS'q'
F1
sg12
I0
sg13
(lp148
F5.8879999999999999
aF10.523
aF0.30599999999999999
asg15
S'H'
sg16
S'H'
sg17
S''
sg18
S'2HD2'
sS'b'
F0
sg19
I65
sba(ichempy
Atom
(dp149
g6
S''
sg7
S''
sg8
F0.079699999999999993
sg9
S'ASN'
sg10
S'5'
sg11
I5
sS'q'
F1
sg12
I0
sg13
(lp150
F8.3079999999999998
aF8.1329999999999991
aF1.375
asg15
S'H'
sg16
g26
sg17
S''
sg18
g86
sS'b'
F0
sg19
I62
sba(ichempy
Atom
(dp151
g6
S''
sg7
S''
sg8
F0.27189999999999998
sg9
S'ASN'
sg10
S'5'
sg11
I5
sS'q'
F1
sg12
I0
sg13
(lp152
F7.8499999999999996
aF6.1680000000000001
aF-1.282
asg15
S'H'
sg16
S'H'
sg17
S''
sg18
S'H'
sS'b'
F0
sg19
I60
sba(ichempy
Atom
(dp153
g6
S''
sg7
S''
sg8
F0.1048
sg9
S'ASN'
sg10
S'5'
sg11
I5
sS'q'
F1
sg12
I0
sg13
(lp154
F7.3310000000000004
aF9.0340000000000007
aF-1.4299999999999999
asg15
S'H'
sg16
g52
sg17
S''
sg18
S'HA'
sS'b'
F0
sg19
I61
sba(ichempy
Atom
(dp155
g6
S''
sg7
S''
sg8
F-0.41570000000000001
sg9
S'ASN'
sg10
S'5'
sg11
I5
sS'q'
F1
sg12
I0
sg13
(lp156
F7.2789999999999999
aF7.008
aF-0.91300000000000003
asg15
S'N'
sg16
S'N'
sg17
S''
sg18
S'N'
sS'b'
F0
sg19
I52
sba(ichempy
Atom
(dp157
g6
S''
sg7
S''
sg8
F-0.91910000000000003
sg9
S'ASN'
sg10
S'5'
sg11
I5
sS'q'
F1
sg12
I0
sg13
(lp158
F5.5250000000000004
aF9.8510000000000009
aF0.98199999999999998
asg15
S'N'
sg16
S'N'
sg17
S''
sg18
S'ND2'
sS'b'
F0
sg19
I59
sba(ichempy
Atom
(dp159
g6
S''
sg7
S''
sg8
F-0.56789999999999996
sg9
S'ASN'
sg10
S'5'
sg11
I5
sS'q'
F1
sg12
I0
sg13
(lp160
F9.8789999999999996
aF7.3220000000000001
aF-1.5880000000000001
asg15
S'O'
sg16
S'O'
sg17
S''
sg18
S'O'
sS'b'
F0
sg19
I55
sba(ichempy
Atom
(dp161
g6
S''
sg7
S''
sg8
F-0.59309999999999996
sg9
S'ASN'
sg10
S'5'
sg11
I5
sS'q'
F1
sg12
I0
sg13
(lp162
F5.8609999999999998
aF7.9630000000000001
aF2.016
asg15
S'O'
sg16
S'O'
sg17
S''
sg18
S'OD1'
sS'b'
F0
sg19
I58
sba(ichempy
Atom
(dp163
g6
S''
sg7
S''
sg8
F0.59730000000000005
sg9
S'CYS'
sg10
S'6'
sg11
I6
sS'q'
F1
sg12
I0
sg13
(lp164
F11.816000000000001
aF11.065
aF-1.24
asg15
S'C'
sg16
S'C'
sg17
S''
sg18
S'C'
sS'b'
F0
sg19
I68
sba(ichempy
Atom
(dp165
g6
S''
sg7
S''
sg8
F0.021299999999999999
sg9
S'CYS'
sg10
S'6'
sg11
I6
sS'q'
F1
sg12
I0
sg13
(lp166
F11.351000000000001
aF9.6440000000000001
aF-1.45
asg15
S'C'
sg16
g22
sg17
S''
sg18
S'CA'
sS'b'
F0
sg19
I67
sba(ichempy
Atom
(dp167
g6
S''
sg7
S''
sg8
F-0.1231
sg9
S'CYS'
sg10
S'6'
sg11
I6
sS'q'
F1
sg12
I0
sg13
(lp168
F11.526999999999999
aF9.1760000000000002
aF-2.9089999999999998
asg15
S'C'
sg16
g22
sg17
S''
sg18
S'CB'
sS'b'
F0
sg19
I70
sba(ichempy
Atom
(dp169
g6
S''
sg7
S''
sg8
F0.11119999999999999
sg9
S'CYS'
sg10
S'6'
sg11
I6
sS'q'
F1
sg12
I0
sg13
(lp170
F10.964
aF9.8230000000000004
aF-3.613
asg15
S'H'
sg16
g52
sg17
S''
sg18
S'2HB'
sS'b'
F0
sg19
I75
sba(ichempy
Atom
(dp171
g6
S''
sg7
S''
sg8
F0.11119999999999999
sg9
S'CYS'
sg10
S'6'
sg11
I6
sS'q'
F1
sg12
I0
sg13
(lp172
F11.132
aF8.1539999999999999
aF-3.0499999999999998
asg15
S'H'
sg16
g52
sg17
S''
sg18
g86
sS'b'
F0
sg19
I74
sba(ichempy
Atom
(dp173
g6
S''
sg7
S''
sg8
F0.27189999999999998
sg9
S'CYS'
sg10
S'6'
sg11
I6
sS'q'
F1
sg12
I0
sg13
(lp174
F9.3599999999999994
aF10.321999999999999
aF-0.70999999999999996
asg15
S'H'
sg16
S'H'
sg17
S''
sg18
S'H'
sS'b'
F0
sg19
I72
sba(ichempy
Atom
(dp175
g6
S''
sg7
S''
sg8
F0.1124
sg9
S'CYS'
sg10
S'6'
sg11
I6
sS'q'
F1
sg12
I0
sg13
(lp176
F11.956
aF8.9990000000000006
aF-0.78700000000000003
asg15
S'H'
sg16
g52
sg17
S''
sg18
S'HA'
sS'b'
F0
sg19
I73
sba(ichempy
Atom
(dp177
g6
S''
sg7
S''
sg8
F0.1933
sg9
S'CYS'
sg10
S'6'
sg11
I6
sS'q'
F1
sg12
I0
sg13
(lp178
F13.244
aF10.26
aF-4.1289999999999996
asg15
S'H'
sg16
S'HS'
p179
sg17
S''
sg18
S'HG'
sS'b'
F0
sg19
I76
sba(ichempy
Atom
(dp180
g6
S''
sg7
S''
sg8
F-0.41570000000000001
sg9
S'CYS'
sg10
S'6'
sg11
I6
sS'q'
F1
sg12
I0
sg13
(lp181
F9.9459999999999997
aF9.4939999999999998
aF-1.081
asg15
S'N'
sg16
S'N'
sg17
S''
sg18
S'N'
sS'b'
F0
sg19
I66
sba(ichempy
Atom
(dp182
g6
S''
sg7
S''
sg8
F-0.56789999999999996
sg9
S'CYS'
sg10
S'6'
sg11
I6
sS'q'
F1
sg12
I0
sg13
(lp183
F11.06
aF11.946999999999999
aF-0.80700000000000005
asg15
S'O'
sg16
S'O'
sg17
S''
sg18
S'O'
sS'b'
F0
sg19
I69
sba(ichempy
Atom
(dp184
g6
S''
sg7
S''
sg8
F-0.31190000000000001
sg9
S'CYS'
sg10
S'6'
sg11
I6
sS'q'
F1
sg12
I0
sg13
(lp185
F13.273999999999999
aF9.1669999999999998
aF-3.371
asg15
S'S'
sg16
S'SH'
p186
sg17
S''
sg18
S'SG'
sS'b'
F0
sg19
I71
sba(ichempy
Atom
(dp187
g6
S''
sg7
S''
sg8
F0.53659999999999997
sg9
S'GLU'
sg10
S'7'
sg11
I7
sS'q'
F1
sg12
I0
sg13
(lp188
F15.114000000000001
aF12.641999999999999
aF-1.8109999999999999
asg15
S'C'
sg16
S'C'
sg17
S''
sg18
S'C'
sS'b'
F0
sg19
I79
sba(ichempy
Atom
(dp189
g6
S''
sg7
S''
sg8
F0.039699999999999999
sg9
S'GLU'
sg10
S'7'
sg11
I7
sS'q'
F1
sg12
I0
sg13
(lp190
F13.664
aF12.640000000000001
aF-1.3919999999999999
asg15
S'C'
sg16
g22
sg17
S''
sg18
S'CA'
sS'b'
F0
sg19
I78
sba(ichempy
Atom
(dp191
g6
S''
sg7
S''
sg8
F0.056000000000000001
sg9
S'GLU'
sg10
S'7'
sg11
I7
sS'q'
F1
sg12
I0
sg13
(lp192
F13.525
aF13.109999999999999
aF0.084000000000000005
asg15
S'C'
sg16
g22
sg17
S''
sg18
S'CB'
sS'b'
F0
sg19
I81
sba(ichempy
Atom
(dp193
g6
S''
sg7
S''
sg8
F0.8054
sg9
S'GLU'
sg10
S'7'
sg11
I7
sS'q'
F1
sg12
I0
sg13
(lp194
F14.016
aF15.038
aF1.827
asg15
S'C'
sg16
S'C'
sg17
S''
sg18
S'CD'
sS'b'
F0
sg19
I83
sba(ichempy
Atom
(dp195
g6
S''
sg7
S''
sg8
F0.013599999999999999
sg9
S'GLU'
sg10
S'7'
sg11
I7
sS'q'
F1
sg12
I0
sg13
(lp196
F14.066000000000001
aF14.542999999999999
aF0.39400000000000002
asg15
S'C'
sg16
g22
sg17
S''
sg18
S'CG'
sS'b'
F0
sg19
I82
sba(ichempy
Atom
(dp197
g6
S''
sg7
S''
sg8
F-0.017299999999999999
sg9
S'GLU'
sg10
S'7'
sg11
I7
sS'q'
F1
sg12
I0
sg13
(lp198
F14.035
aF12.388999999999999
aF0.75600000000000001
asg15
S'H'
sg16
g26
sg17
S''
sg18
S'2HB'
sS'b'
F0
sg19
I89
sba(ichempy
Atom
(dp199
g6
S''
sg7
S''
sg8
F-0.042500000000000003
sg9
S'GLU'
sg10
S'7'
sg11
I7
sS'q'
F1
sg12
I0
sg13
(lp200
F13.550000000000001
aF15.304
aF-0.214
asg15
S'H'
sg16
g26
sg17
S''
sg18
S'2HG'
sS'b'
F0
sg19
I91
sba(ichempy
Atom
(dp201
g6
S''
sg7
S''
sg8
F-0.017299999999999999
sg9
S'GLU'
sg10
S'7'
sg11
I7
sS'q'
F1
sg12
I0
sg13
(lp202
F12.462999999999999
aF13.067
aF0.39400000000000002
asg15
S'H'
sg16
g26
sg17
S''
sg18
g86
sS'b'
F0
sg19
I88
sba(ichempy
Atom
(dp203
g6
S''
sg7
S''
sg8
F-0.042500000000000003
sg9
S'GLU'
sg10
S'7'
sg11
I7
sS'q'
F1
sg12
I0
sg13
(lp204
F15.134
aF14.630000000000001
aF0.13700000000000001
asg15
S'H'
sg16
g26
sg17
S''
sg18
g92
sS'b'
F0
sg19
I90
sba(ichempy
Atom
(dp205
g6
S''
sg7
S''
sg8
F0.29360000000000003
sg9
S'GLU'
sg10
S'7'
sg11
I7
sS'q'
F1
sg12
I0
sg13
(lp206
F13.648
aF10.473000000000001
aF-1.9139999999999999
asg15
S'H'
sg16
S'H'
sg17
S''
sg18
S'H'
sS'b'
F0
sg19
I86
sba(ichempy
Atom
(dp207
g6
S''
sg7
S''
sg8
F0.1105
sg9
S'GLU'
sg10
S'7'
sg11
I7
sS'q'
F1
sg12
I0
sg13
(lp208
F13.119999999999999
aF13.343999999999999
aF-2.048
asg15
S'H'
sg16
g52
sg17
S''
sg18
S'HA'
sS'b'
F0
sg19
I87
sba(ichempy
Atom
(dp209
g6
S''
sg7
S''
sg8
F-0.51629999999999998
sg9
S'GLU'
sg10
S'7'
sg11
I7
sS'q'
F1
sg12
I0
sg13
(lp210
F13.077
aF11.311999999999999
aF-1.5449999999999999
asg15
S'N'
sg16
S'N'
sg17
S''
sg18
S'N'
sS'b'
F0
sg19
I77
sba(ichempy
Atom
(dp211
g6
S''
sg7
S''
sg8
F-0.58189999999999997
sg9
S'GLU'
sg10
S'7'
sg11
I7
sS'q'
F1
sg12
I0
sg13
(lp212
F15.680999999999999
aF11.619
aF-2.2229999999999999
asg15
S'O'
sg16
S'O'
sg17
S''
sg18
S'O'
sS'b'
F0
sg19
I80
sba(ichempy
Atom
(dp213
g6
S''
sg7
S''
sg8
F-0.81879999999999997
sg9
S'GLU'
sg10
S'7'
sg11
I7
sS'q'
F1
sg12
I0
sg13
(lp214
F13.535
aF14.33
aF2.7330000000000001
asg15
S'O'
sg16
g132
sg17
S''
sg18
S'OE1'
sS'b'
F0
sg19
I84
sba(ichempy
Atom
(dp215
g6
S''
sg7
S''
sg8
F-0.81879999999999997
sg9
S'GLU'
sg10
S'7'
sg11
I7
sS'q'
F1
sg12
I0
sg13
(lp216
F14.493
aF16.172000000000001
aF2.0419999999999998
asg15
S'O'
sg16
g132
sg17
S''
sg18
S'OE2'
sS'b'
F0
sg19
I85
sba(ichempy
Atom
(dp217
g6
S''
sg7
S''
sg8
F0.59730000000000005
sg9
S'GLN'
sg10
S'8'
sg11
I8
sS'q'
F1
sg12
I0
sg13
(lp218
F17.614000000000001
aF15.369
aF-1.8720000000000001
asg15
S'C'
sg16
S'C'
sg17
S''
sg18
S'C'
sS'b'
F0
sg19
I94
sba(ichempy
Atom
(dp219
g6
S''
sg7
S''
sg8
F-0.0030999999999999999
sg9
S'GLN'
sg10
S'8'
sg11
I8
sS'q'
F1
sg12
I0
sg13
(lp220
F17.148
aF13.948
aF-2.0819999999999999
asg15
S'C'
sg16
g22
sg17
S''
sg18
S'CA'
sS'b'
F0
sg19
I93
sba(ichempy
Atom
(dp221
g6
S''
sg7
S''
sg8
F-0.0035999999999999999
sg9
S'GLN'
sg10
S'8'
sg11
I8
sS'q'
F1
sg12
I0
sg13
(lp222
F17.321000000000002
aF13.522
aF-3.5569999999999999
asg15
S'C'
sg16
g22
sg17
S''
sg18
S'CB'
sS'b'
F0
sg19
I96
sba(ichempy
Atom
(dp223
g6
S''
sg7
S''
sg8
F0.69510000000000005
sg9
S'GLN'
sg10
S'8'
sg11
I8
sS'q'
F1
sg12
I0
sg13
(lp224
F19.018000000000001
aF13.221
aF-5.5979999999999999
asg15
S'C'
sg16
S'C'
sg17
S''
sg18
S'CD'
sS'b'
F0
sg19
I98
sba(ichempy
Atom
(dp225
g6
S''
sg7
S''
sg8
F-0.064500000000000002
sg9
S'GLN'
sg10
S'8'
sg11
I8
sS'q'
F1
sg12
I0
sg13
(lp226
F18.777999999999999
aF13.571999999999999
aF-4.1239999999999997
asg15
S'C'
sg16
g22
sg17
S''
sg18
S'CG'
sS'b'
F0
sg19
I97
sba(ichempy
Atom
(dp227
g6
S''
sg7
S''
sg8
F0.42509999999999998
sg9
S'GLN'
sg10
S'8'
sg11
I8
sS'q'
F1
sg12
I0
sg13
(lp228
F18.248999999999999
aF12.715
aF-7.3410000000000002
asg15
S'H'
sg16
S'H'
sg17
S''
sg18
S'1HE2'
sS'b'
F0
sg19
I107
sba(ichempy
Atom
(dp229
g6
S''
sg7
S''
sg8
F0.017100000000000001
sg9
S'GLN'
sg10
S'8'
sg11
I8
sS'q'
F1
sg12
I0
sg13
(lp230
F16.667000000000002
aF14.16
aF-4.1879999999999997
asg15
S'H'
sg16
g26
sg17
S''
sg18
S'2HB'
sS'b'
F0
sg19
I104
sba(ichempy
Atom
(dp231
g6
S''
sg7
S''
sg8
F0.42509999999999998
sg9
S'GLN'
sg10
S'8'
sg11
I8
sS'q'
F1
sg12
I0
sg13
(lp232
F17.097999999999999
aF12.901
aF-5.907
asg15
S'H'
sg16
S'H'
sg17
S''
sg18
S'2HE2'
sS'b'
F0
sg19
I108
sba(ichempy
Atom
(dp233
g6
S''
sg7
S''
sg8
F0.035200000000000002
sg9
S'GLN'
sg10
S'8'
sg11
I8
sS'q'
F1
sg12
I0
sg13
(lp234
F19.443999999999999
aF12.93
aF-3.5179999999999998
asg15
S'H'
sg16
g26
sg17
S''
sg18
S'2HG'
sS'b'
F0
sg19
I106
sba(ichempy
Atom
(dp235
g6
S''
sg7
S''
sg8
F0.017100000000000001
sg9
S'GLN'
sg10
S'8'
sg11
I8
sS'q'
F1
sg12
I0
sg13
(lp236
F16.93
aF12.493
aF-3.6800000000000002
asg15
S'H'
sg16
g26
sg17
S''
sg18
g86
sS'b'
F0
sg19
I103
sba(ichempy
Atom
(dp237
g6
S''
sg7
S''
sg8
F0.035200000000000002
sg9
S'GLN'
sg10
S'8'
sg11
I8
sS'q'
F1
sg12
I0
sg13
(lp238
F19.199000000000002
aF14.587999999999999
aF-4.0110000000000001
asg15
S'H'
sg16
g26
sg17
S''
sg18
g92
sS'b'
F0
sg19
I105
sba(ichempy
Atom
(dp239
g6
S''
sg7
S''
sg8
F0.27189999999999998
sg9
S'GLN'
sg10
S'8'
sg11
I8
sS'q'
F1
sg12
I0
sg13
(lp240
F15.223000000000001
aF14.534000000000001
aF-1.383
asg15
S'H'
sg16
S'H'
sg17
S''
sg18
S'H'
sS'b'
F0
sg19
I101
sba(ichempy
Atom
(dp241
g6
S''
sg7
S''
sg8
F0.085000000000000006
sg9
S'GLN'
sg10
S'8'
sg11
I8
sS'q'
F1
sg12
I0
sg13
(lp242
F17.759
aF13.295999999999999
aF-1.4299999999999999
asg15
S'H'
sg16
g52
sg17
S''
sg18
S'HA'
sS'b'
F0
sg19
I102
sba(ichempy
Atom
(dp243
g6
S''
sg7
S''
sg8
F-0.41570000000000001
sg9
S'GLN'
sg10
S'8'
sg11
I8
sS'q'
F1
sg12
I0
sg13
(lp244
F15.744
aF13.798
aF-1.7130000000000001
asg15
S'N'
sg16
S'N'
sg17
S''
sg18
S'N'
sS'b'
F0
sg19
I92
sba(ichempy
Atom
(dp245
g6
S''
sg7
S''
sg8
F-0.94069999999999998
sg9
S'GLN'
sg10
S'8'
sg11
I8
sS'q'
F1
sg12
I0
sg13
(lp246
F18.013000000000002
aF12.869
aF-6.359
asg15
S'N'
sg16
S'N'
sg17
S''
sg18
S'NE2'
sS'b'
F0
sg19
I100
sba(ichempy
Atom
(dp247
g6
S''
sg7
S''
sg8
F-0.56789999999999996
sg9
S'GLN'
sg10
S'8'
sg11
I8
sS'q'
F1
sg12
I0
sg13
(lp248
F16.864000000000001
aF16.244
aF-1.4430000000000001
asg15
S'O'
sg16
S'O'
sg17
S''
sg18
S'O'
sS'b'
F0
sg19
I95
sba(ichempy
Atom
(dp249
g6
S''
sg7
S''
sg8
F-0.60860000000000003
sg9
S'GLN'
sg10
S'8'
sg11
I8
sS'q'
F1
sg12
I0
sg13
(lp250
F20.134
aF13.286
aF-6.0880000000000001
asg15
S'O'
sg16
S'O'
sg17
S''
sg18
S'OE1'
sS'b'
F0
sg19
I99
sba(ichempy
Atom
(dp251
g6
S''
sg7
S''
sg8
F0.59730000000000005
sg9
S'GLY'
sg10
S'9'
sg11
I9
sS'q'
F1
sg12
I0
sg13
(lp252
F20.911999999999999
aF16.946000000000002
aF-2.4430000000000001
asg15
S'C'
sg16
S'C'
sg17
S''
sg18
S'C'
sS'b'
F0
sg19
I111
sba(ichempy
Atom
(dp253
g6
S''
sg7
S''
sg8
F-0.0252
sg9
S'GLY'
sg10
S'9'
sg11
I9
sS'q'
F1
sg12
I0
sg13
(lp254
F19.460999999999999
aF16.943999999999999
aF-2.024
asg15
S'C'
sg16
g22
sg17
S''
sg18
S'CA'
sS'b'
F0
sg19
I110
sba(ichempy
Atom
(dp255
g6
S''
sg7
S''
sg8
F0.069800000000000001
sg9
S'GLY'
sg10
S'9'
sg11
I9
sS'q'
F1
sg12
I0
sg13
(lp256
F18.905999999999999
aF17.68
aF-2.6339999999999999
asg15
S'H'
sg16
g52
sg17
S''
sg18
S'3HA'
p257
sS'b'
F0
sg19
I114
sba(ichempy
Atom
(dp258
g6
S''
sg7
S''
sg8
F0.27189999999999998
sg9
S'GLY'
sg10
S'9'
sg11
I9
sS'q'
F1
sg12
I0
sg13
(lp259
F19.445
aF14.776999999999999
aF-2.5449999999999999
asg15
S'H'
sg16
S'H'
sg17
S''
sg18
S'H'
sS'b'
F0
sg19
I113
sba(ichempy
Atom
(dp260
g6
S''
sg7
S''
sg8
F0.069800000000000001
sg9
S'GLY'
sg10
S'9'
sg11
I9
sS'q'
F1
sg12
I0
sg13
(lp261
F19.385999999999999
aF17.277000000000001
aF-0.97199999999999998
asg15
S'H'
sg16
g52
sg17
S''
sg18
S'HA'
p262
sS'b'
F0
sg19
I115
sba(ichempy
Atom
(dp263
g6
S''
sg7
S''
sg8
F-0.41570000000000001
sg9
S'GLY'
sg10
S'9'
sg11
I9
sS'q'
F1
sg12
I0
sg13
(lp264
F18.873999999999999
aF15.616
aF-2.1760000000000002
asg15
S'N'
sg16
S'N'
sg17
S''
sg18
S'N'
sS'b'
F0
sg19
I109
sba(ichempy
Atom
(dp265
g6
S''
sg7
S''
sg8
F-0.56789999999999996
sg9
S'GLY'
sg10
S'9'
sg11
I9
sS'q'
F1
sg12
I0
sg13
(lp266
F21.472000000000001
aF15.933
aF-2.851
asg15
S'O'
sg16
S'O'
sg17
S''
sg18
S'O'
sS'b'
F0
sg19
I112
sba(ichempy
Atom
(dp267
g6
S''
sg7
S''
sg8
F0.59730000000000005
sg9
S'HIE'
sg10
S'10'
sg11
I10
sS'q'
F1
sg12
I0
sg13
(lp268
F23.411000000000001
aF19.673999999999999
aF-2.504
asg15
S'C'
sg16
S'C'
sg17
S''
sg18
S'C'
sS'b'
F0
sg19
I118
sba(ichempy
Atom
(dp269
g6
S''
sg7
S''
sg8
F-0.058099999999999999
sg9
S'HIE'
sg10
S'10'
sg11
I10
sS'q'
F1
sg12
I0
sg13
(lp270
F22.946000000000002
aF18.253
aF-2.714
asg15
S'C'
sg16
g22
sg17
S''
sg18
S'CA'
sS'b'
F0
sg19
I117
sba(ichempy
Atom
(dp271
g6
S''
sg7
S''
sg8
F-0.0074000000000000003
sg9
S'HIE'
sg10
S'10'
sg11
I10
sS'q'
F1
sg12
I0
sg13
(lp272
F23.045000000000002
aF17.870999999999999
aF-4.2000000000000002
asg15
S'C'
sg16
g22
sg17
S''
sg18
S'CB'
sS'b'
F0
sg19
I120
sba(ichempy
Atom
(dp273
g6
S''
sg7
S''
sg8
F-0.22070000000000001
sg9
S'HIE'
sg10
S'10'
sg11
I10
sS'q'
F1
sg12
I0
sg13
(lp274
F23.501000000000001
aF15.387
aF-4.4279999999999999
asg15
S'C'
sg16
S'CW'
p275
sg17
S''
sg18
S'CD2'
sS'b'
F0
sg19
I125
sba(ichempy
Atom
(dp276
g6
S''
sg7
S''
sg8
F0.16350000000000001
sg9
S'HIE'
sg10
S'10'
sg11
I10
sS'q'
F1
sg12
I0
sg13
(lp277
F25.600999999999999
aF15.452
aF-4.7839999999999998
asg15
S'C'
sg16
S'CR'
p278
sg17
S''
sg18
S'CE1'
sS'b'
F0
sg19
I123
sba(ichempy
Atom
(dp279
g6
S''
sg7
S''
sg8
F0.18679999999999999
sg9
S'HIE'
sg10
S'10'
sg11
I10
sS'q'
F1
sg12
I0
sg13
(lp280
F23.954000000000001
aF16.699000000000002
aF-4.4279999999999999
asg15
S'C'
sg16
S'CC'
p281
sg17
S''
sg18
S'CG'
sS'b'
F0
sg19
I121
sba(ichempy
Atom
(dp282
g6
S''
sg7
S''
sg8
F0.14349999999999999
sg9
S'HIE'
sg10
S'10'
sg11
I10
sS'q'
F1
sg12
I0
sg13
(lp283
F26.629000000000001
aF15.172000000000001
aF-4.9770000000000003
asg15
S'H'
sg16
S'H5'
p284
sg17
S''
sg18
S'1HE'
p285
sS'b'
F0
sg19
I130
sba(ichempy
Atom
(dp286
g6
S''
sg7
S''
sg8
F0.036700000000000003
sg9
S'HIE'
sg10
S'10'
sg11
I10
sS'q'
F1
sg12
I0
sg13
(lp287
F23.422999999999998
aF18.718
aF-4.8070000000000004
asg15
S'H'
sg16
g26
sg17
S''
sg18
S'2HB'
sS'b'
F0
sg19
I129
sba(ichempy
Atom
(dp288
g6
S''
sg7
S''
sg8
F0.1862
sg9
S'HIE'
sg10
S'10'
sg11
I10
sS'q'
F1
sg12
I0
sg13
(lp289
F22.468
aF15.092000000000001
aF-4.2679999999999998
asg15
S'H'
sg16
S'H4'
p290
sg17
S''
sg18
S'2HD'
p291
sS'b'
F0
sg19
I132
sba(ichempy
Atom
(dp292
g6
S''
sg7
S''
sg8
F0.33389999999999997
sg9
S'HIE'
sg10
S'10'
sg11
I10
sS'q'
F1
sg12
I0
sg13
(lp293
F24.591999999999999
aF13.539
aF-4.7249999999999996
asg15
S'H'
sg16
S'H'
sg17
S''
sg18
S'2HE'
p294
sS'b'
F0
sg19
I131
sba(ichempy
Atom
(dp295
g6
S''
sg7
S''
sg8
F0.036700000000000003
sg9
S'HIE'
sg10
S'10'
sg11
I10
sS'q'
F1
sg12
I0
sg13
(lp296
F22.055
aF17.617999999999999
aF-4.6340000000000003
asg15
S'H'
sg16
g26
sg17
S''
sg18
g86
sS'b'
F0
sg19
I128
sba(ichempy
Atom
(dp297
g6
S''
sg7
S''
sg8
F0.27189999999999998
sg9
S'HIE'
sg10
S'10'
sg11
I10
sS'q'
F1
sg12
I0
sg13
(lp298
F20.954999999999998
aF18.93
aF-1.974
asg15
S'H'
sg16
S'H'
sg17
S''
sg18
S'H'
sS'b'
F0
sg19
I126
sba(ichempy
Atom
(dp299
g6
S''
sg7
S''
sg8
F0.13600000000000001
sg9
S'HIE'
sg10
S'10'
sg11
I10
sS'q'
F1
sg12
I0
sg13
(lp300
F23.539999999999999
aF17.620999999999999
aF-2.0329999999999999
asg15
S'H'
sg16
g52
sg17
S''
sg18
S'HA'
sS'b'
F0
sg19
I127
sba(ichempy
Atom
(dp301
g6
S''
sg7
S''
sg8
F-0.41570000000000001
sg9
S'HIE'
sg10
S'10'
sg11
I10
sS'q'
F1
sg12
I0
sg13
(lp302
F21.541
aF18.102
aF-2.3439999999999999
asg15
S'N'
sg16
S'N'
sg17
S''
sg18
S'N'
sS'b'
F0
sg19
I116
sba(ichempy
Atom
(dp303
g6
S''
sg7
S''
sg8
F-0.54320000000000002
sg9
S'HIE'
sg10
S'10'
sg11
I10
sS'q'
F1
sg12
I0
sg13
(lp304
F25.324999999999999
aF16.765000000000001
aF-4.6630000000000003
asg15
S'N'
sg16
S'NB'
p305
sg17
S''
sg18
S'ND1'
sS'b'
F0
sg19
I122
sba(ichempy
Atom
(dp306
g6
S''
sg7
S''
sg8
F-0.27950000000000003
sg9
S'HIE'
sg10
S'10'
sg11
I10
sS'q'
F1
sg12
I0
sg13
(lp307
F24.574000000000002
aF14.567
aF-4.6619999999999999
asg15
S'N'
sg16
S'NA'
p308
sg17
S''
sg18
S'NE2'
sS'b'
F0
sg19
I124
sba(ichempy
Atom
(dp309
g6
S''
sg7
S''
sg8
F-0.56789999999999996
sg9
S'HIE'
sg10
S'10'
sg11
I10
sS'q'
F1
sg12
I0
sg13
(lp310
F22.655000000000001
aF20.556000000000001
aF-2.0710000000000002
asg15
S'O'
sg16
S'O'
sg17
S''
sg18
S'O'
sS'b'
F0
sg19
I119
sba(ichempy
Atom
(dp311
g6
S''
sg7
S''
sg8
F0.59730000000000005
sg9
S'HID'
sg10
S'11'
sg11
I11
sS'q'
F1
sg12
I0
sg13
(lp312
F26.709
aF21.25
aF-3.0750000000000002
asg15
S'C'
sg16
S'C'
sg17
S''
sg18
S'C'
sS'b'
F0
sg19
I135
sba(ichempy
Atom
(dp313
g6
S''
sg7
S''
sg8
F0.018800000000000001
sg9
S'HID'
sg10
S'11'
sg11
I11
sS'q'
F1
sg12
I0
sg13
(lp314
F25.259
aF21.248999999999999
aF-2.6560000000000001
asg15
S'C'
sg16
g22
sg17
S''
sg18
S'CA'
sS'b'
F0
sg19
I134
sba(ichempy
Atom
(dp315
g6
S''
sg7
S''
sg8
F-0.046199999999999998
sg9
S'HID'
sg10
S'11'
sg11
I11
sS'q'
F1
sg12
I0
sg13
(lp316
F25.071000000000002
aF21.759
aF-1.1930000000000001
asg15
S'C'
sg16
g22
sg17
S''
sg18
S'CB'
sS'b'
F0
sg19
I137
sba(ichempy
Atom
(dp317
g6
S''
sg7
S''
sg8
F0.12920000000000001
sg9
S'HID'
sg10
S'11'
sg11
I11
sS'q'
F1
sg12
I0
sg13
(lp318
F22.934999999999999
aF23.192
aF-0.871
asg15
S'C'
sg16
S'CV'
p319
sg17
S''
sg18
S'CD2'
sS'b'
F0
sg19
I142
sba(ichempy
Atom
(dp320
g6
S''
sg7
S''
sg8
F0.20569999999999999
sg9
S'HID'
sg10
S'11'
sg11
I11
sS'q'
F1
sg12
I0
sg13
(lp321
F23.777999999999999
aF25.114999999999998
aF-0.85999999999999999
asg15
S'C'
sg16
g278
sg17
S''
sg18
S'CE1'
sS'b'
F0
sg19
I140
sba(ichempy
Atom
(dp322
g6
S''
sg7
S''
sg8
F-0.026599999999999999
sg9
S'HID'
sg10
S'11'
sg11
I11
sS'q'
F1
sg12
I0
sg13
(lp323
F24.326000000000001
aF23.082000000000001
aF-1.0229999999999999
asg15
S'C'
sg16
g281
sg17
S''
sg18
S'CG'
sS'b'
F0
sg19
I138
sba(ichempy
Atom
(dp324
g6
S''
sg7
S''
sg8
F0.3649
sg9
S'HID'
sg10
S'11'
sg11
I11
sS'q'
F1
sg12
I0
sg13
(lp325
F25.870000000000001
aF24.617999999999999
aF-1.139
asg15
S'H'
sg16
S'H'
sg17
S''
sg18
S'1HD'
p326
sS'b'
F0
sg19
I147
sba(ichempy
Atom
(dp327
g6
S''
sg7
S''
sg8
F0.13919999999999999
sg9
S'HID'
sg10
S'11'
sg11
I11
sS'q'
F1
sg12
I0
sg13
(lp328
F23.864999999999998
aF26.193000000000001
aF-0.83199999999999996
asg15
S'H'
sg16
g284
sg17
S''
sg18
g285
sS'b'
F0
sg19
I148
sba(ichempy
Atom
(dp329
g6
S''
sg7
S''
sg8
F0.0402
sg9
S'HID'
sg10
S'11'
sg11
I11
sS'q'
F1
sg12
I0
sg13
(lp330
F26.053000000000001
aF21.864999999999998
aF-0.68799999999999994
asg15
S'H'
sg16
g26
sg17
S''
sg18
S'2HB'
sS'b'
F0
sg19
I146
sba(ichempy
Atom
(dp331
g6
S''
sg7
S''
sg8
F0.1147
sg9
S'HID'
sg10
S'11'
sg11
I11
sS'q'
F1
sg12
I0
sg13
(lp332
F22.254000000000001
aF22.353000000000002
aF-0.84999999999999998
asg15
S'H'
sg16
g290
sg17
S''
sg18
g291
sS'b'
F0
sg19
I149
sba(ichempy
Atom
(dp333
g6
S''
sg7
S''
sg8
F0.0402
sg9
S'HID'
sg10
S'11'
sg11
I11
sS'q'
F1
sg12
I0
sg13
(lp334
F24.565000000000001
aF21.001000000000001
aF-0.56200000000000006
asg15
S'H'
sg16
g26
sg17
S''
sg18
g86
sS'b'
F0
sg19
I145
sba(ichempy
Atom
(dp335
g6
S''
sg7
S''
sg8
F0.27189999999999998
sg9
S'HID'
sg10
S'11'
sg11
I11
sS'q'
F1
sg12
I0
sg13
(lp336
F25.242999999999999
aF19.081
aF-3.177
asg15
S'H'
sg16
S'H'
sg17
S''
sg18
S'H'
sS'b'
F0
sg19
I143
sba(ichempy
Atom
(dp337
g6
S''
sg7
S''
sg8
F0.088099999999999998
sg9
S'HID'
sg10
S'11'
sg11
I11
sS'q'
F1
sg12
I0
sg13
(lp338
F24.751999999999999
aF21.896999999999998
aF-3.391
asg15
S'H'
sg16
g52
sg17
S''
sg18
S'HA'
sS'b'
F0
sg19
I144
sba(ichempy
Atom
(dp339
g6
S''
sg7
S''
sg8
F-0.41570000000000001
sg9
S'HID'
sg10
S'11'
sg11
I11
sS'q'
F1
sg12
I0
sg13
(lp340
F24.672000000000001
aF19.920000000000002
aF-2.8079999999999998
asg15
S'N'
sg16
S'N'
sg17
S''
sg18
S'N'
sS'b'
F0
sg19
I133
sba(ichempy
Atom
(dp341
g6
S''
sg7
S''
sg8
F-0.38109999999999999
sg9
S'HID'
sg10
S'11'
sg11
I11
sS'q'
F1
sg12
I0
sg13
(lp342
F24.890000000000001
aF24.341999999999999
aF-1.0089999999999999
asg15
S'N'
sg16
g308
sg17
S''
sg18
S'ND1'
sS'b'
F0
sg19
I139
sba(ichempy
Atom
(dp343
g6
S''
sg7
S''
sg8
F-0.57269999999999999
sg9
S'HID'
sg10
S'11'
sg11
I11
sS'q'
F1
sg12
I0
sg13
(lp344
F22.547000000000001
aF24.521000000000001
aF-0.76100000000000001
asg15
S'N'
sg16
g305
sg17
S''
sg18
S'NE2'
sS'b'
F0
sg19
I141
sba(ichempy
Atom
(dp345
g6
S''
sg7
S''
sg8
F-0.56789999999999996
sg9
S'HID'
sg10
S'11'
sg11
I11
sS'q'
F1
sg12
I0
sg13
(lp346
F27.280000000000001
aF20.219000000000001
aF-3.4900000000000002
asg15
S'O'
sg16
S'O'
sg17
S''
sg18
S'O'
sS'b'
F0
sg19
I136
sba(ichempy
Atom
(dp347
g6
S''
sg7
S''
sg8
F0.73409999999999997
sg9
S'HIP'
sg10
S'12'
sg11
I12
sS'q'
F1
sg12
I0
sg13
(lp348
F29.209
aF23.978000000000002
aF-3.1349999999999998
asg15
S'C'
sg16
S'C'
sg17
S''
sg18
S'C'
sS'b'
F0
sg19
I152
sba(ichempy
Atom
(dp349
g6
S''
sg7
S''
sg8
F-0.13539999999999999
sg9
S'HIP'
sg10
S'12'
sg11
I12
sS'q'
F1
sg12
I0
sg13
(lp350
F28.742999999999999
aF22.556999999999999
aF-3.3450000000000002
asg15
S'C'
sg16
g22
sg17
S''
sg18
S'CA'
sS'b'
F0
sg19
I151
sba(ichempy
Atom
(dp351
g6
S''
sg7
S''
sg8
F-0.041399999999999999
sg9
S'HIP'
sg10
S'12'
sg11
I12
sS'q'
F1
sg12
I0
sg13
(lp352
F28.899999999999999
aF22.097999999999999
aF-4.8330000000000002
asg15
S'C'
sg16
g22
sg17
S''
sg18
S'CB'
sS'b'
F0
sg19
I154
sba(ichempy
Atom
(dp353
g6
S''
sg7
S''
sg8
F-0.11409999999999999
sg9
S'HIP'
sg10
S'12'
sg11
I12
sS'q'
F1
sg12
I0
sg13
(lp354
F29.414999999999999
aF19.565999999999999
aF-5.0899999999999999
asg15
S'C'
sg16
g275
sg17
S''
sg18
S'CD2'
sS'b'
F0
sg19
I159
sba(ichempy
Atom
(dp355
g6
S''
sg7
S''
sg8
F-0.017000000000000001
sg9
S'HIP'
sg10
S'12'
sg11
I12
sS'q'
F1
sg12
I0
sg13
(lp356
F31.501999999999999
aF19.66
aF-5.5119999999999996
asg15
S'C'
sg16
g278
sg17
S''
sg18
S'CE1'
sS'b'
F0
sg19
I157
sba(ichempy
Atom
(dp357
g6
S''
sg7
S''
sg8
F-0.0011999999999999999
sg9
S'HIP'
sg10
S'12'
sg11
I12
sS'q'
F1
sg12
I0
sg13
(lp358
F29.826000000000001
aF20.913
aF-5.101
asg15
S'C'
sg16
g281
sg17
S''
sg18
S'CG'
sS'b'
F0
sg19
I155
sba(ichempy
Atom
(dp359
g6
S''
sg7
S''
sg8
F0.3866
sg9
S'HIP'
sg10
S'12'
sg11
I12
sS'q'
F1
sg12
I0
sg13
(lp360
F31.797000000000001
aF21.808
aF-5.399
asg15
S'H'
sg16
S'H'
sg17
S''
sg18
g326
sS'b'
F0
sg19
I164
sba(ichempy
Atom
(dp361
g6
S''
sg7
S''
sg8
F0.2681
sg9
S'HIP'
sg10
S'12'
sg11
I12
sS'q'
F1
sg12
I0
sg13
(lp362
F32.527999999999999
aF19.356000000000002
aF-5.7229999999999999
asg15
S'H'
sg16
g284
sg17
S''
sg18
g285
sS'b'
F0
sg19
I165
sba(ichempy
Atom
(dp363
g6
S''
sg7
S''
sg8
F0.081000000000000003
sg9
S'HIP'
sg10
S'12'
sg11
I12
sS'q'
F1
sg12
I0
sg13
(lp364
F29.236000000000001
aF22.943999999999999
aF-5.4649999999999999
asg15
S'H'
sg16
g26
sg17
S''
sg18
S'2HB'
sS'b'
F0
sg19
I163
sba(ichempy
Atom
(dp365
g6
S''
sg7
S''
sg8
F0.23169999999999999
sg9
S'HIP'
sg10
S'12'
sg11
I12
sS'q'
F1
sg12
I0
sg13
(lp366
F28.396999999999998
aF19.242000000000001
aF-4.8890000000000002
asg15
S'H'
sg16
g290
sg17
S''
sg18
g291
sS'b'
F0
sg19
I167
sba(ichempy
Atom
(dp367
g6
S''
sg7
S''
sg8
F0.3911
sg9
S'HIP'
sg10
S'12'
sg11
I12
sS'q'
F1
sg12
I0
sg13
(lp368
F30.545000000000002
aF17.707999999999998
aF-5.4160000000000004
asg15
S'H'
sg16
S'H'
sg17
S''
sg18
g294
sS'b'
F0
sg19
I166
sba(ichempy
Atom
(dp369
g6
S''
sg7
S''
sg8
F0.081000000000000003
sg9
S'HIP'
sg10
S'12'
sg11
I12
sS'q'
F1
sg12
I0
sg13
(lp370
F27.914000000000001
aF21.864000000000001
aF-5.2869999999999999
asg15
S'H'
sg16
g26
sg17
S''
sg18
g86
sS'b'
F0
sg19
I162
sba(ichempy
Atom
(dp371
g6
S''
sg7
S''
sg8
F0.2747
sg9
S'HIP'
sg10
S'12'
sg11
I12
sS'q'
F1
sg12
I0
sg13
(lp372
F26.753
aF23.234999999999999
aF-2.605
asg15
S'H'
sg16
S'H'
sg17
S''
sg18
S'H'
sS'b'
F0
sg19
I160
sba(ichempy
Atom
(dp373
g6
S''
sg7
S''
sg8
F0.1212
sg9
S'HIP'
sg10
S'12'
sg11
I12
sS'q'
F1
sg12
I0
sg13
(lp374
F29.334
aF21.952000000000002
aF-2.6360000000000001
asg15
S'H'
sg16
g52
sg17
S''
sg18
S'HA'
sS'b'
F0
sg19
I161
sba(ichempy
Atom
(dp375
g6
S''
sg7
S''
sg8
F-0.34789999999999999
sg9
S'HIP'
sg10
S'12'
sg11
I12
sS'q'
F1
sg12
I0
sg13
(lp376
F27.338999999999999
aF22.407
aF-2.976
asg15
S'N'
sg16
S'N'
sg17
S''
sg18
S'N'
sS'b'
F0
sg19
I150
sba(ichempy
Atom
(dp377
g6
S''
sg7
S''
sg8
F-0.15129999999999999
sg9
S'HIP'
sg10
S'12'
sg11
I12
sS'q'
F1
sg12
I0
sg13
(lp378
F31.183
aF20.983000000000001
aF-5.3789999999999996
asg15
S'N'
sg16
g308
sg17
S''
sg18
S'ND1'
sS'b'
F0
sg19
I156
sba(ichempy
Atom
(dp379
g6
S''
sg7
S''
sg8
F-0.17180000000000001
sg9
S'HIP'
sg10
S'12'
sg11
I12
sS'q'
F1
sg12
I0
sg13
(lp380
F30.5
aF18.734999999999999
aF-5.3609999999999998
asg15
S'N'
sg16
g308
sg17
S''
sg18
S'NE2'
sS'b'
F0
sg19
I158
sba(ichempy
Atom
(dp381
g6
S''
sg7
S''
sg8
F-0.58940000000000003
sg9
S'HIP'
sg10
S'12'
sg11
I12
sS'q'
F1
sg12
I0
sg13
(lp382
F28.452000000000002
aF24.859999999999999
aF-2.702
asg15
S'O'
sg16
S'O'
sg17
S''
sg18
S'O'
sS'b'
F0
sg19
I153
sba(ichempy
Atom
(dp383
g6
S''
sg7
S''
sg8
F0.59730000000000005
sg9
S'ILE'
sg10
S'13'
sg11
I13
sS'q'
F1
sg12
I0
sg13
(lp384
F32.506999999999998
aF25.555
aF-3.706
asg15
S'C'
sg16
S'C'
sg17
S''
sg18
S'C'
sS'b'
F0
sg19
I170
sba(ichempy
Atom
(dp385
g6
S''
sg7
S''
sg8
F-0.059700000000000003
sg9
S'ILE'
sg10
S'13'
sg11
I13
sS'q'
F1
sg12
I0
sg13
(lp386
F31.056000000000001
aF25.553000000000001
aF-3.2869999999999999
asg15
S'C'
sg16
g22
sg17
S''
sg18
S'CA'
sS'b'
F0
sg19
I169
sba(ichempy
Atom
(dp387
g6
S''
sg7
S''
sg8
F0.1303
sg9
S'ILE'
sg10
S'13'
sg11
I13
sS'q'
F1
sg12
I0
sg13
(lp388
F30.867999999999999
aF26.100000000000001
aF-1.8140000000000001
asg15
S'C'
sg16
g22
sg17
S''
sg18
S'CB'
sS'b'
F0
sg19
I172
sba(ichempy
Atom
(dp389
g6
S''
sg7
S''
sg8
F-0.066000000000000003
sg9
S'ILE'
sg10
S'13'
sg11
I13
sS'q'
F1
sg12
I0
sg13
(lp390
F29.222000000000001
aF26.271999999999998
aF0.23200000000000001
asg15
S'C'
sg16
g22
sg17
S''
sg18
S'CD1'
sS'b'
F0
sg19
I175
sba(ichempy
Atom
(dp391
g6
S''
sg7
S''
sg8
F-0.042999999999999997
sg9
S'ILE'
sg10
S'13'
sg11
I13
sS'q'
F1
sg12
I0
sg13
(lp392
F29.398
aF26.056999999999999
aF-1.2849999999999999
asg15
S'C'
sg16
g22
sg17
S''
sg18
S'CG1'
sS'b'
F0
sg19
I173
sba(ichempy
Atom
(dp393
g6
S''
sg7
S''
sg8
F-0.32040000000000002
sg9
S'ILE'
sg10
S'13'
sg11
I13
sS'q'
F1
sg12
I0
sg13
(lp394
F31.404
aF27.555
aF-1.6359999999999999
asg15
S'C'
sg16
g22
sg17
S''
sg18
S'CG2'
sS'b'
F0
sg19
I174
sba(ichempy
Atom
(dp395
g6
S''
sg7
S''
sg8
F0.018599999999999998
sg9
S'ILE'
sg10
S'13'
sg11
I13
sS'q'
F1
sg12
I0
sg13
(lp396
F29.811
aF25.544
aF0.82099999999999995
asg15
S'H'
sg16
g26
sg17
S''
sg18
S'1HD1'
sS'b'
F0
sg19
I184
sba(ichempy
Atom
(dp397
g6
S''
sg7
S''
sg8
F0.088200000000000001
sg9
S'ILE'
sg10
S'13'
sg11
I13
sS'q'
F1
sg12
I0
sg13
(lp398
F32.476999999999997
aF27.655000000000001
aF-1.8740000000000001
asg15
S'H'
sg16
g26
sg17
S''
sg18
S'1HG2'
sS'b'
F0
sg19
I181
sba(ichempy
Atom
(dp399
g6
S''
sg7
S''
sg8
F0.018599999999999998
sg9
S'ILE'
sg10
S'13'
sg11
I13
sS'q'
F1
sg12
I0
sg13
(lp400
F29.529
aF27.283000000000001
aF0.55400000000000005
asg15
S'H'
sg16
g26
sg17
S''
sg18
S'2HD1'
sS'b'
F0
sg19
I185
sba(ichempy
Atom
(dp401
g6
S''
sg7
S''
sg8
F0.023599999999999999
sg9
S'ILE'
sg10
S'13'
sg11
I13
sS'q'
F1
sg12
I0
sg13
(lp402
F28.957000000000001
aF25.065999999999999
aF-1.5029999999999999
asg15
S'H'
sg16
g26
sg17
S''
sg18
S'2HG1'
sS'b'
F0
sg19
I180
sba(ichempy
Atom
(dp403
g6
S''
sg7
S''
sg8
F0.088200000000000001
sg9
S'ILE'
sg10
S'13'
sg11
I13
sS'q'
F1
sg12
I0
sg13
(lp404
F30.856999999999999
aF28.280000000000001
aF-2.2669999999999999
asg15
S'H'
sg16
g26
sg17
S''
sg18
S'2HG2'
sS'b'
F0
sg19
I182
sba(ichempy
Atom
(dp405
g6
S''
sg7
S''
sg8
F0.018599999999999998
sg9
S'ILE'
sg10
S'13'
sg11
I13
sS'q'
F1
sg12
I0
sg13
(lp406
F28.164999999999999
aF26.154
aF0.53200000000000003
asg15
S'H'
sg16
g26
sg17
S''
sg18
S'3HD1'
sS'b'
F0
sg19
I186
sba(ichempy
Atom
(dp407
g6
S''
sg7
S''
sg8
F0.023599999999999999
sg9
S'ILE'
sg10
S'13'
sg11
I13
sS'q'
F1
sg12
I0
sg13
(lp408
F28.766999999999999
aF26.77
aF-1.8480000000000001
asg15
S'H'
sg16
g26
sg17
S''
sg18
S'3HG1'
p409
sS'b'
F0
sg19
I179
sba(ichempy
Atom
(dp410
g6
S''
sg7
S''
sg8
F0.088200000000000001
sg9
S'ILE'
sg10
S'13'
sg11
I13
sS'q'
F1
sg12
I0
sg13
(lp411
F31.321000000000002
aF27.908999999999999
aF-0.59299999999999997
asg15
S'H'
sg16
g26
sg17
S''
sg18
S'3HG2'
sS'b'
F0
sg19
I183
sba(ichempy
Atom
(dp412
g6
S''
sg7
S''
sg8
F0.27189999999999998
sg9
S'ILE'
sg10
S'13'
sg11
I13
sS'q'
F1
sg12
I0
sg13
(lp413
F31.039999999999999
aF23.385999999999999
aF-3.8090000000000002
asg15
S'H'
sg16
S'H'
sg17
S''
sg18
S'H'
sS'b'
F0
sg19
I176
sba(ichempy
Atom
(dp414
g6
S''
sg7
S''
sg8
F0.086900000000000005
sg9
S'ILE'
sg10
S'13'
sg11
I13
sS'q'
F1
sg12
I0
sg13
(lp415
F30.529
aF26.233000000000001
aF-3.9809999999999999
asg15
S'H'
sg16
g52
sg17
S''
sg18
S'HA'
sS'b'
F0
sg19
I177
sba(ichempy
Atom
(dp416
g6
S''
sg7
S''
sg8
F0.018700000000000001
sg9
S'ILE'
sg10
S'13'
sg11
I13
sS'q'
F1
sg12
I0
sg13
(lp417
F31.466000000000001
aF25.439
aF-1.151
asg15
S'H'
sg16
g26
sg17
S''
sg18
S'HB'
sS'b'
F0
sg19
I178
sba(ichempy
Atom
(dp418
g6
S''
sg7
S''
sg8
F-0.41570000000000001
sg9
S'ILE'
sg10
S'13'
sg11
I13
sS'q'
F1
sg12
I0
sg13
(lp419
F30.469000000000001
aF24.225000000000001
aF-3.4399999999999999
asg15
S'N'
sg16
S'N'
sg17
S''
sg18
S'N'
sS'b'
F0
sg19
I168
sba(ichempy
Atom
(dp420
g6
S''
sg7
S''
sg8
F-0.56789999999999996
sg9
S'ILE'
sg10
S'13'
sg11
I13
sS'q'
F1
sg12
I0
sg13
(lp421
F33.073
aF24.530999999999999
aF-4.1180000000000003
asg15
S'O'
sg16
S'O'
sg17
S''
sg18
S'O'
sS'b'
F0
sg19
I171
sba(ichempy
Atom
(dp422
g6
S''
sg7
S''
sg8
F0.59730000000000005
sg9
S'LEU'
sg10
S'14'
sg11
I14
sS'q'
F1
sg12
I0
sg13
(lp423
F35.006
aF28.282
aF-3.7669999999999999
asg15
S'C'
sg16
S'C'
sg17
S''
sg18
S'C'
sS'b'
F0
sg19
I189
sba(ichempy
Atom
(dp424
g6
S''
sg7
S''
sg8
F-0.051799999999999999
sg9
S'LEU'
sg10
S'14'
sg11
I14
sS'q'
F1
sg12
I0
sg13
(lp425
F34.540999999999997
aF26.861000000000001
aF-3.9769999999999999
asg15
S'C'
sg16
g22
sg17
S''
sg18
S'CA'
sS'b'
F0
sg19
I188
sba(ichempy
Atom
(dp426
g6
S''
sg7
S''
sg8
F-0.11020000000000001
sg9
S'LEU'
sg10
S'14'
sg11
I14
sS'q'
F1
sg12
I0
sg13
(lp427
F34.768999999999998
aF26.414000000000001
aF-5.4489999999999998
asg15
S'C'
sg16
g22
sg17
S''
sg18
S'CB'
sS'b'
F0
sg19
I191
sba(ichempy
Atom
(dp428
g6
S''
sg7
S''
sg8
F-0.41210000000000002
sg9
S'LEU'
sg10
S'14'
sg11
I14
sS'q'
F1
sg12
I0
sg13
(lp429
F34.779000000000003
aF24.683
aF-7.2960000000000003
asg15
S'C'
sg16
g22
sg17
S''
sg18
S'CD1'
sS'b'
F0
sg19
I193
sba(ichempy
Atom
(dp430
g6
S''
sg7
S''
sg8
F-0.41210000000000002
sg9
S'LEU'
sg10
S'14'
sg11
I14
sS'q'
F1
sg12
I0
sg13
(lp431
F35.005000000000003
aF23.908000000000001
aF-4.9169999999999998
asg15
S'C'
sg16
g22
sg17
S''
sg18
S'CD2'
sS'b'
F0
sg19
I194
sba(ichempy
Atom
(dp432
g6
S''
sg7
S''
sg8
F0.35310000000000002
sg9
S'LEU'
sg10
S'14'
sg11
I14
sS'q'
F1
sg12
I0
sg13
(lp433
F34.377000000000002
aF24.963999999999999
aF-5.8410000000000002
asg15
S'C'
sg16
g22
sg17
S''
sg18
S'CG'
sS'b'
F0
sg19
I192
sba(ichempy
Atom
(dp434
g6
S''
sg7
S''
sg8
F0.10000000000000001
sg9
S'LEU'
sg10
S'14'
sg11
I14
sS'q'
F1
sg12
I0
sg13
(lp435
F34.311
aF25.399000000000001
aF-7.9980000000000002
asg15
S'H'
sg16
g26
sg17
S''
sg18
S'1HD1'
sS'b'
F0
sg19
I200
sba(ichempy
Atom
(dp436
g6
S''
sg7
S''
sg8
F0.10000000000000001
sg9
S'LEU'
sg10
S'14'
sg11
I14
sS'q'
F1
sg12
I0
sg13
(lp437
F36.106999999999999
aF23.988
aF-4.8769999999999998
asg15
S'H'
sg16
g26
sg17
S''
sg18
S'1HD2'
sS'b'
F0
sg19
I203
sba(ichempy
Atom
(dp438
g6
S''
sg7
S''
sg8
F0.045699999999999998
sg9
S'LEU'
sg10
S'14'
sg11
I14
sS'q'
F1
sg12
I0
sg13
(lp439
F35.837000000000003
aF26.564
aF-5.7000000000000002
asg15
S'H'
sg16
g26
sg17
S''
sg18
S'2HB'
sS'b'
F0
sg19
I198
sba(ichempy
Atom
(dp440
g6
S''
sg7
S''
sg8
F0.10000000000000001
sg9
S'LEU'
sg10
S'14'
sg11
I14
sS'q'
F1
sg12
I0
sg13
(lp441
F35.874000000000002
aF24.745999999999999
aF-7.4480000000000004
asg15
S'H'
sg16
g26
sg17
S''
sg18
S'2HD1'
sS'b'
F0
sg19
I201
sba(ichempy
Atom
(dp442
g6
S''
sg7
S''
sg8
F0.10000000000000001
sg9
S'LEU'
sg10
S'14'
sg11
I14
sS'q'
F1
sg12
I0
sg13
(lp443
F34.630000000000003
aF24.007999999999999
aF-3.8809999999999998
asg15
S'H'
sg16
g26
sg17
S''
sg18
S'2HD2'
sS'b'
F0
sg19
I204
sba(ichempy
Atom
(dp444
g6
S''
sg7
S''
sg8
F0.045699999999999998
sg9
S'LEU'
sg10
S'14'
sg11
I14
sS'q'
F1
sg12
I0
sg13
(lp445
F34.225000000000001
aF27.109999999999999
aF-6.1200000000000001
asg15
S'H'
sg16
g26
sg17
S''
sg18
g86
sS'b'
F0
sg19
I197
sba(ichempy
Atom
(dp446
g6
S''
sg7
S''
sg8
F0.10000000000000001
sg9
S'LEU'
sg10
S'14'
sg11
I14
sS'q'
F1
sg12
I0
sg13
(lp447
F34.463000000000001
aF23.672999999999998
aF-7.6189999999999998
asg15
S'H'
sg16
g26
sg17
S''
sg18
S'3HD1'
sS'b'
F0
sg19
I202
sba(ichempy
Atom
(dp448
g6
S''
sg7
S''
sg8
F0.10000000000000001
sg9
S'LEU'
sg10
S'14'
sg11
I14
sS'q'
F1
sg12
I0
sg13
(lp449
F34.753999999999998
aF22.879000000000001
aF-5.234
asg15
S'H'
sg16
g26
sg17
S''
sg18
S'3HD2'
sS'b'
F0
sg19
I205
sba(ichempy
Atom
(dp450
g6
S''
sg7
S''
sg8
F0.27189999999999998
sg9
S'LEU'
sg10
S'14'
sg11
I14
sS'q'
F1
sg12
I0
sg13
(lp451
F32.579999999999998
aF27.497
aF-3.2559999999999998
asg15
S'H'
sg16
S'H'
sg17
S''
sg18
S'H'
sS'b'
F0
sg19
I195
sba(ichempy
Atom
(dp452
g6
S''
sg7
S''
sg8
F0.092200000000000004
sg9
S'LEU'
sg10
S'14'
sg11
I14
sS'q'
F1
sg12
I0
sg13
(lp453
F35.149000000000001
aF26.233000000000001
aF-3.302
asg15
S'H'
sg16
g52
sg17
S''
sg18
S'HA'
sS'b'
F0
sg19
I196
sba(ichempy
Atom
(dp454
g6
S''
sg7
S''
sg8
F-0.0361
sg9
S'LEU'
sg10
S'14'
sg11
I14
sS'q'
F1
sg12
I0
sg13
(lp455
F33.273000000000003
aF24.873999999999999
aF-5.7709999999999999
asg15
S'H'
sg16
g26
sg17
S''
sg18
S'HG'
sS'b'
F0
sg19
I199
sba(ichempy
Atom
(dp456
g6
S''
sg7
S''
sg8
F-0.41570000000000001
sg9
S'LEU'
sg10
S'14'
sg11
I14
sS'q'
F1
sg12
I0
sg13
(lp457
F33.136000000000003
aF26.710999999999999
aF-3.6080000000000001
asg15
S'N'
sg16
S'N'
sg17
S''
sg18
S'N'
sS'b'
F0
sg19
I187
sba(ichempy
Atom
(dp458
g6
S''
sg7
S''
sg8
F-0.56789999999999996
sg9
S'LEU'
sg10
S'14'
sg11
I14
sS'q'
F1
sg12
I0
sg13
(lp459
F34.25
aF29.164000000000001
aF-3.3340000000000001
asg15
S'O'
sg16
S'O'
sg17
S''
sg18
S'O'
sS'b'
F0
sg19
I190
sba(ichempy
Atom
(dp460
g6
S''
sg7
S''
sg8
F0.73409999999999997
sg9
S'LYS'
sg10
S'15'
sg11
I15
sS'q'
F1
sg12
I0
sg13
(lp461
F38.304000000000002
aF29.859000000000002
aF-4.3380000000000001
asg15
S'C'
sg16
S'C'
sg17
S''
sg18
S'C'
sS'b'
F0
sg19
I208
sba(ichempy
Atom
(dp462
g6
S''
sg7
S''
sg8
F-0.23999999999999999
sg9
S'LYS'
sg10
S'15'
sg11
I15
sS'q'
F1
sg12
I0
sg13
(lp463
F36.853999999999999
aF29.856999999999999
aF-3.919
asg15
S'C'
sg16
g22
sg17
S''
sg18
S'CA'
sS'b'
F0
sg19
I207
sba(ichempy
Atom
(dp464
g6
S''
sg7
S''
sg8
F-0.0094000000000000004
sg9
S'LYS'
sg10
S'15'
sg11
I15
sS'q'
F1
sg12
I0
sg13
(lp465
F36.710999999999999
aF30.356999999999999
aF-2.4500000000000002
asg15
S'C'
sg16
g22
sg17
S''
sg18
S'CB'
sS'b'
F0
sg19
I210
sba(ichempy
Atom
(dp466
g6
S''
sg7
S''
sg8
F-0.047899999999999998
sg9
S'LYS'
sg10
S'15'
sg11
I15
sS'q'
F1
sg12
I0
sg13
(lp467
F37.219999999999999
aF32.284999999999997
aF-0.76300000000000001
asg15
S'C'
sg16
g22
sg17
S''
sg18
S'CD'
sS'b'
F0
sg19
I212
sba(ichempy
Atom
(dp468
g6
S''
sg7
S''
sg8
F-0.0143
sg9
S'LYS'
sg10
S'15'
sg11
I15
sS'q'
F1
sg12
I0
sg13
(lp469
F37.874000000000002
aF33.679000000000002
aF-0.67000000000000004
asg15
S'C'
sg16
g22
sg17
S''
sg18
S'CE'
sS'b'
F0
sg19
I213
sba(ichempy
Atom
(dp470
g6
S''
sg7
S''
sg8
F0.018700000000000001
sg9
S'LYS'
sg10
S'15'
sg11
I15
sS'q'
F1
sg12
I0
sg13
(lp471
F37.253999999999998
aF31.797000000000001
aF-2.218
asg15
S'C'
sg16
g22
sg17
S''
sg18
S'CG'
sS'b'
F0
sg19
I211
sba(ichempy
Atom
(dp472
g6
S''
sg7
S''
sg8
F0.34000000000000002
sg9
S'LYS'
sg10
S'15'
sg11
I15
sS'q'
F1
sg12
I0
sg13
(lp473
F36.875
aF34.189
aF1.1160000000000001
asg15
S'H'
sg16
S'H'
sg17
S''
sg18
S'1HZ'
sS'b'
F0
sg19
I225
sba(ichempy
Atom
(dp474
g6
S''
sg7
S''
sg8
F0.036200000000000003
sg9
S'LYS'
sg10
S'15'
sg11
I15
sS'q'
F1
sg12
I0
sg13
(lp475
F37.225000000000001
aF29.640000000000001
aF-1.776
asg15
S'H'
sg16
g26
sg17
S''
sg18
S'2HB'
sS'b'
F0
sg19
I218
sba(ichempy
Atom
(dp476
g6
S''
sg7
S''
sg8
F0.062100000000000002
sg9
S'LYS'
sg10
S'15'
sg11
I15
sS'q'
F1
sg12
I0
sg13
(lp477
F37.756999999999998
aF31.550999999999998
aF-0.125
asg15
S'H'
sg16
g26
sg17
S''
sg18
S'2HD'
sS'b'
F0
sg19
I222
sba(ichempy
Atom
(dp478
g6
S''
sg7
S''
sg8
F0.1135
sg9
S'LYS'
sg10
S'15'
sg11
I15
sS'q'
F1
sg12
I0
sg13
(lp479
F37.354999999999997
aF34.395000000000003
aF-1.3520000000000001
asg15
S'H'
sg16
S'HP'
p480
sg17
S''
sg18
S'2HE'
sS'b'
F0
sg19
I224
sba(ichempy
Atom
(dp481
g6
S''
sg7
S''
sg8
F0.0103
sg9
S'LYS'
sg10
S'15'
sg11
I15
sS'q'
F1
sg12
I0
sg13
(lp482
F36.713999999999999
aF32.500999999999998
aF-2.8849999999999998
asg15
S'H'
sg16
g26
sg17
S''
sg18
S'2HG'
sS'b'
F0
sg19
I220
sba(ichempy
Atom
(dp483
g6
S''
sg7
S''
sg8
F0.34000000000000002
sg9
S'LYS'
sg10
S'15'
sg11
I15
sS'q'
F1
sg12
I0
sg13
(lp484
F38.345999999999997
aF33.520000000000003
aF1.381
asg15
S'H'
sg16
S'H'
sg17
S''
sg18
S'2HZ'
sS'b'
F0
sg19
I226
sba(ichempy
Atom
(dp485
g6
S''
sg7
S''
sg8
F0.036200000000000003
sg9
S'LYS'
sg10
S'15'
sg11
I15
sS'q'
F1
sg12
I0
sg13
(lp486
F35.645000000000003
aF30.306999999999999
aF-2.1509999999999998
asg15
S'H'
sg16
g26
sg17
S''
sg18
g86
sS'b'
F0
sg19
I217
sba(ichempy
Atom
(dp487
g6
S''
sg7
S''
sg8
F0.062100000000000002
sg9
S'LYS'
sg10
S'15'
sg11
I15
sS'q'
F1
sg12
I0
sg13
(lp488
F36.170999999999999
aF32.292000000000002
aF-0.40400000000000003
asg15
S'H'
sg16
g26
sg17
S''
sg18
g89
sS'b'
F0
sg19
I221
sba(ichempy
Atom
(dp489
g6
S''
sg7
S''
sg8
F0.1135
sg9
S'LYS'
sg10
S'15'
sg11
I15
sS'q'
F1
sg12
I0
sg13
(lp490
F38.923000000000002
aF33.643000000000001
aF-1.0529999999999999
asg15
S'H'
sg16
g480
sg17
S''
sg18
S'3HE'
p491
sS'b'
F0
sg19
I223
sba(ichempy
Atom
(dp492
g6
S''
sg7
S''
sg8
F0.0103
sg9
S'LYS'
sg10
S'15'
sg11
I15
sS'q'
F1
sg12
I0
sg13
(lp493
F38.313000000000002
aF31.850000000000001
aF-2.5379999999999998
asg15
S'H'
sg16
g26
sg17
S''
sg18
g92
sS'b'
F0
sg19
I219
sba(ichempy
Atom
(dp494
g6
S''
sg7
S''
sg8
F0.34000000000000002
sg9
S'LYS'
sg10
S'15'
sg11
I15
sS'q'
F1
sg12
I0
sg13
(lp495
F38.235999999999997
aF35.082000000000001
aF0.88400000000000001
asg15
S'H'
sg16
S'H'
sg17
S''
sg18
S'3HZ'
sS'b'
F0
sg19
I227
sba(ichempy
Atom
(dp496
g6
S''
sg7
S''
sg8
F0.2747
sg9
S'LYS'
sg10
S'15'
sg11
I15
sS'q'
F1
sg12
I0
sg13
(lp497
F36.838000000000001
aF27.690000000000001
aF-4.4400000000000004
asg15
S'H'
sg16
S'H'
sg17
S''
sg18
S'H'
sS'b'
F0
sg19
I215
sba(ichempy
Atom
(dp498
g6
S''
sg7
S''
sg8
F0.1426
sg9
S'LYS'
sg10
S'15'
sg11
I15
sS'q'
F1
sg12
I0
sg13
(lp499
F36.317
aF30.545999999999999
aF-4.5990000000000002
asg15
S'H'
sg16
g52
sg17
S''
sg18
S'HA'
sS'b'
F0
sg19
I216
sba(ichempy
Atom
(dp500
g6
S''
sg7
S''
sg8
F-0.34789999999999999
sg9
S'LYS'
sg10
S'15'
sg11
I15
sS'q'
F1
sg12
I0
sg13
(lp501
F36.267000000000003
aF28.529
aF-4.0709999999999997
asg15
S'N'
sg16
S'N'
sg17
S''
sg18
S'N'
sS'b'
F0
sg19
I206
sba(ichempy
Atom
(dp502
g6
S''
sg7
S''
sg8
F-0.38540000000000002
sg9
S'LYS'
sg10
S'15'
sg11
I15
sS'q'
F1
sg12
I0
sg13
(lp503
F37.834000000000003
aF34.146000000000001
aF0.74399999999999999
asg15
S'N'
sg16
S'N3'
p504
sg17
S''
sg18
S'NZ'
sS'b'
F0
sg19
I214
sba(ichempy
Atom
(dp505
g6
S''
sg7
S''
sg8
F-0.58940000000000003
sg9
S'LYS'
sg10
S'15'
sg11
I15
sS'q'
F1
sg12
I0
sg13
(lp506
F38.866
aF28.844999999999999
aF-4.7460000000000004
asg15
S'O'
sg16
S'O'
sg17
S''
sg18
S'O'
sS'b'
F0
sg19
I209
sba(ichempy
Atom
(dp507
g6
S''
sg7
S''
sg8
F0.59730000000000005
sg9
S'MET'
sg10
S'16'
sg11
I16
sS'q'
F1
sg12
I0
sg13
(lp508
F40.804000000000002
aF32.587000000000003
aF-4.399
asg15
S'C'
sg16
S'C'
sg17
S''
sg18
S'C'
sS'b'
F0
sg19
I230
sba(ichempy
Atom
(dp509
g6
S''
sg7
S''
sg8
F-0.023699999999999999
sg9
S'MET'
sg10
S'16'
sg11
I16
sS'q'
F1
sg12
I0
sg13
(lp510
F40.338000000000001
aF31.166
aF-4.609
asg15
S'C'
sg16
g22
sg17
S''
sg18
S'CA'
sS'b'
F0
sg19
I229
sba(ichempy
Atom
(dp511
g6
S''
sg7
S''
sg8
F0.034200000000000001
sg9
S'MET'
sg10
S'16'
sg11
I16
sS'q'
F1
sg12
I0
sg13
(lp512
F40.545000000000002
aF30.727
aF-6.085
asg15
S'C'
sg16
g22
sg17
S''
sg18
S'CB'
sS'b'
F0
sg19
I232
sba(ichempy
Atom
(dp513
g6
S''
sg7
S''
sg8
F-0.053600000000000002
sg9
S'MET'
sg10
S'16'
sg11
I16
sS'q'
F1
sg12
I0
sg13
(lp514
F39.966999999999999
aF27.262
aF-8.2460000000000004
asg15
S'C'
sg16
g22
sg17
S''
sg18
S'CE'
sS'b'
F0
sg19
I235
sba(ichempy
Atom
(dp515
g6
S''
sg7
S''
sg8
F0.0018
sg9
S'MET'
sg10
S'16'
sg11
I16
sS'q'
F1
sg12
I0
sg13
(lp516
F40.234999999999999
aF29.248000000000001
aF-6.3970000000000002
asg15
S'C'
sg16
g22
sg17
S''
sg18
S'CG'
sS'b'
F0
sg19
I233
sba(ichempy
Atom
(dp517
g6
S''
sg7
S''
sg8
F0.068400000000000002
sg9
S'MET'
sg10
S'16'
sg11
I16
sS'q'
F1
sg12
I0
sg13
(lp518
F40.241999999999997
aF26.57
aF-7.4299999999999997
asg15
S'H'
sg16
g52
sg17
S''
sg18
S'1HE'
sS'b'
F0
sg19
I242
sba(ichempy
Atom
(dp519
g6
S''
sg7
S''
sg8
F0.0241
sg9
S'MET'
sg10
S'16'
sg11
I16
sS'q'
F1
sg12
I0
sg13
(lp520
F41.594000000000001
aF30.920000000000002
aF-6.3810000000000002
asg15
S'H'
sg16
g26
sg17
S''
sg18
S'2HB'
sS'b'
F0
sg19
I239
sba(ichempy
Atom
(dp521
g6
S''
sg7
S''
sg8
F0.068400000000000002
sg9
S'MET'
sg10
S'16'
sg11
I16
sS'q'
F1
sg12
I0
sg13
(lp522
F38.871000000000002
aF27.401
aF-8.2300000000000004
asg15
S'H'
sg16
g52
sg17
S''
sg18
S'2HE'
sS'b'
F0
sg19
I243
sba(ichempy
Atom
(dp523
g6
S''
sg7
S''
sg8
F0.043999999999999997
sg9
S'MET'
sg10
S'16'
sg11
I16
sS'q'
F1
sg12
I0
sg13
(lp524
F39.146000000000001
aF29.065000000000001
aF-6.327
asg15
S'H'
sg16
g52
sg17
S''
sg18
S'2HG'
sS'b'
F0
sg19
I241
sba(ichempy
Atom
(dp525
g6
S''
sg7
S''
sg8
F0.0241
sg9
S'MET'
sg10
S'16'
sg11
I16
sS'q'
F1
sg12
I0
sg13
(lp526
F39.938000000000002
aF31.367999999999999
aF-6.7560000000000002
asg15
S'H'
sg16
g26
sg17
S''
sg18
g86
sS'b'
F0
sg19
I238
sba(ichempy
Atom
(dp527
g6
S''
sg7
S''
sg8
F0.068400000000000002
sg9
S'MET'
sg10
S'16'
sg11
I16
sS'q'
F1
sg12
I0
sg13
(lp528
F40.240000000000002
aF26.792000000000002
aF-9.2070000000000007
asg15
S'H'
sg16
g52
sg17
S''
sg18
S'3HE'
sS'b'
F0
sg19
I244
sba(ichempy
Atom
(dp529
g6
S''
sg7
S''
sg8
F0.043999999999999997
sg9
S'MET'
sg10
S'16'
sg11
I16
sS'q'
F1
sg12
I0
sg13
(lp530
F40.719000000000001
aF28.568000000000001
aF-5.6719999999999997
asg15
S'H'
sg16
g52
sg17
S''
sg18
g92
sS'b'
F0
sg19
I240
sba(ichempy
Atom
(dp531
g6
S''
sg7
S''
sg8
F0.27189999999999998
sg9
S'MET'
sg10
S'16'
sg11
I16
sS'q'
F1
sg12
I0
sg13
(lp532
F38.347999999999999
aF31.843
aF-3.8690000000000002
asg15
S'H'
sg16
S'H'
sg17
S''
sg18
S'H'
sS'b'
F0
sg19
I236
sba(ichempy
Atom
(dp533
g6
S''
sg7
S''
sg8
F0.087999999999999995
sg9
S'MET'
sg10
S'16'
sg11
I16
sS'q'
F1
sg12
I0
sg13
(lp534
F40.948
aF30.523
aF-3.9470000000000001
asg15
S'H'
sg16
g52
sg17
S''
sg18
S'HA'
sS'b'
F0
sg19
I237
sba(ichempy
Atom
(dp535
g6
S''
sg7
S''
sg8
F-0.41570000000000001
sg9
S'MET'
sg10
S'16'
sg11
I16
sS'q'
F1
sg12
I0
sg13
(lp536
F38.933999999999997
aF31.015000000000001
aF-4.2389999999999999
asg15
S'N'
sg16
S'N'
sg17
S''
sg18
S'N'
sS'b'
F0
sg19
I228
sba(ichempy
Atom
(dp537
g6
S''
sg7
S''
sg8
F-0.56789999999999996
sg9
S'MET'
sg10
S'16'
sg11
I16
sS'q'
F1
sg12
I0
sg13
(lp538
F40.046999999999997
aF33.469000000000001
aF-3.9660000000000002
asg15
S'O'
sg16
S'O'
sg17
S''
sg18
S'O'
sS'b'
F0
sg19
I231
sba(ichempy
Atom
(dp539
g6
S''
sg7
S''
sg8
F-0.2737
sg9
S'MET'
sg10
S'16'
sg11
I16
sS'q'
F1
sg12
I0
sg13
(lp540
F40.801000000000002
aF28.844000000000001
aF-8.0579999999999998
asg15
S'S'
sg16
S'S'
sg17
S''
sg18
S'SD'
sS'b'
F0
sg19
I234
sba(ichempy
Atom
(dp541
g6
S''
sg7
S''
sg8
F0.59730000000000005
sg9
S'PHE'
sg10
S'17'
sg11
I17
sS'q'
F1
sg12
I0
sg13
(lp542
F44.101999999999997
aF34.164000000000001
aF-4.9699999999999998
asg15
S'C'
sg16
S'C'
sg17
S''
sg18
S'C'
sS'b'
F0
sg19
I247
sba(ichempy
Atom
(dp543
g6
S''
sg7
S''
sg8
F-0.0023999999999999998
sg9
S'PHE'
sg10
S'17'
sg11
I17
sS'q'
F1
sg12
I0
sg13
(lp544
F42.651000000000003
aF34.161999999999999
aF-4.5510000000000002
asg15
S'C'
sg16
g22
sg17
S''
sg18
S'CA'
sS'b'
F0
sg19
I246
sba(ichempy
Atom
(dp545
g6
S''
sg7
S''
sg8
F-0.034299999999999997
sg9
S'PHE'
sg10
S'17'
sg11
I17
sS'q'
F1
sg12
I0
sg13
(lp546
F42.555999999999997
aF34.621000000000002
aF-3.0640000000000001
asg15
S'C'
sg16
g22
sg17
S''
sg18
S'CB'
sS'b'
F0
sg19
I249
sba(ichempy
Atom
(dp547
g6
S''
sg7
S''
sg8
F-0.12559999999999999
sg9
S'PHE'
sg10
S'17'
sg11
I17
sS'q'
F1
sg12
I0
sg13
(lp548
F40.606999999999999
aF33.540999999999997
aF-1.8480000000000001
asg15
S'C'
sg16
g69
sg17
S''
sg18
S'CD1'
sS'b'
F0
sg19
I251
sba(ichempy
Atom
(dp549
g6
S''
sg7
S''
sg8
F-0.12559999999999999
sg9
S'PHE'
sg10
S'17'
sg11
I17
sS'q'
F1
sg12
I0
sg13
(lp550
F40.372999999999998
aF35.838999999999999
aF-2.5550000000000002
asg15
S'C'
sg16
g69
sg17
S''
sg18
S'CD2'
sS'b'
F0
sg19
I255
sba(ichempy
Atom
(dp551
g6
S''
sg7
S''
sg8
F-0.1704
sg9
S'PHE'
sg10
S'17'
sg11
I17
sS'q'
F1
sg12
I0
sg13
(lp552
F39.304000000000002
aF33.554000000000002
aF-1.363
asg15
S'C'
sg16
g69
sg17
S''
sg18
S'CE1'
sS'b'
F0
sg19
I252
sba(ichempy
Atom
(dp553
g6
S''
sg7
S''
sg8
F-0.1704
sg9
S'PHE'
sg10
S'17'
sg11
I17
sS'q'
F1
sg12
I0
sg13
(lp554
F39.070999999999998
aF35.853999999999999
aF-2.0600000000000001
asg15
S'C'
sg16
g69
sg17
S''
sg18
S'CE2'
sS'b'
F0
sg19
I254
sba(ichempy
Atom
(dp555
g6
S''
sg7
S''
sg8
F0.0118
sg9
S'PHE'
sg10
S'17'
sg11
I17
sS'q'
F1
sg12
I0
sg13
(lp556
F41.146999999999998
aF34.68
aF-2.4550000000000001
asg15
S'C'
sg16
g69
sg17
S''
sg18
S'CG'
sS'b'
F0
sg19
I250
sba(ichempy
Atom
(dp557
g6
S''
sg7
S''
sg8
F-0.1072
sg9
S'PHE'
sg10
S'17'
sg11
I17
sS'q'
F1
sg12
I0
sg13
(lp558
F38.536000000000001
aF34.712000000000003
aF-1.4670000000000001
asg15
S'C'
sg16
g69
sg17
S''
sg18
S'CZ'
sS'b'
F0
sg19
I253
sba(ichempy
Atom
(dp559
g6
S''
sg7
S''
sg8
F0.13300000000000001
sg9
S'PHE'
sg10
S'17'
sg11
I17
sS'q'
F1
sg12
I0
sg13
(lp560
F41.186999999999998
aF32.628
aF-1.7909999999999999
asg15
S'H'
sg16
g262
sg17
S''
sg18
g326
sS'b'
F0
sg19
I260
sba(ichempy
Atom
(dp561
g6
S''
sg7
S''
sg8
F0.14299999999999999
sg9
S'PHE'
sg10
S'17'
sg11
I17
sS'q'
F1
sg12
I0
sg13
(lp562
F38.886000000000003
aF32.658999999999999
aF-0.92400000000000004
asg15
S'H'
sg16
g262
sg17
S''
sg18
g285
sS'b'
F0
sg19
I261
sba(ichempy
Atom
(dp563
g6
S''
sg7
S''
sg8
F0.029499999999999998
sg9
S'PHE'
sg10
S'17'
sg11
I17
sS'q'
F1
sg12
I0
sg13
(lp564
F43.026000000000003
aF35.619
aF-2.9569999999999999
asg15
S'H'
sg16
g26
sg17
S''
sg18
S'2HB'
sS'b'
F0
sg19
I259
sba(ichempy
Atom
(dp565
g6
S''
sg7
S''
sg8
F0.13300000000000001
sg9
S'PHE'
sg10
S'17'
sg11
I17
sS'q'
F1
sg12
I0
sg13
(lp566
F40.774000000000001
aF36.722000000000001
aF-3.032
asg15
S'H'
sg16
g262
sg17
S''
sg18
g291
sS'b'
F0
sg19
I264
sba(ichempy
Atom
(dp567
g6
S''
sg7
S''
sg8
F0.14299999999999999
sg9
S'PHE'
sg10
S'17'
sg11
I17
sS'q'
F1
sg12
I0
sg13
(lp568
F38.473999999999997
aF36.75
aF-2.1459999999999999
asg15
S'H'
sg16
g262
sg17
S''
sg18
g294
sS'b'
F0
sg19
I263
sba(ichempy
Atom
(dp569
g6
S''
sg7
S''
sg8
F0.029499999999999998
sg9
S'PHE'
sg10
S'17'
sg11
I17
sS'q'
F1
sg12
I0
sg13
(lp570
F43.192
aF33.966999999999999
aF-2.4319999999999999
asg15
S'H'
sg16
g26
sg17
S''
sg18
g86
sS'b'
F0
sg19
I258
sba(ichempy
Atom
(dp571
g6
S''
sg7
S''
sg8
F0.27189999999999998
sg9
S'PHE'
sg10
S'17'
sg11
I17
sS'q'
F1
sg12
I0
sg13
(lp572
F42.634999999999998
aF31.994
aF-5.0720000000000001
asg15
S'H'
sg16
S'H'
sg17
S''
sg18
S'H'
sS'b'
F0
sg19
I256
sba(ichempy
Atom
(dp573
g6
S''
sg7
S''
sg8
F0.097799999999999998
sg9
S'PHE'
sg10
S'17'
sg11
I17
sS'q'
F1
sg12
I0
sg13
(lp574
F42.106000000000002
aF34.871000000000002
aF-5.2000000000000002
asg15
S'H'
sg16
g52
sg17
S''
sg18
S'HA'
sS'b'
F0
sg19
I257
sba(ichempy
Atom
(dp575
g6
S''
sg7
S''
sg8
F0.12970000000000001
sg9
S'PHE'
sg10
S'17'
sg11
I17
sS'q'
F1
sg12
I0
sg13
(lp576
F37.523000000000003
aF34.718000000000004
aF-1.0960000000000001
asg15
S'H'
sg16
g262
sg17
S''
sg18
S'HZ'
sS'b'
F0
sg19
I262
sba(ichempy
Atom
(dp577
g6
S''
sg7
S''
sg8
F-0.41570000000000001
sg9
S'PHE'
sg10
S'17'
sg11
I17
sS'q'
F1
sg12
I0
sg13
(lp578
F42.064
aF32.834000000000003
aF-4.7030000000000003
asg15
S'N'
sg16
S'N'
sg17
S''
sg18
S'N'
sS'b'
F0
sg19
I245
sba(ichempy
Atom
(dp579
g6
S''
sg7
S''
sg8
F-0.56789999999999996
sg9
S'PHE'
sg10
S'17'
sg11
I17
sS'q'
F1
sg12
I0
sg13
(lp580
F44.679000000000002
aF33.121000000000002
aF-5.3890000000000002
asg15
S'O'
sg16
S'O'
sg17
S''
sg18
S'O'
sS'b'
F0
sg19
I248
sba(ichempy
Atom
(dp581
g6
S''
sg7
S''
sg8
F0.58960000000000001
sg9
S'PRO'
sg10
S'18'
sg11
I18
sS'q'
F1
sg12
I0
sg13
(lp582
F47.063000000000002
aF34.790999999999997
aF-4.2279999999999998
asg15
S'C'
sg16
S'C'
sg17
S''
sg18
S'C'
sS'b'
F0
sg19
I267
sba(ichempy
Atom
(dp583
g6
S''
sg7
S''
sg8
F-0.026599999999999999
sg9
S'PRO'
sg10
S'18'
sg11
I18
sS'q'
F1
sg12
I0
sg13
(lp584
F46.130000000000003
aF35.481999999999999
aF-5.2359999999999998
asg15
S'C'
sg16
g22
sg17
S''
sg18
S'CA'
sS'b'
F0
sg19
I266
sba(ichempy
Atom
(dp585
g6
S''
sg7
S''
sg8
F-0.0070000000000000001
sg9
S'PRO'
sg10
S'18'
sg11
I18
sS'q'
F1
sg12
I0
sg13
(lp586
F46.280000000000001
aF37.011000000000003
aF-5.2430000000000003
asg15
S'C'
sg16
g22
sg17
S''
sg18
S'CB'
sS'b'
F0
sg19
I269
sba(ichempy
Atom
(dp587
g6
S''
sg7
S''
sg8
F0.019199999999999998
sg9
S'PRO'
sg10
S'18'
sg11
I18
sS'q'
F1
sg12
I0
sg13
(lp588
F44.076999999999998
aF36.524000000000001
aF-4.407
asg15
S'C'
sg16
g22
sg17
S''
sg18
S'CD'
sS'b'
F0
sg19
I271
sba(ichempy
Atom
(dp589
g6
S''
sg7
S''
sg8
F0.0189
sg9
S'PRO'
sg10
S'18'
sg11
I18
sS'q'
F1
sg12
I0
sg13
(lp590
F45.253999999999998
aF37.479999999999997
aF-4.2000000000000002
asg15
S'C'
sg16
g22
sg17
S''
sg18
S'CG'
sS'b'
F0
sg19
I270
sba(ichempy
Atom
(dp591
g6
S''
sg7
S''
sg8
F0.0253
sg9
S'PRO'
sg10
S'18'
sg11
I18
sS'q'
F1
sg12
I0
sg13
(lp592
F45.991999999999997
aF37.390999999999998
aF-6.226
asg15
S'H'
sg16
g26
sg17
S''
sg18
S'2HB'
sS'b'
F0
sg19
I274
sba(ichempy
Atom
(dp593
g6
S''
sg7
S''
sg8
F0.039100000000000003
sg9
S'PRO'
sg10
S'18'
sg11
I18
sS'q'
F1
sg12
I0
sg13
(lp594
F43.402999999999999
aF36.896000000000001
aF-5.1829999999999998
asg15
S'H'
sg16
g52
sg17
S''
sg18
S'2HD'
sS'b'
F0
sg19
I278
sba(ichempy
Atom
(dp595
g6
S''
sg7
S''
sg8
F0.021299999999999999
sg9
S'PRO'
sg10
S'18'
sg11
I18
sS'q'
F1
sg12
I0
sg13
(lp596
F44.966999999999999
aF38.524000000000001
aF-4.335
asg15
S'H'
sg16
g26
sg17
S''
sg18
S'2HG'
sS'b'
F0
sg19
I276
sba(ichempy
Atom
(dp597
g6
S''
sg7
S''
sg8
F0.0253
sg9
S'PRO'
sg10
S'18'
sg11
I18
sS'q'
F1
sg12
I0
sg13
(lp598
F47.296999999999997
aF37.340000000000003
aF-5.016
asg15
S'H'
sg16
g26
sg17
S''
sg18
g86
sS'b'
F0
sg19
I273
sba(ichempy
Atom
(dp599
g6
S''
sg7
S''
sg8
F0.039100000000000003
sg9
S'PRO'
sg10
S'18'
sg11
I18
sS'q'
F1
sg12
I0
sg13
(lp600
F43.526000000000003
aF36.341000000000001
aF-3.4820000000000002
asg15
S'H'
sg16
g52
sg17
S''
sg18
g89
sS'b'
F0
sg19
I277
sba(ichempy
Atom
(dp601
g6
S''
sg7
S''
sg8
F0.021299999999999999
sg9
S'PRO'
sg10
S'18'
sg11
I18
sS'q'
F1
sg12
I0
sg13
(lp602
F45.662999999999997
aF37.341000000000001
aF-3.1960000000000002
asg15
S'H'
sg16
g26
sg17
S''
sg18
g92
sS'b'
F0
sg19
I275
sba(ichempy
Atom
(dp603
g6
S''
sg7
S''
sg8
F0.064100000000000004
sg9
S'PRO'
sg10
S'18'
sg11
I18
sS'q'
F1
sg12
I0
sg13
(lp604
F46.317
aF35.067
aF-6.2290000000000001
asg15
S'H'
sg16
g52
sg17
S''
sg18
S'HA'
sS'b'
F0
sg19
I272
sba(ichempy
Atom
(dp605
g6
S''
sg7
S''
sg8
F-0.25480000000000003
sg9
S'PRO'
sg10
S'18'
sg11
I18
sS'q'
F1
sg12
I0
sg13
(lp606
F44.731000000000002
aF35.32
aF-4.8710000000000004
asg15
S'N'
sg16
S'N'
sg17
S''
sg18
S'N'
sS'b'
F0
sg19
I265
sba(ichempy
Atom
(dp607
g6
S''
sg7
S''
sg8
F-0.57479999999999998
sg9
S'PRO'
sg10
S'18'
sg11
I18
sS'q'
F1
sg12
I0
sg13
(lp608
F46.597999999999999
aF34.186999999999998
aF-3.2599999999999998
asg15
S'O'
sg16
S'O'
sg17
S''
sg18
S'O'
sS'b'
F0
sg19
I268
sba(ichempy
Atom
(dp609
g6
S''
sg7
S''
sg8
F0.59730000000000005
sg9
S'SER'
sg10
S'19'
sg11
I19
sS'q'
F1
sg12
I0
sg13
(lp610
F50.728000000000002
aF34.399000000000001
aF-3.903
asg15
S'C'
sg16
S'C'
sg17
S''
sg18
S'C'
sS'b'
F0
sg19
I281
sba(ichempy
Atom
(dp611
g6
S''
sg7
S''
sg8
F-0.024899999999999999
sg9
S'SER'
sg10
S'19'
sg11
I19
sS'q'
F1
sg12
I0
sg13
(lp612
F49.295999999999999
aF34.194000000000003
aF-3.4689999999999999
asg15
S'C'
sg16
g22
sg17
S''
sg18
S'CA'
sS'b'
F0
sg19
I280
sba(ichempy
Atom
(dp613
g6
S''
sg7
S''
sg8
F0.2117
sg9
S'SER'
sg10
S'19'
sg11
I19
sS'q'
F1
sg12
I0
sg13
(lp614
F48.960000000000001
aF32.691000000000003
aF-3.3050000000000002
asg15
S'C'
sg16
g22
sg17
S''
sg18
S'CB'
sS'b'
F0
sg19
I283
sba(ichempy
Atom
(dp615
g6
S''
sg7
S''
sg8
F0.035200000000000002
sg9
S'SER'
sg10
S'19'
sg11
I19
sS'q'
F1
sg12
I0
sg13
(lp616
F47.899999999999999
aF32.546999999999997
aF-3.016
asg15
S'H'
sg16
g52
sg17
S''
sg18
S'2HB'
sS'b'
F0
sg19
I288
sba(ichempy
Atom
(dp617
g6
S''
sg7
S''
sg8
F0.035200000000000002
sg9
S'SER'
sg10
S'19'
sg11
I19
sS'q'
F1
sg12
I0
sg13
(lp618
F49.543999999999997
aF32.268000000000001
aF-2.4649999999999999
asg15
S'H'
sg16
g52
sg17
S''
sg18
g86
sS'b'
F0
sg19
I287
sba(ichempy
Atom
(dp619
g6
S''
sg7
S''
sg8
F0.27189999999999998
sg9
S'SER'
sg10
S'19'
sg11
I19
sS'q'
F1
sg12
I0
sg13
(lp620
F48.716000000000001
aF35.372999999999998
aF-5.2699999999999996
asg15
S'H'
sg16
S'H'
sg17
S''
sg18
S'H'
sS'b'
F0
sg19
I285
sba(ichempy
Atom
(dp621
g6
S''
sg7
S''
sg8
F0.0843
sg9
S'SER'
sg10
S'19'
sg11
I19
sS'q'
F1
sg12
I0
sg13
(lp622
F49.186
aF34.686999999999998
aF-2.4860000000000002
asg15
S'H'
sg16
g52
sg17
S''
sg18
S'HA'
sS'b'
F0
sg19
I286
sba(ichempy
Atom
(dp623
g6
S''
sg7
S''
sg8
F0.42749999999999999
sg9
S'SER'
sg10
S'19'
sg11
I19
sS'q'
F1
sg12
I0
sg13
(lp624
F48.673999999999999
aF32.255000000000003
aF-5.1829999999999998
asg15
S'H'
sg16
S'HO'
p625
sg17
S''
sg18
S'HG'
sS'b'
F0
sg19
I289
sba(ichempy
Atom
(dp626
g6
S''
sg7
S''
sg8
F-0.41570000000000001
sg9
S'SER'
sg10
S'19'
sg11
I19
sS'q'
F1
sg12
I0
sg13
(lp627
F48.371000000000002
aF34.835000000000001
aF-4.4000000000000004
asg15
S'N'
sg16
S'N'
sg17
S''
sg18
S'N'
sS'b'
F0
sg19
I279
sba(ichempy
Atom
(dp628
g6
S''
sg7
S''
sg8
F-0.56789999999999996
sg9
S'SER'
sg10
S'19'
sg11
I19
sS'q'
F1
sg12
I0
sg13
(lp629
F51.018000000000001
aF35.031999999999996
aF-4.9180000000000001
asg15
S'O'
sg16
S'O'
sg17
S''
sg18
S'O'
sS'b'
F0
sg19
I282
sba(ichempy
Atom
(dp630
g6
S''
sg7
S''
sg8
F-0.65459999999999996
sg9
S'SER'
sg10
S'19'
sg11
I19
sS'q'
F1
sg12
I0
sg13
(lp631
F49.243000000000002
aF31.925000000000001
aF-4.4809999999999999
asg15
S'O'
sg16
S'OH'
p632
sg17
S''
sg18
S'OG'
sS'b'
F0
sg19
I284
sba(ichempy
Atom
(dp633
g6
S''
sg7
S''
sg8
F0.59730000000000005
sg9
S'THR'
sg10
S'20'
sg11
I20
sS'q'
F1
sg12
I0
sg13
(lp634
F53.904000000000003
aF33.265999999999998
aF-2.3799999999999999
asg15
S'C'
sg16
S'C'
sg17
S''
sg18
S'C'
sS'b'
F0
sg19
I292
sba(ichempy
Atom
(dp635
g6
S''
sg7
S''
sg8
F-0.038899999999999997
sg9
S'THR'
sg10
S'20'
sg11
I20
sS'q'
F1
sg12
I0
sg13
(lp636
F53.075000000000003
aF33.973999999999997
aF-3.4239999999999999
asg15
S'C'
sg16
g22
sg17
S''
sg18
S'CA'
sS'b'
F0
sg19
I291
sba(ichempy
Atom
(dp637
g6
S''
sg7
S''
sg8
F0.3654
sg9
S'THR'
sg10
S'20'
sg11
I20
sS'q'
F1
sg12
I0
sg13
(lp638
F53.491999999999997
aF35.479999999999997
aF-3.5339999999999998
asg15
S'C'
sg16
g22
sg17
S''
sg18
S'CB'
sS'b'
F0
sg19
I294
sba(ichempy
Atom
(dp639
g6
S''
sg7
S''
sg8
F-0.24379999999999999
sg9
S'THR'
sg10
S'20'
sg11
I20
sS'q'
F1
sg12
I0
sg13
(lp640
F54.981000000000002
aF35.756999999999998
aF-3.8359999999999999
asg15
S'C'
sg16
g22
sg17
S''
sg18
S'CG2'
sS'b'
F0
sg19
I296
sba(ichempy
Atom
(dp641
g6
S''
sg7
S''
sg8
F0.41020000000000001
sg9
S'THR'
sg10
S'20'
sg11
I20
sS'q'
F1
sg12
I0
sg13
(lp642
F53.036999999999999
aF37.043999999999997
aF-4.5599999999999996
asg15
S'H'
sg16
g625
sg17
S''
sg18
S'1HG'
p643
sS'b'
F0
sg19
I300
sba(ichempy
Atom
(dp644
g6
S''
sg7
S''
sg8
F0.064199999999999993
sg9
S'THR'
sg10
S'20'
sg11
I20
sS'q'
F1
sg12
I0
sg13
(lp645
F55.192999999999998
aF36.838999999999999
aF-3.9220000000000002
asg15
S'H'
sg16
g26
sg17
S''
sg18
S'1HG2'
sS'b'
F0
sg19
I301
sba(ichempy
Atom
(dp646
g6
S''
sg7
S''
sg8
F0.064199999999999993
sg9
S'THR'
sg10
S'20'
sg11
I20
sS'q'
F1
sg12
I0
sg13
(lp647
F55.651000000000003
aF35.383000000000003
aF-3.0390000000000001
asg15
S'H'
sg16
g26
sg17
S''
sg18
S'2HG2'
sS'b'
F0
sg19
I302
sba(ichempy
Atom
(dp648
g6
S''
sg7
S''
sg8
F0.064199999999999993
sg9
S'THR'
sg10
S'20'
sg11
I20
sS'q'
F1
sg12
I0
sg13
(lp649
F55.302999999999997
aF35.283000000000001
aF-4.782
asg15
S'H'
sg16
g26
sg17
S''
sg18
S'3HG2'
sS'b'
F0
sg19
I303
sba(ichempy
Atom
(dp650
g6
S''
sg7
S''
sg8
F0.27189999999999998
sg9
S'THR'
sg10
S'20'
sg11
I20
sS'q'
F1
sg12
I0
sg13
(lp651
F51.286999999999999
aF33.323
aF-2.2629999999999999
asg15
S'H'
sg16
S'H'
sg17
S''
sg18
S'H'
sS'b'
F0
sg19
I297
sba(ichempy
Atom
(dp652
g6
S''
sg7
S''
sg8
F0.1007
sg9
S'THR'
sg10
S'20'
sg11
I20
sS'q'
F1
sg12
I0
sg13
(lp653
F53.271000000000001
aF33.479999999999997
aF-4.3929999999999998
asg15
S'H'
sg16
g52
sg17
S''
sg18
S'HA'
sS'b'
F0
sg19
I298
sba(ichempy
Atom
(dp654
g6
S''
sg7
S''
sg8
F0.0043
sg9
S'THR'
sg10
S'20'
sg11
I20
sS'q'
F1
sg12
I0
sg13
(lp655
F53.228999999999999
aF35.985999999999997
aF-2.581
asg15
S'H'
sg16
g52
sg17
S''
sg18
S'HB'
sS'b'
F0
sg19
I299
sba(ichempy
Atom
(dp656
g6
S''
sg7
S''
sg8
F-0.41570000000000001
sg9
S'THR'
sg10
S'20'
sg11
I20
sS'q'
F1
sg12
I0
sg13
(lp657
F51.649999999999999
aF33.857999999999997
aF-3.1280000000000001
asg15
S'N'
sg16
S'N'
sg17
S''
sg18
S'N'
sS'b'
F0
sg19
I290
sba(ichempy
Atom
(dp658
g6
S''
sg7
S''
sg8
F-0.56789999999999996
sg9
S'THR'
sg10
S'20'
sg11
I20
sS'q'
F1
sg12
I0
sg13
(lp659
F53.398000000000003
aF32.689999999999998
aF-1.4379999999999999
asg15
S'O'
sg16
S'O'
sg17
S''
sg18
S'O'
sS'b'
F0
sg19
I293
sba(ichempy
Atom
(dp660
g6
S''
sg7
S''
sg8
F-0.67610000000000003
sg9
S'THR'
sg10
S'20'
sg11
I20
sS'q'
F1
sg12
I0
sg13
(lp661
F52.789000000000001
aF36.115000000000002
aF-4.5940000000000003
asg15
S'O'
sg16
g632
sg17
S''
sg18
S'OG1'
sS'b'
F0
sg19
I295
sba(ichempy
Atom
(dp662
g6
S''
sg7
S''
sg8
F0.59730000000000005
sg9
S'TRP'
sg10
S'21'
sg11
I21
sS'q'
F1
sg12
I0
sg13
(lp663
F57.569000000000003
aF32.872999999999998
aF-2.0550000000000002
asg15
S'C'
sg16
S'C'
sg17
S''
sg18
S'C'
sS'b'
F0
sg19
I306
sba(ichempy
Atom
(dp664
g6
S''
sg7
S''
sg8
F-0.0275
sg9
S'TRP'
sg10
S'21'
sg11
I21
sS'q'
F1
sg12
I0
sg13
(lp665
F56.137
aF32.668999999999997
aF-1.6220000000000001
asg15
S'C'
sg16
g22
sg17
S''
sg18
S'CA'
sS'b'
F0
sg19
I305
sba(ichempy
Atom
(dp666
g6
S''
sg7
S''
sg8
F-0.0050000000000000001
sg9
S'TRP'
sg10
S'21'
sg11
I21
sS'q'
F1
sg12
I0
sg13
(lp667
F55.819000000000003
aF31.149999999999999
aF-1.5549999999999999
asg15
S'C'
sg16
g22
sg17
S''
sg18
S'CB'
sS'b'
F0
sg19
I308
sba(ichempy
Atom
(dp668
g6
S''
sg7
S''
sg8
F-0.1638
sg9
S'TRP'
sg10
S'21'
sg11
I21
sS'q'
F1
sg12
I0
sg13
(lp669
F53.274999999999999
aF30.542999999999999
aF-1.6679999999999999
asg15
S'C'
sg16
g275
sg17
S''
sg18
S'CD1'
sS'b'
F0
sg19
I310
sba(ichempy
Atom
(dp670
g6
S''
sg7
S''
sg8
F0.12429999999999999
sg9
S'TRP'
sg10
S'21'
sg11
I21
sS'q'
F1
sg12
I0
sg13
(lp671
F54.100000000000001
aF30.774000000000001
aF0.38700000000000001
asg15
S'C'
sg16
S'CB'
p672
sg17
S''
sg18
S'CD2'
sS'b'
F0
sg19
I313
sba(ichempy
Atom
(dp673
g6
S''
sg7
S''
sg8
F0.13800000000000001
sg9
S'TRP'
sg10
S'21'
sg11
I21
sS'q'
F1
sg12
I0
sg13
(lp674
F52.713999999999999
aF30.491
aF0.45900000000000002
asg15
S'C'
sg16
S'CN'
p675
sg17
S''
sg18
S'CE2'
sS'b'
F0
sg19
I312
sba(ichempy
Atom
(dp676
g6
S''
sg7
S''
sg8
F-0.2387
sg9
S'TRP'
sg10
S'21'
sg11
I21
sS'q'
F1
sg12
I0
sg13
(lp677
F54.853999999999999
aF30.995000000000001
aF1.5680000000000001
asg15
S'C'
sg16
g69
sg17
S''
sg18
S'CE3'
sS'b'
F0
sg19
I314
sba(ichempy
Atom
(dp678
g6
S''
sg7
S''
sg8
F-0.14149999999999999
sg9
S'TRP'
sg10
S'21'
sg11
I21
sS'q'
F1
sg12
I0
sg13
(lp679
F54.457000000000001
aF30.805
aF-0.94499999999999995
asg15
S'C'
sg16
S'C*'
p680
sg17
S''
sg18
S'CG'
sS'b'
F0
sg19
I309
sba(ichempy
Atom
(dp681
g6
S''
sg7
S''
sg8
F-0.1134
sg9
S'TRP'
sg10
S'21'
sg11
I21
sS'q'
F1
sg12
I0
sg13
(lp682
F52.831000000000003
aF30.619
aF2.871
asg15
S'C'
sg16
g69
sg17
S''
sg18
S'CH2'
sS'b'
F0
sg19
I316
sba(ichempy
Atom
(dp683
g6
S''
sg7
S''
sg8
F-0.2601
sg9
S'TRP'
sg10
S'21'
sg11
I21
sS'q'
F1
sg12
I0
sg13
(lp684
F52.073
aF30.414999999999999
aF1.7150000000000001
asg15
S'C'
sg16
g69
sg17
S''
sg18
S'CZ2'
sS'b'
F0
sg19
I317
sba(ichempy
Atom
(dp685
g6
S''
sg7
S''
sg8
F-0.19719999999999999
sg9
S'TRP'
sg10
S'21'
sg11
I21
sS'q'
F1
sg12
I0
sg13
(lp686
F54.201000000000001
aF30.908000000000001
aF2.798
asg15
S'C'
sg16
g69
sg17
S''
sg18
S'CZ3'
sS'b'
F0
sg19
I315
sba(ichempy
Atom
(dp687
g6
S''
sg7
S''
sg8
F0.20619999999999999
sg9
S'TRP'
sg10
S'21'
sg11
I21
sS'q'
F1
sg12
I0
sg13
(lp688
F53.216000000000001
aF30.547999999999998
aF-2.7490000000000001
asg15
S'H'
sg16
g290
sg17
S''
sg18
g326
sS'b'
F0
sg19
I322
sba(ichempy
Atom
(dp689
g6
S''
sg7
S''
sg8
F0.3412
sg9
S'TRP'
sg10
S'21'
sg11
I21
sS'q'
F1
sg12
I0
sg13
(lp690
F51.195999999999998
aF30.172999999999998
aF-1.0629999999999999
asg15
S'H'
sg16
S'H'
sg17
S''
sg18
g285
sS'b'
F0
sg19
I323
sba(ichempy
Atom
(dp691
g6
S''
sg7
S''
sg8
F0.0339
sg9
S'TRP'
sg10
S'21'
sg11
I21
sS'q'
F1
sg12
I0
sg13
(lp692
F56.593000000000004
aF30.622
aF-0.96399999999999997
asg15
S'H'
sg16
g26
sg17
S''
sg18
S'2HB'
sS'b'
F0
sg19
I321
sba(ichempy
Atom
(dp693
g6
S''
sg7
S''
sg8
F0.14169999999999999
sg9
S'TRP'
sg10
S'21'
sg11
I21
sS'q'
F1
sg12
I0
sg13
(lp694
F52.353000000000002
aF30.553999999999998
aF3.8380000000000001
asg15
S'H'
sg16
g262
sg17
S''
sg18
S'2HH'
p695
sS'b'
F0
sg19
I326
sba(ichempy
Atom
(dp696
g6
S''
sg7
S''
sg8
F0.15720000000000001
sg9
S'TRP'
sg10
S'21'
sg11
I21
sS'q'
F1
sg12
I0
sg13
(lp697
F51.015999999999998
aF30.199999999999999
aF1.7749999999999999
asg15
S'H'
sg16
g262
sg17
S''
sg18
S'2HZ'
p698
sS'b'
F0
sg19
I327
sba(ichempy
Atom
(dp699
g6
S''
sg7
S''
sg8
F0.0339
sg9
S'TRP'
sg10
S'21'
sg11
I21
sS'q'
F1
sg12
I0
sg13
(lp700
F55.893999999999998
aF30.699999999999999
aF-2.5649999999999999
asg15
S'H'
sg16
g26
sg17
S''
sg18
g86
sS'b'
F0
sg19
I320
sba(ichempy
Atom
(dp701
g6
S''
sg7
S''
sg8
F0.17000000000000001
sg9
S'TRP'
sg10
S'21'
sg11
I21
sS'q'
F1
sg12
I0
sg13
(lp702
F55.908999999999999
aF31.225000000000001
aF1.52
asg15
S'H'
sg16
g262
sg17
S''
sg18
g491
sS'b'
F0
sg19
I324
sba(ichempy
Atom
(dp703
g6
S''
sg7
S''
sg8
F0.1447
sg9
S'TRP'
sg10
S'21'
sg11
I21
sS'q'
F1
sg12
I0
sg13
(lp704
F54.762
aF31.065000000000001
aF3.7080000000000002
asg15
S'H'
sg16
g262
sg17
S''
sg18
S'3HZ'
p705
sS'b'
F0
sg19
I325
sba(ichempy
Atom
(dp706
g6
S''
sg7
S''
sg8
F0.27189999999999998
sg9
S'TRP'
sg10
S'21'
sg11
I21
sS'q'
F1
sg12
I0
sg13
(lp707
F55.531999999999996
aF33.808
aF-3.3580000000000001
asg15
S'H'
sg16
S'H'
sg17
S''
sg18
S'H'
sS'b'
F0
sg19
I318
sba(ichempy
Atom
(dp708
g6
S''
sg7
S''
sg8
F0.1123
sg9
S'TRP'
sg10
S'21'
sg11
I21
sS'q'
F1
sg12
I0
sg13
(lp709
F56.021999999999998
aF33.128999999999998
aF-0.622
asg15
S'H'
sg16
g52
sg17
S''
sg18
S'HA'
sS'b'
F0
sg19
I319
sba(ichempy
Atom
(dp710
g6
S''
sg7
S''
sg8
F-0.41570000000000001
sg9
S'TRP'
sg10
S'21'
sg11
I21
sS'q'
F1
sg12
I0
sg13
(lp711
F55.212000000000003
aF33.310000000000002
aF-2.552
asg15
S'N'
sg16
S'N'
sg17
S''
sg18
S'N'
sS'b'
F0
sg19
I304
sba(ichempy
Atom
(dp712
g6
S''
sg7
S''
sg8
F-0.34179999999999999
sg9
S'TRP'
sg10
S'21'
sg11
I21
sS'q'
F1
sg12
I0
sg13
(lp713
F52.176000000000002
aF30.341000000000001
aF-0.81000000000000005
asg15
S'N'
sg16
g308
sg17
S''
sg18
S'NE1'
sS'b'
F0
sg19
I311
sba(ichempy
Atom
(dp714
g6
S''
sg7
S''
sg8
F-0.56789999999999996
sg9
S'TRP'
sg10
S'21'
sg11
I21
sS'q'
F1
sg12
I0
sg13
(lp715
F57.859000000000002
aF33.506
aF-3.069
asg15
S'O'
sg16
S'O'
sg17
S''
sg18
S'O'
sS'b'
F0
sg19
I307
sba(ichempy
Atom
(dp716
g6
S''
sg7
S''
sg8
F0.59730000000000005
sg9
S'TYR'
sg10
S'22'
sg11
I22
sS'q'
F1
sg12
I0
sg13
(lp717
F60.744999999999997
aF31.741
aF-0.53300000000000003
asg15
S'C'
sg16
S'C'
sg17
S''
sg18
S'C'
sS'b'
F0
sg19
I330
sba(ichempy
Atom
(dp718
g6
S''
sg7
S''
sg8
F-0.0014
sg9
S'TYR'
sg10
S'22'
sg11
I22
sS'q'
F1
sg12
I0
sg13
(lp719
F59.915999999999997
aF32.448999999999998
aF-1.577
asg15
S'C'
sg16
g22
sg17
S''
sg18
S'CA'
sS'b'
F0
sg19
I329
sba(ichempy
Atom
(dp720
g6
S''
sg7
S''
sg8
F-0.0152
sg9
S'TYR'
sg10
S'22'
sg11
I22
sS'q'
F1
sg12
I0
sg13
(lp721
F60.356000000000002
aF33.942
aF-1.6080000000000001
asg15
S'C'
sg16
g22
sg17
S''
sg18
S'CB'
sS'b'
F0
sg19
I332
sba(ichempy
Atom
(dp722
g6
S''
sg7
S''
sg8
F-0.19059999999999999
sg9
S'TYR'
sg10
S'22'
sg11
I22
sS'q'
F1
sg12
I0
sg13
(lp723
F60.110999999999997
aF34.784999999999997
aF-4
asg15
S'C'
sg16
g69
sg17
S''
sg18
S'CD1'
sS'b'
F0
sg19
I334
sba(ichempy
Atom
(dp724
g6
S''
sg7
S''
sg8
F-0.19059999999999999
sg9
S'TYR'
sg10
S'22'
sg11
I22
sS'q'
F1
sg12
I0
sg13
(lp725
F58.656999999999996
aF35.695
aF-2.298
asg15
S'C'
sg16
g69
sg17
S''
sg18
S'CD2'
sS'b'
F0
sg19
I335
sba(ichempy
Atom
(dp726
g6
S''
sg7
S''
sg8
F-0.2341
sg9
S'TYR'
sg10
S'22'
sg11
I22
sS'q'
F1
sg12
I0
sg13
(lp727
F59.491999999999997
aF35.588000000000001
aF-4.9539999999999997
asg15
S'C'
sg16
g69
sg17
S''
sg18
S'CE1'
sS'b'
F0
sg19
I336
sba(ichempy
Atom
(dp728
g6
S''
sg7
S''
sg8
F-0.2341
sg9
S'TYR'
sg10
S'22'
sg11
I22
sS'q'
F1
sg12
I0
sg13
(lp729
F58.039999999999999
aF36.497
aF-3.2530000000000001
asg15
S'C'
sg16
g69
sg17
S''
sg18
S'CE2'
sS'b'
F0
sg19
I337
sba(ichempy
Atom
(dp730
g6
S''
sg7
S''
sg8
F-0.0011000000000000001
sg9
S'TYR'
sg10
S'22'
sg11
I22
sS'q'
F1
sg12
I0
sg13
(lp731
F59.694000000000003
aF34.832999999999998
aF-2.6659999999999999
asg15
S'C'
sg16
g69
sg17
S''
sg18
S'CG'
sS'b'
F0
sg19
I333
sba(ichempy
Atom
(dp732
g6
S''
sg7
S''
sg8
F0.3226
sg9
S'TYR'
sg10
S'22'
sg11
I22
sS'q'
F1
sg12
I0
sg13
(lp733
F58.457999999999998
aF36.442999999999998
aF-4.5810000000000004
asg15
S'C'
sg16
g69
sg17
S''
sg18
S'CZ'
sS'b'
F0
sg19
I338
sba(ichempy
Atom
(dp734
g6
S''
sg7
S''
sg8
F0.1699
sg9
S'TYR'
sg10
S'22'
sg11
I22
sS'q'
F1
sg12
I0
sg13
(lp735
F60.908999999999999
aF34.119999999999997
aF-4.2999999999999998
asg15
S'H'
sg16
g262
sg17
S''
sg18
g326
sS'b'
F0
sg19
I344
sba(ichempy
Atom
(dp736
g6
S''
sg7
S''
sg8
F0.1656
sg9
S'TYR'
sg10
S'22'
sg11
I22
sS'q'
F1
sg12
I0
sg13
(lp737
F59.808
aF35.548000000000002
aF-5.9859999999999998
asg15
S'H'
sg16
g262
sg17
S''
sg18
g285
sS'b'
F0
sg19
I346
sba(ichempy
Atom
(dp738
g6
S''
sg7
S''
sg8
F0.029499999999999998
sg9
S'TYR'
sg10
S'22'
sg11
I22
sS'q'
F1
sg12
I0
sg13
(lp739
F61.451999999999998
aF34.003999999999998
aF-1.7589999999999999
asg15
S'H'
sg16
g26
sg17
S''
sg18
S'2HB'
sS'b'
F0
sg19
I343
sba(ichempy
Atom
(dp740
g6
S''
sg7
S''
sg8
F0.1699
sg9
S'TYR'
sg10
S'22'
sg11
I22
sS'q'
F1
sg12
I0
sg13
(lp741
F58.32
aF35.734000000000002
aF-1.2709999999999999
asg15
S'H'
sg16
g262
sg17
S''
sg18
g291
sS'b'
F0
sg19
I345
sba(ichempy
Atom
(dp742
g6
S''
sg7
S''
sg8
F0.1656
sg9
S'TYR'
sg10
S'22'
sg11
I22
sS'q'
F1
sg12
I0
sg13
(lp743
F57.235999999999997
aF37.154000000000003
aF-2.9569999999999999
asg15
S'H'
sg16
g262
sg17
S''
sg18
g294
sS'b'
F0
sg19
I347
sba(ichempy
Atom
(dp744
g6
S''
sg7
S''
sg8
F0.029499999999999998
sg9
S'TYR'
sg10
S'22'
sg11
I22
sS'q'
F1
sg12
I0
sg13
(lp745
F60.209000000000003
aF34.389000000000003
aF-0.60299999999999998
asg15
S'H'
sg16
g26
sg17
S''
sg18
g86
sS'b'
F0
sg19
I342
sba(ichempy
Atom
(dp746
g6
S''
sg7
S''
sg8
F0.27189999999999998
sg9
S'TYR'
sg10
S'22'
sg11
I22
sS'q'
F1
sg12
I0
sg13
(lp747
F58.128
aF31.797999999999998
aF-0.41499999999999998
asg15
S'H'
sg16
S'H'
sg17
S''
sg18
S'H'
sS'b'
F0
sg19
I340
sba(ichempy
Atom
(dp748
g6
S''
sg7
S''
sg8
F0.087599999999999997
sg9
S'TYR'
sg10
S'22'
sg11
I22
sS'q'
F1
sg12
I0
sg13
(lp749
F60.119999999999997
aF31.972000000000001
aF-2.5539999999999998
asg15
S'H'
sg16
g52
sg17
S''
sg18
S'HA'
sS'b'
F0
sg19
I341
sba(ichempy
Atom
(dp750
g6
S''
sg7
S''
sg8
F0.3992
sg9
S'TYR'
sg10
S'22'
sg11
I22
sS'q'
F1
sg12
I0
sg13
(lp751
F57.167999999999999
aF37.744
aF-5.0899999999999999
asg15
S'H'
sg16
g625
sg17
S''
sg18
S'HH'
sS'b'
F0
sg19
I348
sba(ichempy
Atom
(dp752
g6
S''
sg7
S''
sg8
F-0.41570000000000001
sg9
S'TYR'
sg10
S'22'
sg11
I22
sS'q'
F1
sg12
I0
sg13
(lp753
F58.491
aF32.332000000000001
aF-1.2809999999999999
asg15
S'N'
sg16
S'N'
sg17
S''
sg18
S'N'
sS'b'
F0
sg19
I328
sba(ichempy
Atom
(dp754
g6
S''
sg7
S''
sg8
F-0.56789999999999996
sg9
S'TYR'
sg10
S'22'
sg11
I22
sS'q'
F1
sg12
I0
sg13
(lp755
F60.231000000000002
aF31.155999999999999
aF0.42399999999999999
asg15
S'O'
sg16
S'O'
sg17
S''
sg18
S'O'
sS'b'
F0
sg19
I331
sba(ichempy
Atom
(dp756
g6
S''
sg7
S''
sg8
F-0.55789999999999995
sg9
S'TYR'
sg10
S'22'
sg11
I22
sS'q'
F1
sg12
I0
sg13
(lp757
F57.851999999999997
aF37.226999999999997
aF-5.5209999999999999
asg15
S'O'
sg16
g632
sg17
S''
sg18
S'OH'
sS'b'
F0
sg19
I339
sba(ichempy
Atom
(dp758
g6
S''
sg7
S''
sg8
F0.59730000000000005
sg9
S'VAL'
sg10
S'23'
sg11
I23
sS'q'
F1
sg12
I0
sg13
(lp759
F64.409999999999997
aF31.347999999999999
aF-0.20799999999999999
asg15
S'C'
sg16
S'C'
sg17
S''
sg18
S'C'
sS'b'
F0
sg19
I351
sba(ichempy
Atom
(dp760
g6
S''
sg7
S''
sg8
F-0.087499999999999994
sg9
S'VAL'
sg10
S'23'
sg11
I23
sS'q'
F1
sg12
I0
sg13
(lp761
F62.978000000000002
aF31.143999999999998
aF0.22600000000000001
asg15
S'C'
sg16
g22
sg17
S''
sg18
S'CA'
sS'b'
F0
sg19
I350
sba(ichempy
Atom
(dp762
g6
S''
sg7
S''
sg8
F0.29849999999999999
sg9
S'VAL'
sg10
S'23'
sg11
I23
sS'q'
F1
sg12
I0
sg13
(lp763
F62.640000000000001
aF29.605
aF0.34300000000000003
asg15
S'C'
sg16
g22
sg17
S''
sg18
S'CB'
sS'b'
F0
sg19
I353
sba(ichempy
Atom
(dp764
g6
S''
sg7
S''
sg8
F-0.31919999999999998
sg9
S'VAL'
sg10
S'23'
sg11
I23
sS'q'
F1
sg12
I0
sg13
(lp765
F63.646000000000001
aF28.736999999999998
aF1.1499999999999999
asg15
S'C'
sg16
g22
sg17
S''
sg18
S'CG1'
sS'b'
F0
sg19
I354
sba(ichempy
Atom
(dp766
g6
S''
sg7
S''
sg8
F-0.31919999999999998
sg9
S'VAL'
sg10
S'23'
sg11
I23
sS'q'
F1
sg12
I0
sg13
(lp767
F61.255000000000003
aF29.312000000000001
aF0.96699999999999997
asg15
S'C'
sg16
g22
sg17
S''
sg18
S'CG2'
sS'b'
F0
sg19
I355
sba(ichempy
Atom
(dp768
g6
S''
sg7
S''
sg8
F0.079100000000000004
sg9
S'VAL'
sg10
S'23'
sg11
I23
sS'q'
F1
sg12
I0
sg13
(lp769
F63.750999999999998
aF29.077000000000002
aF2.198
asg15
S'H'
sg16
g26
sg17
S''
sg18
S'1HG1'
sS'b'
F0
sg19
I359
sba(ichempy
Atom
(dp770
g6
S''
sg7
S''
sg8
F0.079100000000000004
sg9
S'VAL'
sg10
S'23'
sg11
I23
sS'q'
F1
sg12
I0
sg13
(lp771
F60.442
aF29.829000000000001
aF0.42699999999999999
asg15
S'H'
sg16
g26
sg17
S''
sg18
S'1HG2'
sS'b'
F0
sg19
I362
sba(ichempy
Atom
(dp772
g6
S''
sg7
S''
sg8
F0.079100000000000004
sg9
S'VAL'
sg10
S'23'
sg11
I23
sS'q'
F1
sg12
I0
sg13
(lp773
F63.350999999999999
aF27.670999999999999
aF1.1799999999999999
asg15
S'H'
sg16
g26
sg17
S''
sg18
S'2HG1'
sS'b'
F0
sg19
I360
sba(ichempy
Atom
(dp774
g6
S''
sg7
S''
sg8
F0.079100000000000004
sg9
S'VAL'
sg10
S'23'
sg11
I23
sS'q'
F1
sg12
I0
sg13
(lp775
F61.006999999999998
aF28.233000000000001
aF0.93200000000000005
asg15
S'H'
sg16
g26
sg17
S''
sg18
S'2HG2'
sS'b'
F0
sg19
I363
sba(ichempy
Atom
(dp776
g6
S''
sg7
S''
sg8
F0.079100000000000004
sg9
S'VAL'
sg10
S'23'
sg11
I23
sS'q'
F1
sg12
I0
sg13
(lp777
F64.658000000000001
aF28.739000000000001
aF0.70399999999999996
asg15
S'H'
sg16
g26
sg17
S''
sg18
S'3HG1'
sS'b'
F0
sg19
I361
sba(ichempy
Atom
(dp778
g6
S''
sg7
S''
sg8
F0.079100000000000004
sg9
S'VAL'
sg10
S'23'
sg11
I23
sS'q'
F1
sg12
I0
sg13
(lp779
F61.197000000000003
aF29.628
aF2.0259999999999998
asg15
S'H'
sg16
g26
sg17
S''
sg18
S'3HG2'
sS'b'
F0
sg19
I364
sba(ichempy
Atom
(dp780
g6
S''
sg7
S''
sg8
F0.27189999999999998
sg9
S'VAL'
sg10
S'23'
sg11
I23
sS'q'
F1
sg12
I0
sg13
(lp781
F62.398000000000003
aF32.323
aF-1.575
asg15
S'H'
sg16
S'H'
sg17
S''
sg18
S'H'
sS'b'
F0
sg19
I356
sba(ichempy
Atom
(dp782
g6
S''
sg7
S''
sg8
F0.0969
sg9
S'VAL'
sg10
S'23'
sg11
I23
sS'q'
F1
sg12
I0
sg13
(lp783
F62.869999999999997
aF31.617999999999999
aF1.218
asg15
S'H'
sg16
g52
sg17
S''
sg18
S'HA'
sS'b'
F0
sg19
I357
sba(ichempy
Atom
(dp784
g6
S''
sg7
S''
sg8
F-0.029700000000000001
sg9
S'VAL'
sg10
S'23'
sg11
I23
sS'q'
F1
sg12
I0
sg13
(lp785
F62.627000000000002
aF29.193000000000001
aF-0.68899999999999995
asg15
S'H'
sg16
g26
sg17
S''
sg18
S'HB'
sS'b'
F0
sg19
I358
sba(ichempy
Atom
(dp786
g6
S''
sg7
S''
sg8
F-0.41570000000000001
sg9
S'VAL'
sg10
S'23'
sg11
I23
sS'q'
F1
sg12
I0
sg13
(lp787
F62.052999999999997
aF31.785
aF-0.70499999999999996
asg15
S'N'
sg16
S'N'
sg17
S''
sg18
S'N'
sS'b'
F0
sg19
I349
sba(ichempy
Atom
(dp788
g6
S''
sg7
S''
sg8
F-0.56789999999999996
sg9
S'VAL'
sg10
S'23'
sg11
I23
sS'q'
F1
sg12
I0
sg13
(lp789
F64.701999999999998
aF31.984999999999999
aF-1.228
asg15
S'O'
sg16
S'O'
sg17
S''
sg18
S'O'
sS'b'
F0
sg19
I352
sba(ichempy
Atom
(dp790
g6
S''
sg7
S''
sg8
F-0.14899999999999999
sg9
S'NME'
p791
sg10
S'24'
sg11
I24
sS'q'
F1
sg12
I0
sg13
(lp792
F66.849000000000004
aF30.885000000000002
aF0.32400000000000001
asg15
S'C'
sg16
g22
sg17
S''
sg18
g23
sS'b'
F0
sg19
I366
sba(ichempy
Atom
(dp793
g6
S''
sg7
S''
sg8
F0.097600000000000006
sg9
g791
sg10
S'24'
sg11
I24
sS'q'
F1
sg12
I0
sg13
(lp794
F67.132000000000005
aF30.140999999999998
aF-0.40500000000000003
asg15
S'H'
sg16
g52
sg17
S''
sg18
g27
sS'b'
F0
sg19
I368
sba(ichempy
Atom
(dp795
g6
S''
sg7
S''
sg8
F0.097600000000000006
sg9
g791
sg10
S'24'
sg11
I24
sS'q'
F1
sg12
I0
sg13
(lp796
F67.033000000000001
aF31.867000000000001
aF-0.087999999999999995
asg15
S'H'
sg16
g52
sg17
S''
sg18
g30
sS'b'
F0
sg19
I369
sba(ichempy
Atom
(dp797
g6
S''
sg7
S''
sg8
F0.097600000000000006
sg9
g791
sg10
S'24'
sg11
I24
sS'q'
F1
sg12
I0
sg13
(lp798
F67.454999999999998
aF30.757000000000001
aF1.2090000000000001
asg15
S'H'
sg16
g52
sg17
S''
sg18
g33
sS'b'
F0
sg19
I370
sba(ichempy
Atom
(dp799
g6
S''
sg7
S''
sg8
F0.27189999999999998
sg9
g791
sg10
S'24'
sg11
I24
sS'q'
F1
sg12
I0
sg13
(lp800
F65.165000000000006
aF30.218
aF1.502
asg15
S'H'
sg16
S'H'
sg17
S''
sg18
S'H'
sS'b'
F0
sg19
I367
sba(ichempy
Atom
(dp801
g6
S''
sg7
S''
sg8
F-0.41570000000000001
sg9
g791
sg10
S'24'
sg11
I24
sS'q'
F1
sg12
I0
sg13
(lp802
F65.442999999999998
aF30.742000000000001
aF0.66000000000000003
asg15
S'N'
sg16
S'N'
sg17
S''
sg18
S'N'
sS'b'
F0
sg19
I365
sbasS'molecule'
p803
(ichempy
Molecule
(dp804
bsg19
NsS'bond'
p805
(lp806
(ichempy
Bond
(dp807
S'order'
p808
I2
sg19
(lp809
I0
aI5
asba(ichempy
Bond
(dp810
g808
I1
sg19
(lp811
I1
aI2
asba(ichempy
Bond
(dp812
g808
I1
sg19
(lp813
I1
aI4
asba(ichempy
Bond
(dp814
g808
I1
sg19
(lp815
I1
aI3
asba(ichempy
Bond
(dp816
g808
I1
sg19
(lp817
I1
aI0
asba(ichempy
Bond
(dp818
g808
I2
sg19
(lp819
I6
aI15
asba(ichempy
Bond
(dp820
g808
I1
sg19
(lp821
I7
aI13
asba(ichempy
Bond
(dp822
g808
I1
sg19
(lp823
I7
aI8
asba(ichempy
Bond
(dp824
g808
I1
sg19
(lp825
I7
aI6
asba(ichempy
Bond
(dp826
g808
I1
sg19
(lp827
I9
aI8
asba(ichempy
Bond
(dp828
g808
I1
sg19
(lp829
I10
aI8
asba(ichempy
Bond
(dp830
g808
I1
sg19
(lp831
I11
aI8
asba(ichempy
Bond
(dp832
g808
I1
sg19
(lp833
I14
aI12
asba(ichempy
Bond
(dp834
g808
I1
sg19
(lp835
I14
aI7
asba(ichempy
Bond
(dp836
g808
I1
sg19
(lp837
I14
aI0
asba(ichempy
Bond
(dp838
g808
I2
sg19
(lp839
I16
aI39
asba(ichempy
Bond
(dp840
g808
I1
sg19
(lp841
I17
aI33
asba(ichempy
Bond
(dp842
g808
I1
sg19
(lp843
I17
aI16
asba(ichempy
Bond
(dp844
g808
I1
sg19
(lp845
I17
aI18
asba(ichempy
Bond
(dp846
g808
I1
sg19
(lp847
I19
aI20
asba(ichempy
Bond
(dp848
g808
I1
sg19
(lp849
I20
aI18
asba(ichempy
Bond
(dp850
g808
I1
sg19
(lp851
I21
aI36
asba(ichempy
Bond
(dp852
g808
I1
sg19
(lp853
I22
aI37
asba(ichempy
Bond
(dp854
g808
I1
sg19
(lp855
I23
aI38
asba(ichempy
Bond
(dp856
g808
I1
sg19
(lp857
I24
aI18
asba(ichempy
Bond
(dp858
g808
I1
sg19
(lp859
I25
aI19
asba(ichempy
Bond
(dp860
g808
I1
sg19
(lp861
I26
aI20
asba(ichempy
Bond
(dp862
g808
I1
sg19
(lp863
I27
aI37
asba(ichempy
Bond
(dp864
g808
I1
sg19
(lp865
I28
aI38
asba(ichempy
Bond
(dp866
g808
I1
sg19
(lp867
I29
aI18
asba(ichempy
Bond
(dp868
g808
I1
sg19
(lp869
I30
aI19
asba(ichempy
Bond
(dp870
g808
I1
sg19
(lp871
I31
aI20
asba(ichempy
Bond
(dp872
g808
I1
sg19
(lp873
I34
aI36
asba(ichempy
Bond
(dp874
g808
I1
sg19
(lp875
I35
aI32
asba(ichempy
Bond
(dp876
g808
I1
sg19
(lp877
I35
aI17
asba(ichempy
Bond
(dp878
g808
I1
sg19
(lp879
I35
aI6
asba(ichempy
Bond
(dp880
g808
I1
sg19
(lp881
I36
aI19
asba(ichempy
Bond
(dp882
g808
I2
sg19
(lp883
I37
aI21
asba(ichempy
Bond
(dp884
g808
I1
sg19
(lp885
I38
aI21
asba(ichempy
Bond
(dp886
g808
I2
sg19
(lp887
I40
aI49
asba(ichempy
Bond
(dp888
g808
I1
sg19
(lp889
I41
aI47
asba(ichempy
Bond
(dp890
g808
I1
sg19
(lp891
I41
aI40
asba(ichempy
Bond
(dp892
g808
I1
sg19
(lp893
I41
aI42
asba(ichempy
Bond
(dp894
g808
I1
sg19
(lp895
I43
aI42
asba(ichempy
Bond
(dp896
g808
I1
sg19
(lp897
I44
aI42
asba(ichempy
Bond
(dp898
g808
I1
sg19
(lp899
I45
aI42
asba(ichempy
Bond
(dp900
g808
I1
sg19
(lp901
I48
aI46
asba(ichempy
Bond
(dp902
g808
I1
sg19
(lp903
I48
aI41
asba(ichempy
Bond
(dp904
g808
I1
sg19
(lp905
I48
aI16
asba(ichempy
Bond
(dp906
g808
I2
sg19
(lp907
I50
aI43
asba(ichempy
Bond
(dp908
g808
I1
sg19
(lp909
I51
aI43
asba(ichempy
Bond
(dp910
g808
I2
sg19
(lp911
I52
aI64
asba(ichempy
Bond
(dp912
g808
I1
sg19
(lp913
I53
aI61
asba(ichempy
Bond
(dp914
g808
I1
sg19
(lp915
I53
aI54
asba(ichempy
Bond
(dp916
g808
I1
sg19
(lp917
I53
aI52
asba(ichempy
Bond
(dp918
g808
I1
sg19
(lp919
I55
aI54
asba(ichempy
Bond
(dp920
g808
I1
sg19
(lp921
I56
aI63
asba(ichempy
Bond
(dp922
g808
I1
sg19
(lp923
I57
aI54
asba(ichempy
Bond
(dp924
g808
I1
sg19
(lp925
I58
aI63
asba(ichempy
Bond
(dp926
g808
I1
sg19
(lp927
I59
aI54
asba(ichempy
Bond
(dp928
g808
I1
sg19
(lp929
I62
aI60
asba(ichempy
Bond
(dp930
g808
I1
sg19
(lp931
I62
aI53
asba(ichempy
Bond
(dp932
g808
I1
sg19
(lp933
I62
aI40
asba(ichempy
Bond
(dp934
g808
I1
sg19
(lp935
I63
aI55
asba(ichempy
Bond
(dp936
g808
I2
sg19
(lp937
I65
aI55
asba(ichempy
Bond
(dp938
g808
I2
sg19
(lp939
I66
aI75
asba(ichempy
Bond
(dp940
g808
I1
sg19
(lp941
I67
aI72
asba(ichempy
Bond
(dp942
g808
I1
sg19
(lp943
I67
aI68
asba(ichempy
Bond
(dp944
g808
I1
sg19
(lp945
I67
aI66
asba(ichempy
Bond
(dp946
g808
I1
sg19
(lp947
I69
aI68
asba(ichempy
Bond
(dp948
g808
I1
sg19
(lp949
I70
aI68
asba(ichempy
Bond
(dp950
g808
I1
sg19
(lp951
I73
aI76
asba(ichempy
Bond
(dp952
g808
I1
sg19
(lp953
I74
aI71
asba(ichempy
Bond
(dp954
g808
I1
sg19
(lp955
I74
aI67
asba(ichempy
Bond
(dp956
g808
I1
sg19
(lp957
I74
aI52
asba(ichempy
Bond
(dp958
g808
I1
sg19
(lp959
I76
aI68
asba(ichempy
Bond
(dp960
g808
I2
sg19
(lp961
I77
aI89
asba(ichempy
Bond
(dp962
g808
I1
sg19
(lp963
I78
aI87
asba(ichempy
Bond
(dp964
g808
I1
sg19
(lp965
I78
aI79
asba(ichempy
Bond
(dp966
g808
I1
sg19
(lp967
I78
aI77
asba(ichempy
Bond
(dp968
g808
I1
sg19
(lp969
I80
aI81
asba(ichempy
Bond
(dp970
g808
I1
sg19
(lp971
I81
aI79
asba(ichempy
Bond
(dp972
g808
I1
sg19
(lp973
I82
aI79
asba(ichempy
Bond
(dp974
g808
I1
sg19
(lp975
I83
aI81
asba(ichempy
Bond
(dp976
g808
I1
sg19
(lp977
I84
aI79
asba(ichempy
Bond
(dp978
g808
I1
sg19
(lp979
I85
aI81
asba(ichempy
Bond
(dp980
g808
I1
sg19
(lp981
I88
aI86
asba(ichempy
Bond
(dp982
g808
I1
sg19
(lp983
I88
aI78
asba(ichempy
Bond
(dp984
g808
I1
sg19
(lp985
I88
aI66
asba(ichempy
Bond
(dp986
g808
I2
sg19
(lp987
I90
aI80
asba(ichempy
Bond
(dp988
g808
I1
sg19
(lp989
I91
aI80
asba(ichempy
Bond
(dp990
g808
I2
sg19
(lp991
I92
aI107
asba(ichempy
Bond
(dp992
g808
I1
sg19
(lp993
I93
aI104
asba(ichempy
Bond
(dp994
g808
I1
sg19
(lp995
I93
aI94
asba(ichempy
Bond
(dp996
g808
I1
sg19
(lp997
I93
aI92
asba(ichempy
Bond
(dp998
g808
I1
sg19
(lp999
I95
aI96
asba(ichempy
Bond
(dp1000
g808
I1
sg19
(lp1001
I96
aI94
asba(ichempy
Bond
(dp1002
g808
I1
sg19
(lp1003
I97
aI106
asba(ichempy
Bond
(dp1004
g808
I1
sg19
(lp1005
I98
aI94
asba(ichempy
Bond
(dp1006
g808
I1
sg19
(lp1007
I99
aI106
asba(ichempy
Bond
(dp1008
g808
I1
sg19
(lp1009
I100
aI96
asba(ichempy
Bond
(dp1010
g808
I1
sg19
(lp1011
I101
aI94
asba(ichempy
Bond
(dp1012
g808
I1
sg19
(lp1013
I102
aI96
asba(ichempy
Bond
(dp1014
g808
I1
sg19
(lp1015
I105
aI103
asba(ichempy
Bond
(dp1016
g808
I1
sg19
(lp1017
I105
aI93
asba(ichempy
Bond
(dp1018
g808
I1
sg19
(lp1019
I105
aI77
asba(ichempy
Bond
(dp1020
g808
I1
sg19
(lp1021
I106
aI95
asba(ichempy
Bond
(dp1022
g808
I2
sg19
(lp1023
I108
aI95
asba(ichempy
Bond
(dp1024
g808
I2
sg19
(lp1025
I109
aI115
asba(ichempy
Bond
(dp1026
g808
I1
sg19
(lp1027
I110
aI113
asba(ichempy
Bond
(dp1028
g808
I1
sg19
(lp1029
I110
aI109
asba(ichempy
Bond
(dp1030
g808
I1
sg19
(lp1031
I110
aI111
asba(ichempy
Bond
(dp1032
g808
I1
sg19
(lp1033
I114
aI112
asba(ichempy
Bond
(dp1034
g808
I1
sg19
(lp1035
I114
aI110
asba(ichempy
Bond
(dp1036
g808
I1
sg19
(lp1037
I114
aI92
asba(ichempy
Bond
(dp1038
g808
I2
sg19
(lp1039
I116
aI132
asba(ichempy
Bond
(dp1040
g808
I1
sg19
(lp1041
I117
aI128
asba(ichempy
Bond
(dp1042
g808
I1
sg19
(lp1043
I117
aI118
asba(ichempy
Bond
(dp1044
g808
I1
sg19
(lp1045
I117
aI116
asba(ichempy
Bond
(dp1046
g808
I1
sg19
(lp1047
I119
aI131
asba(ichempy
Bond
(dp1048
g808
I2
sg19
(lp1049
I120
aI130
asba(ichempy
Bond
(dp1050
g808
I2
sg19
(lp1051
I121
aI119
asba(ichempy
Bond
(dp1052
g808
I1
sg19
(lp1053
I121
aI118
asba(ichempy
Bond
(dp1054
g808
I1
sg19
(lp1055
I122
aI120
asba(ichempy
Bond
(dp1056
g808
I1
sg19
(lp1057
I123
aI118
asba(ichempy
Bond
(dp1058
g808
I1
sg19
(lp1059
I124
aI119
asba(ichempy
Bond
(dp1060
g808
I1
sg19
(lp1061
I125
aI131
asba(ichempy
Bond
(dp1062
g808
I1
sg19
(lp1063
I126
aI118
asba(ichempy
Bond
(dp1064
g808
I1
sg19
(lp1065
I129
aI127
asba(ichempy
Bond
(dp1066
g808
I1
sg19
(lp1067
I129
aI117
asba(ichempy
Bond
(dp1068
g808
I1
sg19
(lp1069
I129
aI109
asba(ichempy
Bond
(dp1070
g808
I1
sg19
(lp1071
I130
aI121
asba(ichempy
Bond
(dp1072
g808
I1
sg19
(lp1073
I131
aI120
asba(ichempy
Bond
(dp1074
g808
I2
sg19
(lp1075
I133
aI149
asba(ichempy
Bond
(dp1076
g808
I1
sg19
(lp1077
I134
aI145
asba(ichempy
Bond
(dp1078
g808
I1
sg19
(lp1079
I134
aI135
asba(ichempy
Bond
(dp1080
g808
I1
sg19
(lp1081
I134
aI133
asba(ichempy
Bond
(dp1082
g808
I1
sg19
(lp1083
I136
aI148
asba(ichempy
Bond
(dp1084
g808
I1
sg19
(lp1085
I137
aI147
asba(ichempy
Bond
(dp1086
g808
I2
sg19
(lp1087
I138
aI136
asba(ichempy
Bond
(dp1088
g808
I1
sg19
(lp1089
I138
aI135
asba(ichempy
Bond
(dp1090
g808
I1
sg19
(lp1091
I139
aI147
asba(ichempy
Bond
(dp1092
g808
I1
sg19
(lp1093
I140
aI137
asba(ichempy
Bond
(dp1094
g808
I1
sg19
(lp1095
I141
aI135
asba(ichempy
Bond
(dp1096
g808
I1
sg19
(lp1097
I142
aI136
asba(ichempy
Bond
(dp1098
g808
I1
sg19
(lp1099
I143
aI135
asba(ichempy
Bond
(dp1100
g808
I1
sg19
(lp1101
I146
aI144
asba(ichempy
Bond
(dp1102
g808
I1
sg19
(lp1103
I146
aI134
asba(ichempy
Bond
(dp1104
g808
I1
sg19
(lp1105
I146
aI116
asba(ichempy
Bond
(dp1106
g808
I1
sg19
(lp1107
I147
aI138
asba(ichempy
Bond
(dp1108
g808
I2
sg19
(lp1109
I148
aI137
asba(ichempy
Bond
(dp1110
g808
I2
sg19
(lp1111
I150
aI167
asba(ichempy
Bond
(dp1112
g808
I1
sg19
(lp1113
I151
aI163
asba(ichempy
Bond
(dp1114
g808
I1
sg19
(lp1115
I151
aI152
asba(ichempy
Bond
(dp1116
g808
I1
sg19
(lp1117
I151
aI150
asba(ichempy
Bond
(dp1118
g808
I1
sg19
(lp1119
I153
aI166
asba(ichempy
Bond
(dp1120
g808
I2
sg19
(lp1121
I154
aI165
asba(ichempy
Bond
(dp1122
g808
I2
sg19
(lp1123
I155
aI153
asba(ichempy
Bond
(dp1124
g808
I1
sg19
(lp1125
I155
aI152
asba(ichempy
Bond
(dp1126
g808
I1
sg19
(lp1127
I156
aI165
asba(ichempy
Bond
(dp1128
g808
I1
sg19
(lp1129
I157
aI154
asba(ichempy
Bond
(dp1130
g808
I1
sg19
(lp1131
I158
aI152
asba(ichempy
Bond
(dp1132
g808
I1
sg19
(lp1133
I159
aI153
asba(ichempy
Bond
(dp1134
g808
I1
sg19
(lp1135
I160
aI166
asba(ichempy
Bond
(dp1136
g808
I1
sg19
(lp1137
I161
aI152
asba(ichempy
Bond
(dp1138
g808
I1
sg19
(lp1139
I164
aI162
asba(ichempy
Bond
(dp1140
g808
I1
sg19
(lp1141
I164
aI151
asba(ichempy
Bond
(dp1142
g808
I1
sg19
(lp1143
I164
aI133
asba(ichempy
Bond
(dp1144
g808
I1
sg19
(lp1145
I165
aI155
asba(ichempy
Bond
(dp1146
g808
I1
sg19
(lp1147
I166
aI154
asba(ichempy
Bond
(dp1148
g808
I2
sg19
(lp1149
I168
aI186
asba(ichempy
Bond
(dp1150
g808
I1
sg19
(lp1151
I169
aI183
asba(ichempy
Bond
(dp1152
g808
I1
sg19
(lp1153
I169
aI170
asba(ichempy
Bond
(dp1154
g808
I1
sg19
(lp1155
I169
aI168
asba(ichempy
Bond
(dp1156
g808
I1
sg19
(lp1157
I171
aI172
asba(ichempy
Bond
(dp1158
g808
I1
sg19
(lp1159
I172
aI170
asba(ichempy
Bond
(dp1160
g808
I1
sg19
(lp1161
I173
aI170
asba(ichempy
Bond
(dp1162
g808
I1
sg19
(lp1163
I174
aI171
asba(ichempy
Bond
(dp1164
g808
I1
sg19
(lp1165
I175
aI173
asba(ichempy
Bond
(dp1166
g808
I1
sg19
(lp1167
I176
aI171
asba(ichempy
Bond
(dp1168
g808
I1
sg19
(lp1169
I177
aI172
asba(ichempy
Bond
(dp1170
g808
I1
sg19
(lp1171
I178
aI173
asba(ichempy
Bond
(dp1172
g808
I1
sg19
(lp1173
I179
aI171
asba(ichempy
Bond
(dp1174
g808
I1
sg19
(lp1175
I180
aI172
asba(ichempy
Bond
(dp1176
g808
I1
sg19
(lp1177
I181
aI173
asba(ichempy
Bond
(dp1178
g808
I1
sg19
(lp1179
I184
aI170
asba(ichempy
Bond
(dp1180
g808
I1
sg19
(lp1181
I185
aI182
asba(ichempy
Bond
(dp1182
g808
I1
sg19
(lp1183
I185
aI169
asba(ichempy
Bond
(dp1184
g808
I1
sg19
(lp1185
I185
aI150
asba(ichempy
Bond
(dp1186
g808
I2
sg19
(lp1187
I187
aI205
asba(ichempy
Bond
(dp1188
g808
I1
sg19
(lp1189
I188
aI202
asba(ichempy
Bond
(dp1190
g808
I1
sg19
(lp1191
I188
aI189
asba(ichempy
Bond
(dp1192
g808
I1
sg19
(lp1193
I188
aI187
asba(ichempy
Bond
(dp1194
g808
I1
sg19
(lp1195
I190
aI192
asba(ichempy
Bond
(dp1196
g808
I1
sg19
(lp1197
I191
aI192
asba(ichempy
Bond
(dp1198
g808
I1
sg19
(lp1199
I192
aI189
asba(ichempy
Bond
(dp1200
g808
I1
sg19
(lp1201
I193
aI190
asba(ichempy
Bond
(dp1202
g808
I1
sg19
(lp1203
I194
aI191
asba(ichempy
Bond
(dp1204
g808
I1
sg19
(lp1205
I195
aI189
asba(ichempy
Bond
(dp1206
g808
I1
sg19
(lp1207
I196
aI190
asba(ichempy
Bond
(dp1208
g808
I1
sg19
(lp1209
I197
aI191
asba(ichempy
Bond
(dp1210
g808
I1
sg19
(lp1211
I198
aI189
asba(ichempy
Bond
(dp1212
g808
I1
sg19
(lp1213
I199
aI190
asba(ichempy
Bond
(dp1214
g808
I1
sg19
(lp1215
I200
aI191
asba(ichempy
Bond
(dp1216
g808
I1
sg19
(lp1217
I203
aI192
asba(ichempy
Bond
(dp1218
g808
I1
sg19
(lp1219
I204
aI201
asba(ichempy
Bond
(dp1220
g808
I1
sg19
(lp1221
I204
aI188
asba(ichempy
Bond
(dp1222
g808
I1
sg19
(lp1223
I204
aI168
asba(ichempy
Bond
(dp1224
g808
I2
sg19
(lp1225
I206
aI227
asba(ichempy
Bond
(dp1226
g808
I1
sg19
(lp1227
I207
aI224
asba(ichempy
Bond
(dp1228
g808
I1
sg19
(lp1229
I207
aI208
asba(ichempy
Bond
(dp1230
g808
I1
sg19
(lp1231
I207
aI206
asba(ichempy
Bond
(dp1232
g808
I1
sg19
(lp1233
I209
aI211
asba(ichempy
Bond
(dp1234
g808
I1
sg19
(lp1235
I210
aI209
asba(ichempy
Bond
(dp1236
g808
I1
sg19
(lp1237
I211
aI208
asba(ichempy
Bond
(dp1238
g808
I1
sg19
(lp1239
I212
aI226
asba(ichempy
Bond
(dp1240
g808
I1
sg19
(lp1241
I213
aI208
asba(ichempy
Bond
(dp1242
g808
I1
sg19
(lp1243
I214
aI209
asba(ichempy
Bond
(dp1244
g808
I1
sg19
(lp1245
I215
aI210
asba(ichempy
Bond
(dp1246
g808
I1
sg19
(lp1247
I216
aI211
asba(ichempy
Bond
(dp1248
g808
I1
sg19
(lp1249
I217
aI226
asba(ichempy
Bond
(dp1250
g808
I1
sg19
(lp1251
I218
aI208
asba(ichempy
Bond
(dp1252
g808
I1
sg19
(lp1253
I219
aI209
asba(ichempy
Bond
(dp1254
g808
I1
sg19
(lp1255
I220
aI210
asba(ichempy
Bond
(dp1256
g808
I1
sg19
(lp1257
I221
aI211
asba(ichempy
Bond
(dp1258
g808
I1
sg19
(lp1259
I222
aI226
asba(ichempy
Bond
(dp1260
g808
I1
sg19
(lp1261
I225
aI223
asba(ichempy
Bond
(dp1262
g808
I1
sg19
(lp1263
I225
aI207
asba(ichempy
Bond
(dp1264
g808
I1
sg19
(lp1265
I225
aI187
asba(ichempy
Bond
(dp1266
g808
I1
sg19
(lp1267
I226
aI210
asba(ichempy
Bond
(dp1268
g808
I2
sg19
(lp1269
I228
aI243
asba(ichempy
Bond
(dp1270
g808
I1
sg19
(lp1271
I229
aI241
asba(ichempy
Bond
(dp1272
g808
I1
sg19
(lp1273
I229
aI230
asba(ichempy
Bond
(dp1274
g808
I1
sg19
(lp1275
I229
aI228
asba(ichempy
Bond
(dp1276
g808
I1
sg19
(lp1277
I231
aI244
asba(ichempy
Bond
(dp1278
g808
I1
sg19
(lp1279
I232
aI230
asba(ichempy
Bond
(dp1280
g808
I1
sg19
(lp1281
I233
aI231
asba(ichempy
Bond
(dp1282
g808
I1
sg19
(lp1283
I234
aI230
asba(ichempy
Bond
(dp1284
g808
I1
sg19
(lp1285
I235
aI231
asba(ichempy
Bond
(dp1286
g808
I1
sg19
(lp1287
I236
aI232
asba(ichempy
Bond
(dp1288
g808
I1
sg19
(lp1289
I237
aI230
asba(ichempy
Bond
(dp1290
g808
I1
sg19
(lp1291
I238
aI231
asba(ichempy
Bond
(dp1292
g808
I1
sg19
(lp1293
I239
aI232
asba(ichempy
Bond
(dp1294
g808
I1
sg19
(lp1295
I242
aI240
asba(ichempy
Bond
(dp1296
g808
I1
sg19
(lp1297
I242
aI229
asba(ichempy
Bond
(dp1298
g808
I1
sg19
(lp1299
I242
aI206
asba(ichempy
Bond
(dp1300
g808
I1
sg19
(lp1301
I244
aI232
asba(ichempy
Bond
(dp1302
g808
I2
sg19
(lp1303
I245
aI264
asba(ichempy
Bond
(dp1304
g808
I1
sg19
(lp1305
I246
aI261
asba(ichempy
Bond
(dp1306
g808
I1
sg19
(lp1307
I246
aI247
asba(ichempy
Bond
(dp1308
g808
I1
sg19
(lp1309
I246
aI245
asba(ichempy
Bond
(dp1310
g808
I2
sg19
(lp1311
I248
aI252
asba(ichempy
Bond
(dp1312
g808
I1
sg19
(lp1313
I249
aI252
asba(ichempy
Bond
(dp1314
g808
I2
sg19
(lp1315
I249
aI251
asba(ichempy
Bond
(dp1316
g808
I1
sg19
(lp1317
I250
aI248
asba(ichempy
Bond
(dp1318
g808
I1
sg19
(lp1319
I251
aI253
asba(ichempy
Bond
(dp1320
g808
I1
sg19
(lp1321
I252
aI247
asba(ichempy
Bond
(dp1322
g808
I2
sg19
(lp1323
I253
aI250
asba(ichempy
Bond
(dp1324
g808
I1
sg19
(lp1325
I254
aI248
asba(ichempy
Bond
(dp1326
g808
I1
sg19
(lp1327
I255
aI250
asba(ichempy
Bond
(dp1328
g808
I1
sg19
(lp1329
I256
aI247
asba(ichempy
Bond
(dp1330
g808
I1
sg19
(lp1331
I257
aI249
asba(ichempy
Bond
(dp1332
g808
I1
sg19
(lp1333
I258
aI251
asba(ichempy
Bond
(dp1334
g808
I1
sg19
(lp1335
I259
aI247
asba(ichempy
Bond
(dp1336
g808
I1
sg19
(lp1337
I262
aI253
asba(ichempy
Bond
(dp1338
g808
I1
sg19
(lp1339
I263
aI260
asba(ichempy
Bond
(dp1340
g808
I1
sg19
(lp1341
I263
aI246
asba(ichempy
Bond
(dp1342
g808
I1
sg19
(lp1343
I263
aI228
asba(ichempy
Bond
(dp1344
g808
I2
sg19
(lp1345
I265
aI278
asba(ichempy
Bond
(dp1346
g808
I1
sg19
(lp1347
I266
aI276
asba(ichempy
Bond
(dp1348
g808
I1
sg19
(lp1349
I266
aI267
asba(ichempy
Bond
(dp1350
g808
I1
sg19
(lp1351
I266
aI265
asba(ichempy
Bond
(dp1352
g808
I1
sg19
(lp1353
I267
aI269
asba(ichempy
Bond
(dp1354
g808
I1
sg19
(lp1355
I269
aI268
asba(ichempy
Bond
(dp1356
g808
I1
sg19
(lp1357
I270
aI267
asba(ichempy
Bond
(dp1358
g808
I1
sg19
(lp1359
I271
aI268
asba(ichempy
Bond
(dp1360
g808
I1
sg19
(lp1361
I272
aI269
asba(ichempy
Bond
(dp1362
g808
I1
sg19
(lp1363
I273
aI267
asba(ichempy
Bond
(dp1364
g808
I1
sg19
(lp1365
I274
aI268
asba(ichempy
Bond
(dp1366
g808
I1
sg19
(lp1367
I275
aI269
asba(ichempy
Bond
(dp1368
g808
I1
sg19
(lp1369
I277
aI266
asba(ichempy
Bond
(dp1370
g808
I1
sg19
(lp1371
I277
aI268
asba(ichempy
Bond
(dp1372
g808
I1
sg19
(lp1373
I277
aI245
asba(ichempy
Bond
(dp1374
g808
I2
sg19
(lp1375
I279
aI288
asba(ichempy
Bond
(dp1376
g808
I1
sg19
(lp1377
I280
aI285
asba(ichempy
Bond
(dp1378
g808
I1
sg19
(lp1379
I280
aI281
asba(ichempy
Bond
(dp1380
g808
I1
sg19
(lp1381
I280
aI279
asba(ichempy
Bond
(dp1382
g808
I1
sg19
(lp1383
I282
aI281
asba(ichempy
Bond
(dp1384
g808
I1
sg19
(lp1385
I283
aI281
asba(ichempy
Bond
(dp1386
g808
I1
sg19
(lp1387
I286
aI289
asba(ichempy
Bond
(dp1388
g808
I1
sg19
(lp1389
I287
aI284
asba(ichempy
Bond
(dp1390
g808
I1
sg19
(lp1391
I287
aI280
asba(ichempy
Bond
(dp1392
g808
I1
sg19
(lp1393
I287
aI265
asba(ichempy
Bond
(dp1394
g808
I1
sg19
(lp1395
I289
aI281
asba(ichempy
Bond
(dp1396
g808
I2
sg19
(lp1397
I290
aI302
asba(ichempy
Bond
(dp1398
g808
I1
sg19
(lp1399
I291
aI299
asba(ichempy
Bond
(dp1400
g808
I1
sg19
(lp1401
I291
aI292
asba(ichempy
Bond
(dp1402
g808
I1
sg19
(lp1403
I291
aI290
asba(ichempy
Bond
(dp1404
g808
I1
sg19
(lp1405
I293
aI292
asba(ichempy
Bond
(dp1406
g808
I1
sg19
(lp1407
I294
aI303
asba(ichempy
Bond
(dp1408
g808
I1
sg19
(lp1409
I295
aI293
asba(ichempy
Bond
(dp1410
g808
I1
sg19
(lp1411
I296
aI293
asba(ichempy
Bond
(dp1412
g808
I1
sg19
(lp1413
I297
aI293
asba(ichempy
Bond
(dp1414
g808
I1
sg19
(lp1415
I300
aI292
asba(ichempy
Bond
(dp1416
g808
I1
sg19
(lp1417
I301
aI298
asba(ichempy
Bond
(dp1418
g808
I1
sg19
(lp1419
I301
aI291
asba(ichempy
Bond
(dp1420
g808
I1
sg19
(lp1421
I301
aI279
asba(ichempy
Bond
(dp1422
g808
I1
sg19
(lp1423
I303
aI292
asba(ichempy
Bond
(dp1424
g808
I2
sg19
(lp1425
I304
aI327
asba(ichempy
Bond
(dp1426
g808
I1
sg19
(lp1427
I305
aI324
asba(ichempy
Bond
(dp1428
g808
I1
sg19
(lp1429
I305
aI304
asba(ichempy
Bond
(dp1430
g808
I1
sg19
(lp1431
I305
aI306
asba(ichempy
Bond
(dp1432
g808
I2
sg19
(lp1433
I307
aI311
asba(ichempy
Bond
(dp1434
g808
I1
sg19
(lp1435
I308
aI310
asba(ichempy
Bond
(dp1436
g808
I2
sg19
(lp1437
I309
aI308
asba(ichempy
Bond
(dp1438
g808
I1
sg19
(lp1439
I309
aI326
asba(ichempy
Bond
(dp1440
g808
I2
sg19
(lp1441
I310
aI314
asba(ichempy
Bond
(dp1442
g808
I1
sg19
(lp1443
I311
aI308
asba(ichempy
Bond
(dp1444
g808
I1
sg19
(lp1445
I311
aI306
asba(ichempy
Bond
(dp1446
g808
I2
sg19
(lp1447
I312
aI313
asba(ichempy
Bond
(dp1448
g808
I1
sg19
(lp1449
I313
aI309
asba(ichempy
Bond
(dp1450
g808
I1
sg19
(lp1451
I314
aI312
asba(ichempy
Bond
(dp1452
g808
I1
sg19
(lp1453
I315
aI307
asba(ichempy
Bond
(dp1454
g808
I1
sg19
(lp1455
I316
aI326
asba(ichempy
Bond
(dp1456
g808
I1
sg19
(lp1457
I317
aI306
asba(ichempy
Bond
(dp1458
g808
I1
sg19
(lp1459
I318
aI312
asba(ichempy
Bond
(dp1460
g808
I1
sg19
(lp1461
I319
aI313
asba(ichempy
Bond
(dp1462
g808
I1
sg19
(lp1463
I320
aI306
asba(ichempy
Bond
(dp1464
g808
I1
sg19
(lp1465
I321
aI310
asba(ichempy
Bond
(dp1466
g808
I1
sg19
(lp1467
I322
aI314
asba(ichempy
Bond
(dp1468
g808
I1
sg19
(lp1469
I325
aI323
asba(ichempy
Bond
(dp1470
g808
I1
sg19
(lp1471
I325
aI305
asba(ichempy
Bond
(dp1472
g808
I1
sg19
(lp1473
I325
aI290
asba(ichempy
Bond
(dp1474
g808
I1
sg19
(lp1475
I326
aI307
asba(ichempy
Bond
(dp1476
g808
I2
sg19
(lp1477
I328
aI347
asba(ichempy
Bond
(dp1478
g808
I1
sg19
(lp1479
I329
aI344
asba(ichempy
Bond
(dp1480
g808
I1
sg19
(lp1481
I329
aI330
asba(ichempy
Bond
(dp1482
g808
I1
sg19
(lp1483
I329
aI328
asba(ichempy
Bond
(dp1484
g808
I2
sg19
(lp1485
I331
aI335
asba(ichempy
Bond
(dp1486
g808
I1
sg19
(lp1487
I332
aI335
asba(ichempy
Bond
(dp1488
g808
I2
sg19
(lp1489
I332
aI334
asba(ichempy
Bond
(dp1490
g808
I1
sg19
(lp1491
I333
aI331
asba(ichempy
Bond
(dp1492
g808
I1
sg19
(lp1493
I334
aI336
asba(ichempy
Bond
(dp1494
g808
I1
sg19
(lp1495
I335
aI330
asba(ichempy
Bond
(dp1496
g808
I2
sg19
(lp1497
I336
aI333
asba(ichempy
Bond
(dp1498
g808
I1
sg19
(lp1499
I337
aI331
asba(ichempy
Bond
(dp1500
g808
I1
sg19
(lp1501
I338
aI333
asba(ichempy
Bond
(dp1502
g808
I1
sg19
(lp1503
I339
aI330
asba(ichempy
Bond
(dp1504
g808
I1
sg19
(lp1505
I340
aI332
asba(ichempy
Bond
(dp1506
g808
I1
sg19
(lp1507
I341
aI334
asba(ichempy
Bond
(dp1508
g808
I1
sg19
(lp1509
I342
aI330
asba(ichempy
Bond
(dp1510
g808
I1
sg19
(lp1511
I345
aI348
asba(ichempy
Bond
(dp1512
g808
I1
sg19
(lp1513
I346
aI343
asba(ichempy
Bond
(dp1514
g808
I1
sg19
(lp1515
I346
aI329
asba(ichempy
Bond
(dp1516
g808
I1
sg19
(lp1517
I346
aI304
asba(ichempy
Bond
(dp1518
g808
I1
sg19
(lp1519
I348
aI336
asba(ichempy
Bond
(dp1520
g808
I2
sg19
(lp1521
I349
aI364
asba(ichempy
Bond
(dp1522
g808
I1
sg19
(lp1523
I350
aI361
asba(ichempy
Bond
(dp1524
g808
I1
sg19
(lp1525
I350
aI351
asba(ichempy
Bond
(dp1526
g808
I1
sg19
(lp1527
I350
aI349
asba(ichempy
Bond
(dp1528
g808
I1
sg19
(lp1529
I352
aI351
asba(ichempy
Bond
(dp1530
g808
I1
sg19
(lp1531
I353
aI351
asba(ichempy
Bond
(dp1532
g808
I1
sg19
(lp1533
I354
aI352
asba(ichempy
Bond
(dp1534
g808
I1
sg19
(lp1535
I355
aI353
asba(ichempy
Bond
(dp1536
g808
I1
sg19
(lp1537
I356
aI352
asba(ichempy
Bond
(dp1538
g808
I1
sg19
(lp1539
I357
aI353
asba(ichempy
Bond
(dp1540
g808
I1
sg19
(lp1541
I358
aI352
asba(ichempy
Bond
(dp1542
g808
I1
sg19
(lp1543
I359
aI353
asba(ichempy
Bond
(dp1544
g808
I1
sg19
(lp1545
I362
aI351
asba(ichempy
Bond
(dp1546
g808
I1
sg19
(lp1547
I363
aI360
asba(ichempy
Bond
(dp1548
g808
I1
sg19
(lp1549
I363
aI350
asba(ichempy
Bond
(dp1550
g808
I1
sg19
(lp1551
I363
aI328
asba(ichempy
Bond
(dp1552
g808
I1
sg19
(lp1553
I365
aI366
asba(ichempy
Bond
(dp1554
g808
I1
sg19
(lp1555
I365
aI368
asba(ichempy
Bond
(dp1556
g808
I1
sg19
(lp1557
I365
aI367
asba(ichempy
Bond
(dp1558
g808
I1
sg19
(lp1559
I370
aI369
asba(ichempy
Bond
(dp1560
g808
I1
sg19
(lp1561
I370
aI365
asba(ichempy
Bond
(dp1562
g808
I1
sg19
(lp1563
I370
aI349
asbasb.