(ichempy.models
Indexed
p1
(dp2
S'atom'
p3
(lp4
(ichempy
Atom
(dp5
S'resn'
p6
S'PHE'
sS'id'
p7
I40
sS'partial_charge'
p8
F-0.41569998860359192
sS'formal_charge'
p9
I0
sS'segi'
p10
S''
sS'resi'
p11
S'2'
sS'resi_number'
p12
I2
sS'q'
F1
sS'hetatm'
p13
I0
sS'coord'
p14
(lp15
F3.2369999885559082
aF1.6820000410079956
aF0
asS'symbol'
p16
S'N'
sS'text_type'
p17
S'N'
sS'flags'
p18
I0
sS'vdw'
p19
F1.7999999523162842
sS'name'
p20
S'N'
sS'b'
F0
sS'index'
p21
I23
sS'chain'
p22
S''
sba(ichempy
Atom
(dp23
g6
S'PHE'
sg7
I23
sg8
F-0.0024000001139938831
sg9
I0
sg10
S''
sg11
S'2'
sg12
I2
sS'q'
F1
sg13
I0
sg14
(lp24
F3.752000093460083
aF3.0480000972747803
aF0
asg16
S'C'
sg17
S'CT'
sg18
I0
sg19
F1.7999999523162842
sg20
S'CA'
sS'b'
F0
sg21
I24
sg22
S''
sba(ichempy
Atom
(dp25
g6
S'PHE'
sg7
I24
sg8
F-0.034299999475479126
sg9
I0
sg10
S''
sg11
S'2'
sg12
I2
sS'q'
F1
sg13
I0
sg14
(lp26
F3.2439999580383301
aF3.8110001087188721
aF1.2610000371932983
asg16
S'C'
sg17
S'CT'
sg18
I0
sg19
F1.7999999523162842
sg20
S'CB'
sS'b'
F0
sg21
I25
sg22
S''
sba(ichempy
Atom
(dp27
g6
S'PHE'
sg7
I29
sg8
F0.011800000444054604
sg9
I0
sg10
S''
sg11
S'2'
sg12
I2
sS'q'
F1
sg13
I0
sg14
(lp28
F1.7200000286102295
aF3.9059998989105225
aF1.4359999895095825
asg16
S'C'
sg17
S'CA'
sg18
I0
sg19
F1.7999999523162842
sg20
S'CG'
sS'b'
F0
sg21
I26
sg22
S''
sba(ichempy
Atom
(dp29
g6
S'PHE'
sg7
I25
sg8
F-0.12559999525547028
sg9
I0
sg10
S''
sg11
S'2'
sg12
I2
sS'q'
F1
sg13
I0
sg14
(lp30
F1.0379999876022339
aF2.8910000324249268
aF2.1170001029968262
asg16
S'C'
sg17
S'CA'
sg18
I0
sg19
F1.7999999523162842
sg20
S'CD1'
sS'b'
F0
sg21
I27
sg22
S''
sba(ichempy
Atom
(dp31
g6
S'PHE'
sg7
I26
sg8
F-0.12559999525547028
sg9
I0
sg10
S''
sg11
S'2'
sg12
I2
sS'q'
F1
sg13
I0
sg14
(lp32
F0.99900001287460327
aF4.9600000381469727
aF0.87000000476837158
asg16
S'C'
sg17
S'CA'
sg18
I0
sg19
F1.7999999523162842
sg20
S'CD2'
sS'b'
F0
sg21
I28
sg22
S''
sba(ichempy
Atom
(dp33
g6
S'PHE'
sg7
I27
sg8
F-0.1703999936580658
sg9
I0
sg10
S''
sg11
S'2'
sg12
I2
sS'q'
F1
sg13
I0
sg14
(lp34
F-0.34900000691413879
aF2.9210000038146973
aF2.2139999866485596
asg16
S'C'
sg17
S'CA'
sg18
I0
sg19
F1.7999999523162842
sg20
S'CE1'
sS'b'
F0
sg21
I29
sg22
S''
sba(ichempy
Atom
(dp35
g6
S'PHE'
sg7
I28
sg8
F-0.1703999936580658
sg9
I0
sg10
S''
sg11
S'2'
sg12
I2
sS'q'
F1
sg13
I0
sg14
(lp36
F-0.38899999856948853
aF4.994999885559082
aF0.97699999809265137
asg16
S'C'
sg17
S'CA'
sg18
I0
sg19
F1.7999999523162842
sg20
S'CE2'
sS'b'
F0
sg21
I30
sg22
S''
sba(ichempy
Atom
(dp37
g6
S'PHE'
sg7
I30
sg8
F-0.10719999670982361
sg9
I0
sg10
S''
sg11
S'2'
sg12
I2
sS'q'
F1
sg13
I0
sg14
(lp38
F-1.062000036239624
aF3.9739999771118164
aF1.6460000276565552
asg16
S'C'
sg17
S'CA'
sg18
I0
sg19
F1.7999999523162842
sg20
S'CZ'
sS'b'
F0
sg21
I31
sg22
S''
sba(ichempy
Atom
(dp39
g6
S'PHE'
sg7
I22
sg8
F0.59729999303817749
sg9
I0
sg10
S''
sg11
S'2'
sg12
I2
sS'q'
F1
sg13
I0
sg14
(lp40
F5.2620000839233398
aF3.0580000877380371
aF0
asg16
S'C'
sg17
S'C'
sg18
I0
sg19
F1.7999999523162842
sg20
S'C'
sS'b'
F0
sg21
I32
sg22
S''
sba(ichempy
Atom
(dp41
g6
S'PHE'
sg7
I41
sg8
F-0.56790000200271606
sg9
I0
sg10
S''
sg11
S'2'
sg12
I2
sS'q'
F1
sg13
I0
sg14
(lp42
F5.9369997978210449
aF1.9910000562667847
aF0
asg16
S'O'
sg17
S'O'
sg18
I0
sg19
F1.5
sg20
S'O'
sS'b'
F0
sg21
I33
sg22
S''
sba(ichempy
Atom
(dp43
g6
S'PHE'
sg7
I31
sg8
F0.13300000131130219
sg9
I0
sg10
S''
sg11
S'2'
sg12
I2
sS'q'
F1
sg13
I0
sg14
(lp44
F1.5829999446868896
aF2.0539999008178711
aF2.5329999923706055
asg16
S'H'
sg17
S'HA'
sg18
I0
sg19
F1.1000000238418579
sg20
S'1HD'
sS'b'
F0
sg21
I34
sg22
S''
sba(ichempy
Atom
(dp45
g6
S'PHE'
sg7
I32
sg8
F0.14300000667572021
sg9
I0
sg10
S''
sg11
S'2'
sg12
I2
sS'q'
F1
sg13
I0
sg14
(lp46
F-0.86799997091293335
aF2.1170001029968262
aF2.7149999141693115
asg16
S'H'
sg17
S'HA'
sg18
I0
sg19
F1.1000000238418579
sg20
S'1HE'
sS'b'
F0
sg21
I35
sg22
S''
sba(ichempy
Atom
(dp47
g6
S'PHE'
sg7
I33
sg8
F0.029500000178813934
sg9
I0
sg10
S''
sg11
S'2'
sg12
I2
sS'q'
F1
sg13
I0
sg14
(lp48
F3.6600000858306885
aF4.8379998207092285
aF1.2619999647140503
asg16
S'H'
sg17
S'HC'
sg18
I0
sg19
F1.1000000238418579
sg20
S'2HB'
sS'b'
F0
sg21
I36
sg22
S''
sba(ichempy
Atom
(dp49
g6
S'PHE'
sg7
I34
sg8
F0.13300000131130219
sg9
I0
sg10
S''
sg11
S'2'
sg12
I2
sS'q'
F1
sg13
I0
sg14
(lp50
F1.5130000114440918
aF5.7439999580383301
aF0.33100000023841858
asg16
S'H'
sg17
S'HA'
sg18
I0
sg19
F1.1000000238418579
sg20
S'2HD'
sS'b'
F0
sg21
I37
sg22
S''
sba(ichempy
Atom
(dp51
g6
S'PHE'
sg7
I35
sg8
F0.14300000667572021
sg9
I0
sg10
S''
sg11
S'2'
sg12
I2
sS'q'
F1
sg13
I0
sg14
(lp52
F-0.94300001859664917
aF5.8080000877380371
aF0.53100001811981201
asg16
S'H'
sg17
S'HA'
sg18
I0
sg19
F1.1000000238418579
sg20
S'2HE'
sS'b'
F0
sg21
I38
sg22
S''
sba(ichempy
Atom
(dp53
g6
S'PHE'
sg7
I36
sg8
F0.029500000178813934
sg9
I0
sg10
S''
sg11
S'2'
sg12
I2
sS'q'
F1
sg13
I0
sg14
(lp54
F3.6809999942779541
aF3.3550000190734863
aF2.1730000972747803
asg16
S'H'
sg17
S'HC'
sg18
I0
sg19
F1.1000000238418579
sg20
S'3HB'
sS'b'
F0
sg21
I39
sg22
S''
sba(ichempy
Atom
(dp55
g6
S'PHE'
sg7
I37
sg8
F0.2718999981880188
sg9
I0
sg10
S''
sg11
S'2'
sg12
I2
sS'q'
F1
sg13
I0
sg14
(lp56
F3.8919999599456787
aF0.82400000095367432
aF0
asg16
S'H'
sg17
S'H'
sg18
I0
sg19
F1.1000000238418579
sg20
S'H'
sS'b'
F0
sg21
I40
sg22
S''
sba(ichempy
Atom
(dp57
g6
S'PHE'
sg7
I38
sg8
F0.097800001502037048
sg9
I0
sg10
S''
sg11
S'2'
sg12
I2
sS'q'
F1
sg13
I0
sg14
(lp58
F3.4059998989105225
aF3.562000036239624
aF-0.91699999570846558
asg16
S'H'
sg17
S'H1'
sg18
I0
sg19
F1.1000000238418579
sg20
S'HA'
sS'b'
F0
sg21
I41
sg22
S''
sba(ichempy
Atom
(dp59
g6
S'PHE'
sg7
I39
sg8
F0.12970000505447388
sg9
I0
sg10
S''
sg11
S'2'
sg12
I2
sS'q'
F1
sg13
I0
sg14
(lp60
F-2.1389999389648438
aF3.9920001029968262
aF1.718000054359436
asg16
S'H'
sg17
S'HA'
sg18
I0
sg19
F1.1000000238418579
sg20
S'HZ'
sS'b'
F0
sg21
I42
sg22
S''
sbasS'molecule'
p61
(ichempy
Molecule
(dp62
bsg21
NsS'bond'
p63
(lp64
(ichempy
Bond
(dp65
S'order'
p66
I1
sg21
(lp67
I0
aI1
asba(ichempy
Bond
(dp68
g66
I1
sg21
(lp69
I0
aI17
asba(ichempy
Bond
(dp70
g66
I1
sg21
(lp71
I1
aI2
asba(ichempy
Bond
(dp72
g66
I1
sg21
(lp73
I1
aI9
asba(ichempy
Bond
(dp74
g66
I1
sg21
(lp75
I1
aI18
asba(ichempy
Bond
(dp76
g66
I1
sg21
(lp77
I3
aI2
asba(ichempy
Bond
(dp78
g66
I2
sg21
(lp79
I4
aI3
asba(ichempy
Bond
(dp80
g66
I1
sg21
(lp81
I5
aI3
asba(ichempy
Bond
(dp82
g66
I2
sg21
(lp83
I5
aI7
asba(ichempy
Bond
(dp84
g66
I1
sg21
(lp85
I6
aI4
asba(ichempy
Bond
(dp86
g66
I1
sg21
(lp87
I7
aI8
asba(ichempy
Bond
(dp88
g66
I2
sg21
(lp89
I8
aI6
asba(ichempy
Bond
(dp90
g66
I2
sg21
(lp91
I9
aI10
asba(ichempy
Bond
(dp92
g66
I1
sg21
(lp93
I11
aI4
asba(ichempy
Bond
(dp94
g66
I1
sg21
(lp95
I12
aI6
asba(ichempy
Bond
(dp96
g66
I1
sg21
(lp97
I13
aI2
asba(ichempy
Bond
(dp98
g66
I1
sg21
(lp99
I14
aI5
asba(ichempy
Bond
(dp100
g66
I1
sg21
(lp101
I15
aI7
asba(ichempy
Bond
(dp102
g66
I1
sg21
(lp103
I16
aI2
asba(ichempy
Bond
(dp104
g66
I1
sg21
(lp105
I19
aI8
asbasb.